(lp0
(dp1
S'courses'
p2
(lp3
(dp4
S'sections'
p5
(lp6
(dp7
S'instructor'
p8
VSTAFF
p9
sS'books'
p10
(lp11
(dp12
S'ISBN'
p13
I9781256729952
sS'author'
p14
VHarrison*
p15
sS'isRequired'
p16
VRequired
p17
sS'broncoListPrice'
p18
F136.25
sS'binding'
p19
VKit/Set/Package
p20
sS'edition'
p21
V8
p22
sa(dp23
g13
I9780137024315
sg14
VHarrison
p24
sg16
VPart of Set
p25
sg18
F126.25
sg19
VLooseleaf
p26
sg21
g22
sa(dp27
g13
I9780132970907
sg14
VPearson
p28
sg16
VPart of Set
p29
sg18
F123.55
sg19
Nsg21
Nsa(dp30
g13
I9780132166638
sg14
VHorne
p31
sg16
VPart of Set
p32
sg18
F146.65
sg19
Nsg21
NsasS'id'
p33
V379834
p34
sS'name'
p35
VE-01
p36
sasg33
V97931
p37
sg35
VACC207
p38
sa(dp39
g5
(lp40
(dp41
g8
VSTAFF
p42
sg10
(lp43
(dp44
g13
I9781256432364
sg14
VBraun*
p45
sg16
VRequired
p46
sg18
F130.4
sg19
Nsg21
Nsa(dp47
g13
I9781256366133
sg14
VBraun
p48
sg16
VPart of Set
p49
sg18
F124.8
sg19
Nsg21
Nsa(dp50
g13
I9780132920230
sg14
VPearson
p51
sg16
VPart of Set
p52
sg18
F117.65
sg19
Nsg21
Nsasg33
V379836
p53
sg35
VE-01
p54
sasg33
V97770
p55
sg35
VACC208
p56
sa(dp57
g5
(lp58
(dp59
g8
VMARTIN
p60
sg10
(lp61
(dp62
g13
I9780912503271
sg14
VArens
p63
sg16
VRequired
p64
sg18
F57.0
sg19
VPaperback
p65
sg21
V7
p66
sa(dp67
g13
I9780132552622
sg14
VRomney
p68
sg16
VRequired
p69
sg18
F218.75
sg19
VHardback
p70
sg21
V12
p71
sa(dp72
g13
I9781439079010
sg14
VShelly
p73
sg16
VRequired
p74
sg18
F128.35
sg19
Nsg21
Nsa(dp75
g13
I9780136068600
sg14
VMay (Db*)
p76
sg16
VOptional
p77
sg18
F24.0
sg19
VEbook
p78
sg21
g22
sa(dp79
g13
I9780132552639
sg14
VRomney (Db*)
p80
sg16
VOptional
p81
sg18
F93.0
sg19
VEbook
p82
sg21
V12
p83
sa(dp84
g13
I9781111548216
sg14
VShelly (Db*)
p85
sg16
VOptional
p86
sg18
F52.0
sg19
Nsg21
Nsasg33
V379838
p87
sg35
VE-01
p88
sasg33
V97772
p89
sg35
VACC304
p90
sa(dp91
g5
(lp92
(dp93
g8
VMARTIN
p94
sg10
(lp95
(dp96
g13
I9780072404296
sg14
VDunn
p97
sg16
VRequired
p98
sg18
F184.7
sg19
VHardback
p99
sg21
V3
p100
sa(dp101
g13
I9781439079027
sg14
VShelly
p102
sg16
VRequired
p103
sg18
F122.35
sg19
Nsg21
Nsa(dp104
g13
I9781111548643
sg14
VShelly (Db*)
p105
sg16
VOptional
p106
sg18
F52.0
sg19
Nsg21
Nsasg33
V379839
p107
sg35
VE-01
p108
sasg33
V97773
p109
sg35
VACC305
p110
sa(dp111
g5
(lp112
(dp113
g8
VAHADIAT
p114
sg10
(lp115
(dp116
g13
I9780132960649
sg14
VHorngren*
p117
sg16
VRequired
p118
sg18
F225.0
sg19
VKit/Set/Package
p119
sg21
V14
p120
sa(dp121
g13
I9780132109949
sg14
VHorngren (Db*)
p122
sg16
VOptional
p123
sg18
F93.0
sg19
VEbook
p124
sg21
V14
p125
sa(dp126
g13
I9780132109178
sg14
VHorngren
p127
sg16
VPart of Set
p128
sg18
F200.0
sg19
VHardback
p129
sg21
V14
p130
sa(dp131
g13
I9780132914451
sg14
VPearson
p132
sg16
VPart of Set
p133
sg18
F117.65
sg19
Nsg21
Nsasg33
V379840
p134
sg35
VE-01
p135
sasg33
V97774
p136
sg35
VACC307
p137
sa(dp138
g5
(lp139
(dp140
g8
VHEFZI
p141
sg10
(lp142
(dp143
g13
I9780077585402
sg14
VSpiceland*
p144
sg16
VRequired
p145
sg18
F145.35
sg19
VKit/Set/Package
p146
sg21
V6
p147
sa(dp148
g13
I9780077328962
sg14
VSpiceland (Db*)
p149
sg16
VOptional
p150
sg18
F137.25
sg19
VEbook
p151
sg21
g147
sa(dp152
g13
I9780077585389
sg14
VSpiceland
p153
sg16
VPart of Set
p154
sg18
F121.0
sg19
VHardback
p155
sg21
g147
sa(dp156
g13
I9780077585396
sg14
VSpiceland
p157
sg16
VPart of Set
p158
sg18
F99.55
sg19
Nsg21
Nsasg33
V367421
p159
sg35
V02
p160
sa(dp161
g8
VHEFZI
p162
sg10
(lp163
(dp164
g13
I9780077585402
sg14
VSpiceland*
p165
sg16
VRequired
p166
sg18
F145.35
sg19
VKit/Set/Package
p167
sg21
g147
sa(dp168
g13
I9780077328962
sg14
VSpiceland (Db*)
p169
sg16
VOptional
p170
sg18
F137.25
sg19
VEbook
p171
sg21
g147
sa(dp172
g13
I9780077585389
sg14
VSpiceland
p173
sg16
VPart of Set
p174
sg18
F121.0
sg19
VHardback
p175
sg21
g147
sa(dp176
g13
I9780077585396
sg14
VSpiceland
p177
sg16
VPart of Set
p178
sg18
F99.55
sg19
Nsg21
Nsasg33
V379841
p179
sg35
VE-01
p180
sasg33
V97775
p181
sg35
VACC311
p182
sa(dp183
g5
(lp184
(dp185
g8
VPAK
p186
sg10
(lp187
(dp188
g13
I9780077585402
sg14
VSpiceland*
p189
sg16
VRequired
p190
sg18
F145.35
sg19
VKit/Set/Package
p191
sg21
g147
sa(dp192
g13
I9780077328962
sg14
VSpiceland (Db*)
p193
sg16
VOptional
p194
sg18
F137.25
sg19
VEbook
p195
sg21
g147
sa(dp196
g13
I9780077585389
sg14
VSpiceland
p197
sg16
VPart of Set
p198
sg18
F121.0
sg19
VHardback
p199
sg21
g147
sa(dp200
g13
I9780077585396
sg14
VSpiceland
p201
sg16
VPart of Set
p202
sg18
F99.55
sg19
Nsg21
Nsasg33
V379842
p203
sg35
VE-01
p204
sa(dp205
g8
VHEFZI
p206
sg10
(lp207
(dp208
g13
I9780077585402
sg14
VSpiceland*
p209
sg16
VRequired
p210
sg18
F145.35
sg19
VKit/Set/Package
p211
sg21
g147
sa(dp212
g13
I9780077328962
sg14
VSpiceland (Db*)
p213
sg16
VOptional
p214
sg18
F137.25
sg19
VEbook
p215
sg21
g147
sa(dp216
g13
I9780077585389
sg14
VSpiceland
p217
sg16
VPart of Set
p218
sg18
F121.0
sg19
VHardback
p219
sg21
g147
sa(dp220
g13
I9780077585396
sg14
VSpiceland
p221
sg16
VPart of Set
p222
sg18
F99.55
sg19
Nsg21
Nsasg33
V379843
p223
sg35
VE-02
p224
sasg33
V97776
p225
sg35
VACC312
p226
sa(dp227
g5
(lp228
(dp229
g8
VPAK
p230
sg10
(lp231
(dp232
g13
I9780077585402
sg14
VSpiceland*
p233
sg16
VRequired
p234
sg18
F145.35
sg19
VKit/Set/Package
p235
sg21
g147
sa(dp236
g13
I9780077328962
sg14
VSpiceland (Db*)
p237
sg16
VOptional
p238
sg18
F137.25
sg19
VEbook
p239
sg21
g147
sa(dp240
g13
I9780077585389
sg14
VSpiceland
p241
sg16
VPart of Set
p242
sg18
F121.0
sg19
VHardback
p243
sg21
g147
sa(dp244
g13
I9780077585396
sg14
VSpiceland
p245
sg16
VPart of Set
p246
sg18
F99.55
sg19
Nsg21
Nsasg33
V379844
p247
sg35
VE-01
p248
sa(dp249
g8
VPAK
p250
sg10
(lp251
(dp252
g13
I9780077585402
sg14
VSpiceland*
p253
sg16
VRequired
p254
sg18
F145.35
sg19
VKit/Set/Package
p255
sg21
g147
sa(dp256
g13
I9780077328962
sg14
VSpiceland (Db*)
p257
sg16
VOptional
p258
sg18
F137.25
sg19
VEbook
p259
sg21
g147
sa(dp260
g13
I9780077585389
sg14
VSpiceland
p261
sg16
VPart of Set
p262
sg18
F121.0
sg19
VHardback
p263
sg21
g147
sa(dp264
g13
I9780077585396
sg14
VSpiceland
p265
sg16
VPart of Set
p266
sg18
F99.55
sg19
Nsg21
Nsasg33
V379845
p267
sg35
VE-02
p268
sasg33
V97777
p269
sg35
VACC313
p270
sa(dp271
g5
(lp272
(dp273
g8
VSALIMI
p274
sg10
(lp275
(dp276
g13
I9780138018818
sg14
VLaudon
p277
sg16
VRequired
p278
sg18
F181.25
sg19
Nsg21
Nsa(dp279
g13
I9780132146142
sg14
VLaudon (Db*)
p280
sg16
VOptional
p281
sg18
F78.0
sg19
VEbook
p282
sg21
g22
sasg33
V379846
p283
sg35
VE-01
p284
sa(dp285
g8
VSALIMI
p286
sg10
(lp287
(dp288
g13
I9780138018818
sg14
VLaudon
p289
sg16
VRequired
p290
sg18
F181.25
sg19
Nsg21
Nsa(dp291
g13
I9780132146142
sg14
VLaudon (Db*)
p292
sg16
VOptional
p293
sg18
F78.0
sg19
VEbook
p294
sg21
g22
sasg33
V379847
p295
sg35
VE-02
p296
sasg33
V97778
p297
sg35
VACC405
p298
sa(dp299
g5
(lp300
(dp301
g8
VAHADIAT
p302
sg10
(lp303
(dp304
g13
I9780132960649
sg14
VHorngren*
p305
sg16
VRequired
p306
sg18
F225.0
sg19
VKit/Set/Package
p307
sg21
V14
p308
sa(dp309
g13
I9780132109949
sg14
VHorngren (Db*)
p310
sg16
VOptional
p311
sg18
F93.0
sg19
VEbook
p312
sg21
V14
p313
sa(dp314
g13
I9780132109178
sg14
VHorngren
p315
sg16
VPart of Set
p316
sg18
F200.0
sg19
VHardback
p317
sg21
V14
p318
sa(dp319
g13
I9780132914451
sg14
VPearson
p320
sg16
VPart of Set
p321
sg18
F117.65
sg19
Nsg21
Nsasg33
V379848
p322
sg35
VE-01
p323
sasg33
V97779
p324
sg35
VACC412
p325
sa(dp326
g5
(lp327
(dp328
g8
VSALIMI
p329
sg10
(lp330
(dp331
g13
I9780137024971
sg14
VAtkinson
p332
sg16
VRequired
p333
sg18
F221.9
sg19
VHardback
p334
sg21
g147
sa(dp335
g13
I9780137024988
sg14
VAtkinson (Db*)
p336
sg16
VOptional
p337
sg18
F93.0
sg19
VEbook
p338
sg21
g147
sasg33
V379849
p339
sg35
VE-01
p340
sasg33
V97780
p341
sg35
VACC413
p342
sa(dp343
g5
(lp344
(dp345
g8
VSTAFF
p346
sg10
(lp347
(dp348
g13
I9781256430735
sg14
VBeasley*
p349
sg16
VRequired
p350
sg18
F168.65
sg19
Nsg21
Nsa(dp351
g13
I9780132556743
sg14
VBeasley (Db*)
p352
sg16
VOptional
p353
sg18
F24.0
sg19
VEbook
p354
sg21
V5
p355
sa(dp356
g13
I9781256349808
sg14
VArens
p357
sg16
VPart of Set
p358
sg18
F135.4
sg19
Nsg21
Nsa(dp359
g13
I9780132567237
sg14
VBeasley
p360
sg16
VPart of Set
p361
sg18
F60.0
sg19
VPaperback
p362
sg21
g355
sasg33
V379850
p363
sg35
VE-01
p364
sasg33
V97781
p365
sg35
VACC419
p366
sa(dp367
g5
(lp368
(dp369
g8
VSTAFF
p370
sg10
(lp371
(dp372
g13
I9781133160571
sg14
VHoffman*
p373
sg16
VRequired
p374
sg18
F281.25
sg19
Nsg21
Nsa(dp375
g13
I9781111546854
sg14
VHoffman (Db*)
p376
sg16
VOptional
p377
sg18
F126.5
sg19
Nsg21
Nsa(dp378
g13
I9781111221706
sg14
VHoffman
p379
sg16
VPart of Set
p380
sg18
F234.05
sg19
Nsg21
Nsa(dp381
g13
I9781133049197
sg14
VCengage
p382
sg16
VPart of Set
p383
sg18
F120.0
sg19
Nsg21
Nsasg33
V379851
p384
sg35
VE-01
p385
sasg33
V97782
p386
sg35
VACC431
p387
sa(dp388
g5
(lp389
(dp390
g8
VAHADIAT
p391
sg10
(lp392
sg33
V379835
p393
sg35
VE-01
p394
sasg33
V97769
p395
sg35
VACC207A
p396
sa(dp397
g5
(lp398
(dp399
g8
VAHADIAT
p400
sg10
(lp401
sg33
V379837
p402
sg35
VE-01
p403
sasg33
V97771
p404
sg35
VACC208A
p405
sasS'abrev'
p406
VACC
p407
sg33
V4815
p408
sg35
VACCOUNTING
p409
sa(dp410
g2
(lp411
(dp412
g5
(lp413
(dp414
g8
VPHILLIPS
p415
sg10
(lp416
sg33
V367432
p417
sg35
VE-21
p418
sasg33
V97783
p419
sg35
VAG101
p420
sa(dp421
g5
(lp422
(dp423
g8
VMATHIAS
p424
sg10
(lp425
(dp426
g13
I9780195306200
sg14
VWeston
p427
sg16
VRequired
p428
sg18
F19.95
sg19
Nsg21
Nsa(dp429
g13
I9781405111546
sg14
VDriver
p430
sg16
VRequired
p431
sg18
F29.95
sg19
Nsg21
Nsasg33
V367433
p432
sg35
VE-01
p433
sa(dp434
g8
VMERLINO
p435
sg10
(lp436
(dp437
g13
I9780195306200
sg14
VWeston
p438
sg16
VRequired
p439
sg18
F19.95
sg19
Nsg21
Nsa(dp440
g13
I9781405111546
sg14
VDriver
p441
sg16
VRequired
p442
sg18
F29.95
sg19
Nsg21
Nsa(dp443
g13
I9780923568962
sg14
VHoughton
p444
sg16
VRequired
p445
sg18
F10.95
sg19
VPaperback
p446
sg21
V2
p447
sasg33
V367434
p448
sg35
VE-11
p449
sa(dp450
g8
VMERLINO
p451
sg10
(lp452
(dp453
g13
I9780195306200
sg14
VWeston
p454
sg16
VRequired
p455
sg18
F19.95
sg19
Nsg21
Nsa(dp456
g13
I9781405111546
sg14
VDriver
p457
sg16
VRequired
p458
sg18
F29.95
sg19
Nsg21
Nsa(dp459
g13
I9780923568962
sg14
VHoughton
p460
sg16
VRequired
p461
sg18
F10.95
sg19
VPaperback
p462
sg21
g447
sasg33
V367435
p463
sg35
VE-12
p464
sa(dp465
g8
VPHILLIPS
p466
sg10
(lp467
(dp468
g13
I9780073386713
sg14
VRachels
p469
sg16
VRequired
p470
sg18
F55.0
sg19
VPaperback
p471
sg21
g147
sa(dp472
g13
I9780787985387
sg14
VUkens
p473
sg16
VRequired
p474
sg18
F15.0
sg19
Nsg21
Nsa(dp475
g13
I9780077318499
sg14
VRachels (Db*)
p476
sg16
VOptional
p477
sg18
F29.0
sg19
VEbook
p478
sg21
g147
sasg33
V367436
p479
sg35
VE-22
p480
sasg33
V97784
p481
sg35
VAG401
p482
sasg406
VAG
p483
sg33
V4748
p484
sg35
VAGRICULTURAL SCIENCE
p485
sa(dp486
g2
(lp487
(dp488
g5
(lp489
(dp490
g8
VTUCKER
p491
sg10
(lp492
sg33
V367437
p493
sg35
VE-01
p494
sasg33
V97785
p495
sg35
VAMM101
p496
sa(dp497
g5
(lp498
(dp499
g8
VTUCKER
p500
sg10
(lp501
sg33
V379881
p502
sg35
VE-01
p503
sasg33
V99381
p504
sg35
VAMM108
p505
sa(dp506
g5
(lp507
(dp508
g8
VDabas
p509
sg10
(lp510
sg33
V367439
p511
sg35
VE-01
p512
sasg33
V97787
p513
sg35
VAMM250
p514
sa(dp515
g5
(lp516
(dp517
g8
VPARISE
p518
sg10
(lp519
(dp520
g13
I9781609011536
sg14
VBell
p521
sg16
VRequired
p522
sg18
F88.5
sg19
VPaperback
p523
sg21
V4
p524
sasg33
V367440
p525
sg35
VE-01
p526
sasg33
V97788
p527
sg35
VAMM270
p528
sa(dp529
g5
(lp530
(dp531
g8
VTUCKER
p532
sg10
(lp533
sg33
V367442
p534
sg35
VE-01
p535
sasg33
V97790
p536
sg35
VAMM357
p537
sa(dp538
g5
(lp539
(dp540
g8
VTUCKER
p541
sg10
(lp542
sg33
V367443
p543
sg35
VE-01
p544
sasg33
V97791
p545
sg35
VAMM380
p546
sa(dp547
g5
(lp548
(dp549
g8
VTUCKER
p550
sg10
(lp551
sg33
V367445
p552
sg35
VE-01
p553
sasg33
V97793
p554
sg35
VAMM496
p555
sa(dp556
g5
(lp557
(dp558
g8
VPARISE
p559
sg10
(lp560
sg33
V367438
p561
sg35
VE-01
p562
sasg33
V97786
p563
sg35
VAMM112L
p564
sa(dp565
g5
(lp566
(dp567
g8
VPARISE
p568
sg10
(lp569
sg33
V367441
p570
sg35
VE-01
p571
sasg33
V97789
p572
sg35
VAMM270A
p573
sa(dp574
g5
(lp575
(dp576
g8
VTUCKER
p577
sg10
(lp578
sg33
V367444
p579
sg35
VE-01
p580
sasg33
V97792
p581
sg35
VAMM380L
p582
sa(dp583
g5
(lp584
(dp585
g8
VTUCKER
p586
sg10
(lp587
sg33
V367446
p588
sg35
VE-01
p589
sasg33
V97794
p590
sg35
VAMM497A
p591
sasg406
VAMM
p592
sg33
V4807
p593
sg35
VAPPAREL MERCH & MGMT
p594
sa(dp595
g2
(lp596
(dp597
g5
(lp598
(dp599
g8
VRACHELE
p600
sg10
(lp601
(dp602
g13
I9781111830007
sg14
VAndreatta
p603
sg16
VRequired
p604
sg18
F72.65
sg19
Nsg21
Nsa(dp605
g13
I9780078051012
sg14
VAnnual Edition
p606
sg16
VRequired
p607
sg18
F44.0
sg19
VPaperback
p608
sg21
V35
p609
sa(dp610
g13
I9780077477769
sg14
VAngeloni (Db*)
p611
sg16
VOptional
p612
sg18
F31.0
sg19
VEbook
p613
sg21
g355
sa(dp614
g13
I9781133470953
sg14
VAndreatta (Db*)
p615
sg16
VOptional
p616
sg18
F37.0
sg19
Nsg21
Nsasg33
V367447
p617
sg35
VE-01
p618
sasg33
V97795
p619
sg35
VANT102
p620
sa(dp621
g5
(lp622
(dp623
g8
VGRAY
p624
sg10
(lp625
(dp626
g13
I9780073530932
sg14
VPodolefsky
p627
sg16
VRequired
p628
sg18
F61.05
sg19
VPaperback
p629
sg21
g22
sasg33
V379852
p630
sg35
VE-01
p631
sasg33
V99366
p632
sg35
VANT201
p633
sa(dp634
g5
(lp635
(dp636
g8
VRACHELE
p637
sg10
(lp638
(dp639
g13
I9780813343679
sg14
VMoran
p640
sg16
VRequired
p641
sg18
F45.0
sg19
VPaperback
p642
sg21
g100
sasg33
V367448
p643
sg35
VE-01
p644
sasg33
V97796
p645
sg35
VANT350
p646
sa(dp647
g5
(lp648
(dp649
g8
VRACHELE
p650
sg10
(lp651
(dp652
g13
I9780078140013
sg14
VMoro
p653
sg16
VRequired
p654
sg18
F67.2
sg19
VPaperback
p655
sg21
g22
sasg33
V367449
p656
sg35
VE-01
p657
sasg33
V97797
p658
sg35
VANT360
p659
sasg406
VANT
p660
sg33
V4754
p661
sg35
VANTHROPOLOGY
p662
sa(dp663
g2
(lp664
(dp665
g5
(lp666
(dp667
g8
VSTAFF
p668
sg10
(lp669
sg33
V367450
p670
sg35
VE-01
p671
sa(dp672
g8
VSTAFF
p673
sg10
(lp674
sg33
V367451
p675
sg35
VE-02
p676
sasg33
V97932
p677
sg35
VARC401
p678
sa(dp679
g5
(lp680
(dp681
g8
VRAMIREZ
p682
sg10
(lp683
sg33
V367454
p684
sg35
VE-01
p685
sa(dp686
g8
VSTAFF
p687
sg10
(lp688
sg33
V367455
p689
sg35
VE-02
p690
sasg33
V97799
p691
sg35
VARC402
p692
sa(dp693
g5
(lp694
(dp695
g8
VRAMIREZ
p696
sg10
(lp697
sg33
V367458
p698
sg35
VE-01
p699
sa(dp700
g8
VSTAFF
p701
sg10
(lp702
sg33
V367459
p703
sg35
VE-02
p704
sasg33
V97933
p705
sg35
VARC405
p706
sa(dp707
g5
(lp708
(dp709
g8
VSTAFF
p710
sg10
(lp711
sg33
V367462
p712
sg35
VE-01
p713
sa(dp714
g8
VSHEINE
p715
sg10
(lp716
sg33
V367463
p717
sg35
VE-02
p718
sasg33
V97801
p719
sg35
VARC406
p720
sa(dp721
g5
(lp722
(dp723
g8
VSTAFF
p724
sg10
(lp725
sg33
V367466
p726
sg35
VE-01
p727
sa(dp728
g8
VRAMIREZ
p729
sg10
(lp730
sg33
V367467
p731
sg35
VE-02
p732
sa(dp733
g8
VAMOURGIS
p734
sg10
(lp735
sg33
V367468
p736
sg35
VE-03
p737
sa(dp738
g8
VAMOURGIS
p739
sg10
(lp740
sg33
V367469
p741
sg35
VE-04
p742
sasg33
V97803
p743
sg35
VARC499
p744
sa(dp745
g5
(lp746
(dp747
g8
VSHEINE
p748
sg10
(lp749
sg33
V367470
p750
sg35
VE-01
p751
sasg33
V97935
p752
sg35
VARC601
p753
sa(dp754
g5
(lp755
(dp756
g8
VSHEINE
p757
sg10
(lp758
sg33
V367472
p759
sg35
VE-01
p760
sa(dp761
g8
VRAMIREZ
p762
sg10
(lp763
sg33
V380336
p764
sg35
VE-02
p765
sasg33
V97804
p766
sg35
VARC602
p767
sa(dp768
g5
(lp769
(dp770
g8
VRAMIREZ
p771
sg10
(lp772
sg33
V367452
p773
sg35
VE-01
p774
sa(dp775
g8
VSTAFF
p776
sg10
(lp777
sg33
V367453
p778
sg35
VE-02
p779
sasg33
V97798
p780
sg35
VARC401L
p781
sa(dp782
g5
(lp783
(dp784
g8
VRAMIREZ
p785
sg10
(lp786
sg33
V367456
p787
sg35
VE-01
p788
sa(dp789
g8
VSTAFF
p790
sg10
(lp791
sg33
V367457
p792
sg35
VE-02
p793
sasg33
V97800
p794
sg35
VARC402L
p795
sa(dp796
g5
(lp797
(dp798
g8
VRAMIREZ
p799
sg10
(lp800
sg33
V367460
p801
sg35
VE-01
p802
sa(dp803
g8
VSTAFF
p804
sg10
(lp805
sg33
V367461
p806
sg35
VE-02
p807
sasg33
V97934
p808
sg35
VARC405L
p809
sa(dp810
g5
(lp811
(dp812
g8
VRAMIREZ
p813
sg10
(lp814
sg33
V367464
p815
sg35
VE-01
p816
sa(dp817
g8
VSHEINE
p818
sg10
(lp819
sg33
V367465
p820
sg35
VE-02
p821
sasg33
V97802
p822
sg35
VARC406L
p823
sa(dp824
g5
(lp825
(dp826
g8
VSHEINE
p827
sg10
(lp828
sg33
V367471
p829
sg35
VE-01
p830
sasg33
V97936
p831
sg35
VARC601L
p832
sa(dp833
g5
(lp834
(dp835
g8
VSHEINE
p836
sg10
(lp837
sg33
V367473
p838
sg35
VE-01
p839
sa(dp840
g8
VRAMIREZ
p841
sg10
(lp842
sg33
V380337
p843
sg35
VE-02
p844
sasg33
V97805
p845
sg35
VARC602L
p846
sasg406
VARC
p847
sg33
V4755
p848
sg35
VARCHITECTURE
p849
sa(dp850
g2
(lp851
(dp852
g5
(lp853
(dp854
g8
VBHANDARI
p855
sg10
(lp856
(dp857
g13
I9780131866140
sg14
VPhillips
p858
sg16
VRequired
p859
sg18
F171.55
sg19
VHardback
p860
sg21
g355
sa(dp861
g13
I9780131393028
sg14
VPhillips (Db*)
p862
sg16
VOptional
p863
sg18
F73.0
sg19
VEbook
p864
sg21
g355
sasg33
V379811
p865
sg35
V01
p866
sasg33
V99351
p867
sg35
VARO499
p868
sasg406
VARO
p869
sg33
V4756
p870
sg35
VAEROSPACE ENGR
p871
sa(dp872
g2
(lp873
(dp874
g5
(lp875
(dp876
g8
VSTAFF
p877
sg10
(lp878
sg33
V367474
p879
sg35
VE-01
p880
sasg33
V97806
p881
sg35
VAVS101
p882
sa(dp883
g5
(lp884
(dp885
g8
VFONDA
p886
sg10
(lp887
(dp888
g13
I9780132624053
sg14
VDamron (Db*)
p889
sg16
VOptional
p890
sg18
F56.0
sg19
VEbook
p891
sg21
g355
sa(dp892
g13
I9780132623896
sg14
VDamron
p893
sg16
VOptional
p894
sg18
F130.5
sg19
VHardback
p895
sg21
g355
sasg33
V367475
p896
sg35
VE-01
p897
sasg33
V97807
p898
sg35
VAVS112
p899
sa(dp900
g5
(lp901
(dp902
g8
VREICHARDT
p903
sg10
(lp904
sg33
V367476
p905
sg35
VE-01
p906
sasg33
V97937
p907
sg35
VAVS201
p908
sa(dp909
g5
(lp910
(dp911
g8
VHaag
p912
sg10
(lp913
(dp914
g13
I9780073380902
sg14
VHart
p915
sg16
VRequired
p916
sg18
F132.7
sg19
VPaperback
p917
sg21
V14
p918
sa(dp919
g13
I9780077325886
sg14
VHart (Db*)
p920
sg16
VOptional
p921
sg18
F69.75
sg19
VEbook
p922
sg21
g524
sasg33
V367477
p923
sg35
VE-01
p924
sasg33
V97808
p925
sg35
VAVS211
p926
sa(dp927
g5
(lp928
(dp929
g8
VNout
p930
sg10
(lp931
(dp932
g13
I9780131125865
sg14
VCheeke
p933
sg16
VRequired
p934
sg18
F80.8
sg19
VPaperback
p935
sg21
g100
sasg33
V367478
p936
sg35
VE-01
p937
sasg33
V97809
p938
sg35
VAVS311
p939
sa(dp940
g5
(lp941
(dp942
g8
VPettey
p943
sg10
(lp944
sg33
V367479
p945
sg35
VE-01
p946
sasg33
V97810
p947
sg35
VAVS402
p948
sa(dp949
g5
(lp950
(dp951
g8
VSANDELIN
p952
sg10
(lp953
sg33
V367480
p954
sg35
VE-01
p955
sasg33
V97938
p956
sg35
VAVS404
p957
sa(dp958
g5
(lp959
(dp960
g8
VSANDELIN
p961
sg10
(lp962
sg33
V367481
p963
sg35
VE-01
p964
sasg33
V97939
p965
sg35
VAVS404A
p966
sa(dp967
g5
(lp968
(dp969
g8
V,
p970
sg10
(lp971
sg33
V380163
p972
sg35
V01
p973
sa(dp974
g8
g970
sg10
(lp975
sg33
V380164
p976
sg35
V02
p977
sa(dp978
g8
VRASH
p979
sg10
(lp980
sg33
V380186
p981
sg35
VE-01
p982
sa(dp983
g8
VRASH
p984
sg10
(lp985
sg33
V380187
p986
sg35
VE-02
p987
sasg33
V100635
p988
sg35
VAVS499A
p989
sasg406
VAVS
p990
sg33
V4758
p991
sg35
VANIMAL & VET SCIENCE
p992
sa(dp993
g2
(lp994
(dp995
g5
(lp996
(dp997
g8
VCLARK
p998
sg10
(lp999
(dp1000
g13
I9780321649546
sg14
VSimon
p1001
sg16
VRequired
p1002
sg18
F140.15
sg19
VPaperback
p1003
sg21
g100
sasg33
V367482
p1004
sg35
VE-01
p1005
sasg33
V97811
p1006
sg35
VBIO110
p1007
sa(dp1008
g5
(lp1009
(dp1010
g8
VHERRERA
p1011
sg10
(lp1012
(dp1013
g13
I9781429219624
sg14
VSadava
p1014
sg16
VRequired
p1015
sg18
F180.65
sg19
VHardback
p1016
sg21
V9
p1017
sa(dp1018
g13
I9781429254205
sg14
VSadava (Db*)
p1019
sg16
VOptional
p1020
sg18
F103.0
sg19
VEbook
p1021
sg21
g1017
sasg33
V367487
p1022
sg35
VE-01
p1023
sasg33
V97813
p1024
sg35
VBIO115
p1025
sa(dp1026
g5
(lp1027
(dp1028
g8
VKING
p1029
sg10
(lp1030
(dp1031
g13
I9780131008465
sg14
VZar
p1032
sg16
VRequired
p1033
sg18
F135.3
sg19
VHardback
p1034
sg21
g355
sa(dp1035
g13
I9780135024713
sg14
VZar (Db*)
p1036
sg16
VOptional
p1037
sg18
F61.0
sg19
VEbook
p1038
sg21
g355
sasg33
V367496
p1039
sg35
VE-01
p1040
sasg33
V97816
p1041
sg35
VBIO211
p1042
sa(dp1043
g5
(lp1044
(dp1045
g8
VKIDD
p1046
sg10
(lp1047
(dp1048
g13
I9780878935703
sg14
VLevay
p1049
sg16
VRequired
p1050
sg18
F115.95
sg19
VHardback
p1051
sg21
g524
sa(dp1052
g13
I9780878936311
sg14
VLevay (Db*)
p1053
sg16
VOptional
p1054
sg18
F55.95
sg19
VEbook
p1055
sg21
g524
sasg33
V367502
p1056
sg35
VE-01
p1057
sasg33
V97818
p1058
sg35
VBIO301
p1059
sa(dp1060
g5
(lp1061
(dp1062
g8
VDIXON
p1063
sg10
(lp1064
(dp1065
g13
I9780077474904
sg14
VBrooker*
p1066
sg16
VRequired
p1067
sg18
F196.9
sg19
VCloth
p1068
sg21
g524
sasg33
V367503
p1069
sg35
VE-01
p1070
sasg33
V97819
p1071
sg35
VBIO303
p1072
sa(dp1073
g5
(lp1074
(dp1075
g8
VALAS
p1076
sg10
(lp1077
sg33
V367504
p1078
sg35
VE-01
p1079
sasg33
V97820
p1080
sg35
VBIO310
p1081
sa(dp1082
g5
(lp1083
(dp1084
g8
VSTAFF
p1085
sg10
(lp1086
(dp1087
g13
I9780738022048
sg14
VHartney
p1088
sg16
VRequired
p1089
sg18
F17.5
sg19
VPaperback
p1090
sg21
g447
sasg33
V367483
p1091
sg35
VE-01
p1092
sa(dp1093
g8
VSTAFF
p1094
sg10
(lp1095
(dp1096
g13
I9780738022048
sg14
VHartney
p1097
sg16
VRequired
p1098
sg18
F17.5
sg19
VPaperback
p1099
sg21
g447
sasg33
V367484
p1100
sg35
VE-02
p1101
sa(dp1102
g8
VSTAFF
p1103
sg10
(lp1104
(dp1105
g13
I9780738022048
sg14
VHartney
p1106
sg16
VRequired
p1107
sg18
F17.5
sg19
VPaperback
p1108
sg21
g447
sasg33
V367485
p1109
sg35
VE-03
p1110
sa(dp1111
g8
VSTAFF
p1112
sg10
(lp1113
(dp1114
g13
I9780738022048
sg14
VHartney
p1115
sg16
VRequired
p1116
sg18
F17.5
sg19
VPaperback
p1117
sg21
g447
sasg33
V367486
p1118
sg35
VE-04
p1119
sasg33
V97812
p1120
sg35
VBIO111L
p1121
sa(dp1122
g5
(lp1123
(dp1124
g8
VSTAFF
p1125
sg10
(lp1126
sg33
V367488
p1127
sg35
VE-01
p1128
sa(dp1129
g8
VSTAFF,
p1130
sg10
(lp1131
sg33
V367489
p1132
sg35
VE-02
p1133
sa(dp1134
g8
VSTAFF
p1135
sg10
(lp1136
sg33
V367490
p1137
sg35
VE-03
p1138
sa(dp1139
g8
VSTAFF
p1140
sg10
(lp1141
sg33
V367491
p1142
sg35
VE-04
p1143
sasg33
V97814
p1144
sg35
VBIO115A
p1145
sa(dp1146
g5
(lp1147
(dp1148
g8
VSTAFF
p1149
sg10
(lp1150
sg33
V367492
p1151
sg35
VE-01
p1152
sa(dp1153
g8
VSTAFF
p1154
sg10
(lp1155
sg33
V367493
p1156
sg35
VE-02
p1157
sa(dp1158
g8
VSTAFF
p1159
sg10
(lp1160
sg33
V367494
p1161
sg35
VE-03
p1162
sa(dp1163
g8
VSTAFF
p1164
sg10
(lp1165
sg33
V367495
p1166
sg35
VE-04
p1167
sasg33
V97815
p1168
sg35
VBIO115L
p1169
sa(dp1170
g5
(lp1171
(dp1172
g8
VSTAFF
p1173
sg10
(lp1174
sg33
V367497
p1175
sg35
VE-01
p1176
sa(dp1177
g8
VSTAFF
p1178
sg10
(lp1179
sg33
V367498
p1180
sg35
VE-02
p1181
sa(dp1182
g8
VSTAFF
p1183
sg10
(lp1184
sg33
V367499
p1185
sg35
VE-03
p1186
sa(dp1187
g8
VSTAFF,
p1188
sg10
(lp1189
sg33
V367500
p1190
sg35
VE-04
p1191
sasg33
V97817
p1192
sg35
VBIO211L
p1193
sa(dp1194
g5
(lp1195
(dp1196
g8
VQuestad
p1197
sg10
(lp1198
sg33
V367501
p1199
sg35
VE-01
p1200
sasg33
V97940
p1201
sg35
VBIO299A
p1202
sa(dp1203
g5
(lp1204
(dp1205
g8
VSTAFF
p1206
sg10
(lp1207
sg33
V367505
p1208
sg35
VE-01
p1209
sasg33
V97821
p1210
sg35
VBIO488S
p1211
sasg406
VBIO
p1212
sg33
V4760
p1213
sg35
VBIOLOGY
p1214
sa(dp1215
g2
(lp1216
(dp1217
g5
(lp1218
(dp1219
g8
VNG
p1220
sg10
(lp1221
(dp1222
g13
I9780132554343
sg14
VGhilani
p1223
sg16
VRequired
p1224
sg18
F173.45
sg19
VHardback
p1225
sg21
V13
p1226
sa(dp1227
g13
I9780132555104
sg14
VGhilani (Db*)
p1228
sg16
VOptional
p1229
sg18
F74.0
sg19
VEbook
p1230
sg21
V13
p1231
sasg33
V367510
p1232
sg35
VE-01
p1233
sasg33
V97824
p1234
sg35
VCE220
p1235
sa(dp1236
g5
(lp1237
(dp1238
g8
VYe
p1239
sg10
(lp1240
(dp1241
g13
I9780471173960
sg14
VWright
p1242
sg16
VRequired
p1243
sg18
F171.75
sg19
VCloth
p1244
sg21
g524
sasg33
V367513
p1245
sg35
VE-01
p1246
sa(dp1247
g8
VYe,
p1248
sg10
(lp1249
(dp1250
g13
I9780471173960
sg14
VWright
p1251
sg16
VRequired
p1252
sg18
F171.75
sg19
VCloth
p1253
sg21
g524
sasg33
V367514
p1254
sg35
VE-02
p1255
sa(dp1256
g8
VWU
p1257
sg10
(lp1258
(dp1259
g13
I9780471173960
sg14
VWright
p1260
sg16
VRequired
p1261
sg18
F171.75
sg19
VCloth
p1262
sg21
g524
sasg33
V367515
p1263
sg35
VE-03
p1264
sasg33
V97826
p1265
sg35
VCE223
p1266
sa(dp1267
g5
(lp1268
(dp1269
g8
VCHIANG
p1270
sg10
(lp1271
(dp1272
g13
I9780073376301
sg14
VBlank
p1273
sg16
VRequired
p1274
sg18
F171.25
sg19
VHardback
p1275
sg21
g66
sa(dp1276
g13
I9780077352967
sg14
VBlank (Db*)
p1277
sg16
VOptional
p1278
sg18
F96.0
sg19
VEbook
p1279
sg21
g66
sasg33
V367519
p1280
sg35
VE-01
p1281
sasg33
V97828
p1282
sg35
VCE301
p1283
sa(dp1284
g5
(lp1285
(dp1286
g8
VPEREZ
p1287
sg10
(lp1288
(dp1289
g13
I9780073401096
sg14
VLeet
p1290
sg16
VRequired
p1291
sg18
F175.65
sg19
VHardback
p1292
sg21
g524
sa(dp1293
g13
I9780077305987
sg14
VLeet (Db*)
p1294
sg16
VOptional
p1295
sg18
F98.5
sg19
VEbook
p1296
sg21
g524
sasg33
V367520
p1297
sg35
VE-01
p1298
sa(dp1299
g8
VPEREZ
p1300
sg10
(lp1301
(dp1302
g13
I9780073401096
sg14
VLeet
p1303
sg16
VRequired
p1304
sg18
F175.65
sg19
VHardback
p1305
sg21
g524
sa(dp1306
g13
I9780077305987
sg14
VLeet (Db*)
p1307
sg16
VOptional
p1308
sg18
F98.5
sg19
VEbook
p1309
sg21
g524
sasg33
V367521
p1310
sg35
VE-02
p1311
sa(dp1312
g8
VWANG
p1313
sg10
(lp1314
(dp1315
g13
I9780073401096
sg14
VLeet
p1316
sg16
VRequired
p1317
sg18
F175.65
sg19
VHardback
p1318
sg21
g524
sa(dp1319
g13
I9780077305987
sg14
VLeet (Db*)
p1320
sg16
VOptional
p1321
sg18
F98.5
sg19
VEbook
p1322
sg21
g524
sasg33
V367522
p1323
sg35
VE-03
p1324
sasg33
V97829
p1325
sg35
VCE305
p1326
sa(dp1327
g5
(lp1328
(dp1329
g8
VANDREI
p1330
sg10
(lp1331
(dp1332
g13
I9780132368681
sg14
VCoduto
p1333
sg16
VRequired
p1334
sg18
F179.05
sg19
VHardback
p1335
sg21
g447
sa(dp1336
g13
I9780136081418
sg14
VCoduto (Db*)
p1337
sg16
VOptional
p1338
sg18
F76.0
sg19
VEbook
p1339
sg21
g447
sasg33
V367523
p1340
sg35
VE-01
p1341
sa(dp1342
g8
VANDREI
p1343
sg10
(lp1344
(dp1345
g13
I9780132368681
sg14
VCoduto
p1346
sg16
VRequired
p1347
sg18
F179.05
sg19
VHardback
p1348
sg21
g447
sa(dp1349
g13
I9780136081418
sg14
VCoduto (Db*)
p1350
sg16
VOptional
p1351
sg18
F76.0
sg19
VEbook
p1352
sg21
g447
sasg33
V367524
p1353
sg35
VE-02
p1354
sasg33
V97830
p1355
sg35
VCE325
p1356
sa(dp1357
g5
(lp1358
(dp1359
g8
VLamb
p1360
sg10
(lp1361
(dp1362
g13
I9780534494834
sg14
VCruise
p1363
sg16
VRequired
p1364
sg18
F172.5
sg19
Nsg21
Nsasg33
V367527
p1365
sg35
VE-01
p1366
sa(dp1367
g8
VPalomo Martinez
p1368
sg10
(lp1369
(dp1370
g13
I9780534494834
sg14
VCruise
p1371
sg16
VRequired
p1372
sg18
F172.5
sg19
Nsg21
Nsasg33
V367528
p1373
sg35
VE-02
p1374
sa(dp1375
g8
VMartinez, Palomo
p1376
sg10
(lp1377
(dp1378
g13
I9780534494834
sg14
VCruise
p1379
sg16
VRequired
p1380
sg18
F172.5
sg19
Nsg21
Nsasg33
V367529
p1381
sg35
VE-03
p1382
sasg33
V97832
p1383
sg35
VCE332
p1384
sa(dp1385
g5
(lp1386
(dp1387
g8
VBERK
p1388
sg10
(lp1389
sg33
V367536
p1390
sg35
VE-01
p1391
sasg33
V97834
p1392
sg35
VCE362
p1393
sa(dp1394
g5
(lp1395
(dp1396
g8
VWANG
p1397
sg10
(lp1398
(dp1399
g13
I9781111576004
sg14
VSegui
p1400
sg16
VRequired
p1401
sg18
F209.7
sg19
VHardback
p1402
sg21
g355
sa(dp1403
g13
I9781133348184
sg14
VSegui (Db*)
p1404
sg16
VOptional
p1405
sg18
F113.5
sg19
Nsg21
Nsasg33
V367538
p1406
sg35
VE-01
p1407
sasg33
V97836
p1408
sg35
VCE406
p1409
sa(dp1410
g5
(lp1411
(dp1412
g8
VWANG
p1413
sg10
(lp1414
(dp1415
g13
I9780470279274
sg14
VMccormac
p1416
sg16
VRequired
p1417
sg18
F190.0
sg19
VHardback
p1418
sg21
g22
sa(dp1419
g13
I9780870312649
sg14
VAmer Concrete
p1420
sg16
VRequired
p1421
sg18
F80.0
sg19
Nsg21
Nsa(dp1422
g13
I9780470416204
sg14
VMccormac (Db*)
p1423
sg16
VOptional
p1424
sg18
F105.5
sg19
VEbook
p1425
sg21
g22
sasg33
V367539
p1426
sg35
VE-01
p1427
sasg33
V97837
p1428
sg35
VCE421
p1429
sa(dp1430
g5
(lp1431
(dp1432
g8
VWU
p1433
sg10
(lp1434
sg33
V379882
p1435
sg35
VE-01
p1436
sasg33
V99382
p1437
sg35
VCE429
p1438
sa(dp1439
g5
(lp1440
(dp1441
g8
VYadegari
p1442
sg10
(lp1443
(dp1444
g13
I9780071455398
sg14
VBreyer
p1445
sg16
VRequired
p1446
sg18
F99.95
sg19
VHardback
p1447
sg21
g147
sa(dp1448
g13
I9780784410851
sg14
VAmer Soc Civil
p1449
sg16
VRequired
p1450
sg18
F165.0
sg19
Nsg21
Nsasg33
V379884
p1451
sg35
VE-01
p1452
sasg33
V99384
p1453
sg35
VCE433
p1454
sa(dp1455
g5
(lp1456
(dp1457
g8
VLamb
p1458
sg10
(lp1459
(dp1460
g13
I9780131424241
sg14
VMccuen
p1461
sg16
VRequired
p1462
sg18
F139.7
sg19
VPaperback
p1463
sg21
g100
sasg33
V379886
p1464
sg35
VE-01
p1465
sasg33
V99386
p1466
sg35
VCE451
p1467
sa(dp1468
g5
(lp1469
(dp1470
g8
VANDREI
p1471
sg10
(lp1472
sg33
V367542
p1473
sg35
VE-01
p1474
sa(dp1475
g8
VCHENG
p1476
sg10
(lp1477
sg33
V367543
p1478
sg35
VE-02
p1479
sa(dp1480
g8
VJIA
p1481
sg10
(lp1482
sg33
V367544
p1483
sg35
VE-03
p1484
sa(dp1485
g8
VHERNANDEZ
p1486
sg10
(lp1487
sg33
V367545
p1488
sg35
VE-04
p1489
sa(dp1490
g8
VYadegari
p1491
sg10
(lp1492
sg33
V367546
p1493
sg35
VE-05
p1494
sa(dp1495
g8
VMARCIUSKA
p1496
sg10
(lp1497
sg33
V367547
p1498
sg35
VE-06
p1499
sa(dp1500
g8
VLamb
p1501
sg10
(lp1502
sg33
V367548
p1503
sg35
VE-07
p1504
sa(dp1505
g8
VLamb
p1506
sg10
(lp1507
sg33
V380188
p1508
sg35
VE-08
p1509
sa(dp1510
g8
VCHENG
p1511
sg10
(lp1512
sg33
V380189
p1513
sg35
VE-09
p1514
sasg33
V97839
p1515
sg35
VCE492
p1516
sa(dp1517
g5
(lp1518
(dp1519
g8
VJIA,
p1520
sg10
(lp1521
sg33
V367549
p1522
sg35
VE-01
p1523
sa(dp1524
g8
VYEUNG,
p1525
sg10
(lp1526
sg33
V379887
p1527
sg35
VE-02
p1528
sasg33
V97840
p1529
sg35
VCE499
p1530
sa(dp1531
g5
(lp1532
(dp1533
g8
VNG
p1534
sg10
(lp1535
sg33
V367511
p1536
sg35
VE-01
p1537
sasg33
V97825
p1538
sg35
VCE220L
p1539
sa(dp1540
g5
(lp1541
(dp1542
g8
VYe
p1543
sg10
(lp1544
sg33
V367516
p1545
sg35
VE-01
p1546
sa(dp1547
g8
VYe,
p1548
sg10
(lp1549
sg33
V367517
p1550
sg35
VE-02
p1551
sa(dp1552
g8
VWU
p1553
sg10
(lp1554
sg33
V367518
p1555
sg35
VE-03
p1556
sasg33
V97827
p1557
sg35
VCE223L
p1558
sa(dp1559
g5
(lp1560
(dp1561
g8
VANDREI
p1562
sg10
(lp1563
(dp1564
g13
I9780757595332
sg14
VKitch
p1565
sg16
VRequired
p1566
sg18
F44.0
sg19
Nsg21
Nsasg33
V367525
p1567
sg35
VE-01
p1568
sa(dp1569
g8
VANDREI
p1570
sg10
(lp1571
(dp1572
g13
I9780757595332
sg14
VKitch
p1573
sg16
VRequired
p1574
sg18
F44.0
sg19
Nsg21
Nsasg33
V367526
p1575
sg35
VE-02
p1576
sasg33
V97831
p1577
sg35
VCE327L
p1578
sa(dp1579
g5
(lp1580
(dp1581
g8
VLamb
p1582
sg10
(lp1583
sg33
V367530
p1584
sg35
VE-01
p1585
sa(dp1586
g8
VLamb
p1587
sg10
(lp1588
sg33
V367531
p1589
sg35
VE-02
p1590
sa(dp1591
g8
VMartinez, Palomo
p1592
sg10
(lp1593
sg33
V367532
p1594
sg35
VE-03
p1595
sa(dp1596
g8
VPalomo Martinez
p1597
sg10
(lp1598
sg33
V367533
p1599
sg35
VE-04
p1600
sa(dp1601
g8
VMartinez, Palomo
p1602
sg10
(lp1603
sg33
V367534
p1604
sg35
VE-05
p1605
sa(dp1606
g8
VMartinez, Palomo
p1607
sg10
(lp1608
sg33
V367535
p1609
sg35
VE-06
p1610
sasg33
V97833
p1611
sg35
VCE332L
p1612
sa(dp1613
g5
(lp1614
(dp1615
g8
VBERK
p1616
sg10
(lp1617
sg33
V367537
p1618
sg35
VE-01
p1619
sasg33
V97835
p1620
sg35
VCE362A
p1621
sa(dp1622
g5
(lp1623
(dp1624
g8
VANDREI
p1625
sg10
(lp1626
(dp1627
g13
I9780136110583
sg14
VMamlouk
p1628
sg16
VRequired
p1629
sg18
F143.45
sg19
VHardback
p1630
sg21
g100
sa(dp1631
g13
I9780136110330
sg14
VMamlouk (Db*)
p1632
sg16
VOptional
p1633
sg18
F61.0
sg19
VEbook
p1634
sg21
g100
sasg33
V367540
p1635
sg35
VE-01
p1636
sa(dp1637
g8
VANDREI
p1638
sg10
(lp1639
(dp1640
g13
I9780136110583
sg14
VMamlouk
p1641
sg16
VRequired
p1642
sg18
F143.45
sg19
VHardback
p1643
sg21
g100
sa(dp1644
g13
I9780136110330
sg14
VMamlouk (Db*)
p1645
sg16
VOptional
p1646
sg18
F61.0
sg19
VEbook
p1647
sg21
g100
sasg33
V367541
p1648
sg35
VE-02
p1649
sasg33
V97838
p1650
sg35
VCE422L
p1651
sa(dp1652
g5
(lp1653
(dp1654
g8
VWU
p1655
sg10
(lp1656
sg33
V379883
p1657
sg35
VE-01
p1658
sasg33
V99383
p1659
sg35
VCE429L
p1660
sa(dp1661
g5
(lp1662
(dp1663
g8
VYadegari
p1664
sg10
(lp1665
sg33
V379885
p1666
sg35
VE-01
p1667
sasg33
V99385
p1668
sg35
VCE433L
p1669
sasg406
VCE
p1670
sg33
V4763
p1671
sg35
VCIVIL ENGINEERING
p1672
sa(dp1673
g2
(lp1674
(dp1675
g5
(lp1676
(dp1677
g8
VLI
p1678
sg10
(lp1679
sg33
V380190
p1680
sg35
V01
p1681
sasg33
V100644
p1682
sg35
VCHE299
p1683
sasg406
VCHE
p1684
sg33
V4764
p1685
sg35
VCHEM & MATRLS ENGR
p1686
sa(dp1687
g2
(lp1688
(dp1689
g5
(lp1690
(dp1691
g8
VPAGE
p1692
sg10
(lp1693
(dp1694
g13
I9781256287018
sg14
VMcmurry*
p1695
sg16
VRequired
p1696
sg18
F201.15
sg19
Nsg21
Nsa(dp1697
g13
I9780321723437
sg14
VPearson
p1698
sg16
VPart of Set
p1699
sg18
F111.75
sg19
Nsg21
Nsa(dp1700
g13
I9781256363552
sg14
VMcmurry
p1701
sg16
VPart of Set
p1702
sg18
F164.4
sg19
Nsg21
Nsa(dp1703
g13
I9780321727268
sg14
VMcmurry
p1704
sg16
VPart of Set
p1705
sg18
F78.65
sg19
VPaperback
p1706
sg21
g147
sa(dp1707
g13
I9780321729903
sg14
VPearson
p1708
sg16
VPart of Set
p1709
sg18
F64.7
sg19
VAccess Code
p1710
sg21
g147
sasg33
V379853
p1711
sg35
VE-0I
p1712
sa(dp1713
g8
VPAGE,
p1714
sg10
(lp1715
(dp1716
g13
I9781256287018
sg14
VMcmurry*
p1717
sg16
VRequired
p1718
sg18
F201.15
sg19
Nsg21
Nsa(dp1719
g13
I9780321723437
sg14
VPearson
p1720
sg16
VPart of Set
p1721
sg18
F111.75
sg19
Nsg21
Nsa(dp1722
g13
I9781256363552
sg14
VMcmurry
p1723
sg16
VPart of Set
p1724
sg18
F164.4
sg19
Nsg21
Nsa(dp1725
g13
I9780321727268
sg14
VMcmurry
p1726
sg16
VPart of Set
p1727
sg18
F78.65
sg19
VPaperback
p1728
sg21
g147
sa(dp1729
g13
I9780321729903
sg14
VPearson
p1730
sg16
VPart of Set
p1731
sg18
F64.7
sg19
VAccess Code
p1732
sg21
g147
sasg33
V367550
p1733
sg35
VE-OI
p1734
sasg33
V97841
p1735
sg35
VCHM121
p1736
sa(dp1737
g5
(lp1738
(dp1739
g8
VLabadzhyan
p1740
sg10
(lp1741
(dp1742
g13
I9781256287018
sg14
VMcmurry*
p1743
sg16
VRequired
p1744
sg18
F201.15
sg19
Nsg21
Nsa(dp1745
g13
I9780321723437
sg14
VPearson
p1746
sg16
VPart of Set
p1747
sg18
F111.75
sg19
Nsg21
Nsa(dp1748
g13
I9781256363552
sg14
VMcmurry
p1749
sg16
VPart of Set
p1750
sg18
F164.4
sg19
Nsg21
Nsa(dp1751
g13
I9780321727268
sg14
VMcmurry
p1752
sg16
VPart of Set
p1753
sg18
F78.65
sg19
VPaperback
p1754
sg21
g147
sa(dp1755
g13
I9780321729903
sg14
VPearson
p1756
sg16
VPart of Set
p1757
sg18
F64.7
sg19
VAccess Code
p1758
sg21
g147
sasg33
V367555
p1759
sg35
VE-01
p1760
sa(dp1761
g8
VMargolese
p1762
sg10
(lp1763
(dp1764
g13
I9781256287018
sg14
VMcmurry*
p1765
sg16
VRequired
p1766
sg18
F201.15
sg19
Nsg21
Nsa(dp1767
g13
I9780321723437
sg14
VPearson
p1768
sg16
VPart of Set
p1769
sg18
F111.75
sg19
Nsg21
Nsa(dp1770
g13
I9781256363552
sg14
VMcmurry
p1771
sg16
VPart of Set
p1772
sg18
F164.4
sg19
Nsg21
Nsa(dp1773
g13
I9780321727268
sg14
VMcmurry
p1774
sg16
VPart of Set
p1775
sg18
F78.65
sg19
VPaperback
p1776
sg21
g147
sa(dp1777
g13
I9780321729903
sg14
VPearson
p1778
sg16
VPart of Set
p1779
sg18
F64.7
sg19
VAccess Code
p1780
sg21
g147
sasg33
V367556
p1781
sg35
VE-02
p1782
sasg33
V97843
p1783
sg35
VCHM122
p1784
sa(dp1785
g5
(lp1786
(dp1787
g8
VTERRAZAS
p1788
sg10
(lp1789
(dp1790
g13
I9781256287018
sg14
VMcmurry*
p1791
sg16
VRequired
p1792
sg18
F201.15
sg19
Nsg21
Nsa(dp1793
g13
I9780321723437
sg14
VPearson
p1794
sg16
VPart of Set
p1795
sg18
F111.75
sg19
Nsg21
Nsa(dp1796
g13
I9781256363552
sg14
VMcmurry
p1797
sg16
VPart of Set
p1798
sg18
F164.4
sg19
Nsg21
Nsa(dp1799
g13
I9780321727268
sg14
VMcmurry
p1800
sg16
VPart of Set
p1801
sg18
F78.65
sg19
VPaperback
p1802
sg21
g147
sa(dp1803
g13
I9780321729903
sg14
VPearson
p1804
sg16
VPart of Set
p1805
sg18
F64.7
sg19
VAccess Code
p1806
sg21
g147
sasg33
V367561
p1807
sg35
VE-01
p1808
sa(dp1809
g8
VLabadzhyan
p1810
sg10
(lp1811
(dp1812
g13
I9781256287018
sg14
VMcmurry*
p1813
sg16
VRequired
p1814
sg18
F201.15
sg19
Nsg21
Nsa(dp1815
g13
I9780321723437
sg14
VPearson
p1816
sg16
VPart of Set
p1817
sg18
F111.75
sg19
Nsg21
Nsa(dp1818
g13
I9781256363552
sg14
VMcmurry
p1819
sg16
VPart of Set
p1820
sg18
F164.4
sg19
Nsg21
Nsa(dp1821
g13
I9780321727268
sg14
VMcmurry
p1822
sg16
VPart of Set
p1823
sg18
F78.65
sg19
VPaperback
p1824
sg21
g147
sa(dp1825
g13
I9780321729903
sg14
VPearson
p1826
sg16
VPart of Set
p1827
sg18
F64.7
sg19
VAccess Code
p1828
sg21
g147
sasg33
V367562
p1829
sg35
VE-02
p1830
sasg33
V97845
p1831
sg35
VCHM123
p1832
sa(dp1833
g5
(lp1834
(dp1835
g8
VPAGE
p1836
sg10
(lp1837
(dp1838
g13
I9780321633859
sg14
VBruice*
p1839
sg16
VRequired
p1840
sg18
F173.05
sg19
VKit/Set/Package
p1841
sg21
g447
sa(dp1842
g13
I9780321677013
sg14
VBruice (Db*)
p1843
sg16
VOptional
p1844
sg18
F99.0
sg19
VEbook
p1845
sg21
g447
sa(dp1846
g13
I9780321592583
sg14
VBruice
p1847
sg16
VPart of Set
p1848
sg18
F74.35
sg19
VPaperback
p1849
sg21
g447
sa(dp1850
g13
I9780321596956
sg14
VBruice
p1851
sg16
VPart of Set
p1852
sg18
F173.05
sg19
VHardback
p1853
sg21
g447
sasg33
V367567
p1854
sg35
VE-01
p1855
sasg33
V97847
p1856
sg35
VCHM201
p1857
sa(dp1858
g5
(lp1859
(dp1860
g8
VSTRENG
p1861
sg10
(lp1862
(dp1863
g13
I9781429275033
sg14
VHarris
p1864
sg16
VRequired
p1865
sg18
F146.65
sg19
VPaperback
p1866
sg21
g355
sa(dp1867
g13
I9781464106422
sg14
VHarris (Db*)
p1868
sg16
VOptional
p1869
sg18
F56.0
sg19
VEbook
p1870
sg21
g355
sasg33
V367568
p1871
sg35
VE-01
p1872
sasg33
V97848
p1873
sg35
VCHM221
p1874
sa(dp1875
g5
(lp1876
(dp1877
g8
VFLORES
p1878
sg10
(lp1879
(dp1880
g13
I9780321647139
sg14
VWade*
p1881
sg16
VRequired
p1882
sg18
F270.25
sg19
VKit/Set/Package
p1883
sg21
g66
sa(dp1884
g13
I9780321598745
sg14
VWade (Db*)
p1885
sg16
VOptional
p1886
sg18
F129.0
sg19
VEbook
p1887
sg21
g66
sa(dp1888
g13
I9780321592316
sg14
VWade
p1889
sg16
VPart of Set
p1890
sg18
F216.2
sg19
VHardback
p1891
sg21
g66
sa(dp1892
g13
I9780321598714
sg14
VWade
p1893
sg16
VPart of Set
p1894
sg18
F121.0
sg19
VPaperback
p1895
sg21
g66
sa(dp1896
g13
I9780321616173
sg14
VWade
p1897
sg16
VPart of Set
p1898
sg18
F35.3
sg19
VAccess Code
p1899
sg21
g66
sasg33
V367576
p1900
sg35
VE-01
p1901
sasg33
V97851
p1902
sg35
VCHM314
p1903
sa(dp1904
g5
(lp1905
(dp1906
g8
VFLORES
p1907
sg10
(lp1908
(dp1909
g13
I9780321647139
sg14
VWade*
p1910
sg16
VRequired
p1911
sg18
F270.25
sg19
VKit/Set/Package
p1912
sg21
g66
sa(dp1913
g13
I9780321598745
sg14
VWade (Db*)
p1914
sg16
VOptional
p1915
sg18
F129.0
sg19
VEbook
p1916
sg21
g66
sa(dp1917
g13
I9780321592316
sg14
VWade
p1918
sg16
VPart of Set
p1919
sg18
F216.2
sg19
VHardback
p1920
sg21
g66
sa(dp1921
g13
I9780321598714
sg14
VWade
p1922
sg16
VPart of Set
p1923
sg18
F121.0
sg19
VPaperback
p1924
sg21
g66
sa(dp1925
g13
I9780321616173
sg14
VWade
p1926
sg16
VPart of Set
p1927
sg18
F35.3
sg19
VAccess Code
p1928
sg21
g66
sasg33
V367577
p1929
sg35
VE-01
p1930
sasg33
V97852
p1931
sg35
VCHM315
p1932
sa(dp1933
g5
(lp1934
(dp1935
g8
VKLAVETTER
p1936
sg10
(lp1937
(dp1938
g13
I9780321647139
sg14
VWade*
p1939
sg16
VRequired
p1940
sg18
F270.25
sg19
VKit/Set/Package
p1941
sg21
g66
sa(dp1942
g13
I9780321598745
sg14
VWade (Db*)
p1943
sg16
VOptional
p1944
sg18
F129.0
sg19
VEbook
p1945
sg21
g66
sa(dp1946
g13
I9780321592316
sg14
VWade
p1947
sg16
VPart of Set
p1948
sg18
F216.2
sg19
VHardback
p1949
sg21
g66
sa(dp1950
g13
I9780321598714
sg14
VWade
p1951
sg16
VPart of Set
p1952
sg18
F121.0
sg19
VPaperback
p1953
sg21
g66
sa(dp1954
g13
I9780321616173
sg14
VWade
p1955
sg16
VPart of Set
p1956
sg18
F35.3
sg19
VAccess Code
p1957
sg21
g66
sasg33
V367578
p1958
sg35
VE-01
p1959
sasg33
V97853
p1960
sg35
VCHM316
p1961
sa(dp1962
g5
(lp1963
(dp1964
g8
VOPOTOWSKY
p1965
sg10
(lp1966
(dp1967
g13
I9780199730841
sg14
VMckee
p1968
sg16
VRequired
p1969
sg18
F149.0
sg19
VHardback
p1970
sg21
g355
sa(dp1971
g13
I9780199730971
sg14
VMckee
p1972
sg16
VOptional
p1973
sg18
F44.95
sg19
VPaperback
p1974
sg21
g355
sasg33
V367583
p1975
sg35
VE-01
p1976
sasg33
V97857
p1977
sg35
VCHM321
p1978
sa(dp1979
g5
(lp1980
(dp1981
g8
VSTAFF
p1982
sg10
(lp1983
(dp1984
g13
I9781429224161
sg14
VNelson*
p1985
sg16
VRequired
p1986
sg18
F218.75
sg19
VKit/Set/Package
p1987
sg21
g355
sa(dp1988
g13
I9781429225649
sg14
VNelson*
p1989
sg16
VRequired
p1990
sg18
F142.25
sg19
VKit/Set/Package
p1991
sg21
g355
sa(dp1992
g13
I9781429228824
sg14
VNelson (Db*)
p1993
sg16
VOptional
p1994
sg18
F120.0
sg19
VEbook
p1995
sg21
g355
sa(dp1996
g13
I9781429212410
sg14
VNelson
p1997
sg16
VOptional
p1998
sg18
F74.95
sg19
VPaperback
p1999
sg21
g355
sa(dp2000
g13
I9780716771081
sg14
VNelson
p2001
sg16
VPart of Set
p2002
sg18
F218.75
sg19
VHardback
p2003
sg21
g355
sa(dp2004
g13
I9781429212427
sg14
VNelson
p2005
sg16
VPart of Set
p2006
sg18
F100.25
sg19
Nsg21
Nsasg33
V367590
p2007
sg35
VE-01
p2008
sasg33
V97859
p2009
sg35
VCHM329
p2010
sa(dp2011
g5
(lp2012
(dp2013
g8
VANZ
p2014
sg10
(lp2015
(dp2016
g13
I9780738045016
sg14
VCasalnuovo
p2017
sg16
VRequired
p2018
sg18
F17.95
sg19
Nsg21
Nsasg33
V367551
p2019
sg35
VE-01
p2020
sa(dp2021
g8
VBogonko
p2022
sg10
(lp2023
(dp2024
g13
I9780738045016
sg14
VCasalnuovo
p2025
sg16
VRequired
p2026
sg18
F17.95
sg19
Nsg21
Nsasg33
V367552
p2027
sg35
VE-02
p2028
sa(dp2029
g8
VLy
p2030
sg10
(lp2031
(dp2032
g13
I9780738045016
sg14
VCasalnuovo
p2033
sg16
VRequired
p2034
sg18
F17.95
sg19
Nsg21
Nsasg33
V367553
p2035
sg35
VE-03
p2036
sa(dp2037
g8
VSTAFF,
p2038
sg10
(lp2039
(dp2040
g13
I9780738045016
sg14
VCasalnuovo
p2041
sg16
VRequired
p2042
sg18
F17.95
sg19
Nsg21
Nsasg33
V367554
p2043
sg35
VE-04
p2044
sasg33
V97842
p2045
sg35
VCHM121L
p2046
sa(dp2047
g5
(lp2048
(dp2049
g8
VBERRY
p2050
sg10
(lp2051
(dp2052
g13
I9780738045009
sg14
VCasalnuovo
p2053
sg16
VRequired
p2054
sg18
F17.95
sg19
Nsg21
Nsasg33
V367557
p2055
sg35
VE-01
p2056
sa(dp2057
g8
VANZ
p2058
sg10
(lp2059
(dp2060
g13
I9780738045009
sg14
VCasalnuovo
p2061
sg16
VRequired
p2062
sg18
F17.95
sg19
Nsg21
Nsasg33
V367558
p2063
sg35
VE-02
p2064
sa(dp2065
g8
VSTAFF,
p2066
sg10
(lp2067
(dp2068
g13
I9780738045009
sg14
VCasalnuovo
p2069
sg16
VRequired
p2070
sg18
F17.95
sg19
Nsg21
Nsasg33
V367559
p2071
sg35
VE-03
p2072
sa(dp2073
g8
VLy
p2074
sg10
(lp2075
(dp2076
g13
I9780738045009
sg14
VCasalnuovo
p2077
sg16
VRequired
p2078
sg18
F17.95
sg19
Nsg21
Nsasg33
V367560
p2079
sg35
VE-04
p2080
sasg33
V97844
p2081
sg35
VCHM122L
p2082
sa(dp2083
g5
(lp2084
(dp2085
g8
VDANG
p2086
sg10
(lp2087
(dp2088
g13
I9780738044996
sg14
VCasalnuovo
p2089
sg16
VRequired
p2090
sg18
F17.95
sg19
Nsg21
Nsasg33
V367563
p2091
sg35
VE-01
p2092
sa(dp2093
g8
VMargolese
p2094
sg10
(lp2095
(dp2096
g13
I9780738044996
sg14
VCasalnuovo
p2097
sg16
VRequired
p2098
sg18
F17.95
sg19
Nsg21
Nsasg33
V367564
p2099
sg35
VE-02
p2100
sa(dp2101
g8
VMargolese
p2102
sg10
(lp2103
(dp2104
g13
I9780738044996
sg14
VCasalnuovo
p2105
sg16
VRequired
p2106
sg18
F17.95
sg19
Nsg21
Nsasg33
V367565
p2107
sg35
VE-03
p2108
sa(dp2109
g8
VTERRAZAS
p2110
sg10
(lp2111
(dp2112
g13
I9780738044996
sg14
VCasalnuovo
p2113
sg16
VRequired
p2114
sg18
F17.95
sg19
Nsg21
Nsasg33
V367566
p2115
sg35
VE-04
p2116
sasg33
V97846
p2117
sg35
VCHM123L
p2118
sa(dp2119
g5
(lp2120
(dp2121
g8
VTERRAZAS
p2122
sg10
(lp2123
sg33
V367569
p2124
sg35
VE-01
p2125
sa(dp2126
g8
VTERRAZAS
p2127
sg10
(lp2128
sg33
V367570
p2129
sg35
VE-02
p2130
sa(dp2131
g8
VSTRENG
p2132
sg10
(lp2133
sg33
V367571
p2134
sg35
VE-03
p2135
sasg33
V97849
p2136
sg35
VCHM221L
p2137
sa(dp2138
g5
(lp2139
(dp2140
g8
VDANG
p2141
sg10
(lp2142
sg33
V367572
p2143
sg35
VE-01
p2144
sa(dp2145
g8
VDANG
p2146
sg10
(lp2147
sg33
V367573
p2148
sg35
VE-02
p2149
sa(dp2150
g8
VSTAFF,
p2151
sg10
(lp2152
sg33
V367574
p2153
sg35
VE-03
p2154
sa(dp2155
g8
VSTAFF,
p2156
sg10
(lp2157
sg33
V367575
p2158
sg35
VE-04
p2159
sasg33
V97850
p2160
sg35
VCHM250L
p2161
sa(dp2162
g5
(lp2163
(dp2164
g8
VROBLEDO
p2165
sg10
(lp2166
(dp2167
g13
I9780470494370
sg14
VZubrick
p2168
sg16
VRequired
p2169
sg18
F76.0
sg19
VPaperback
p2170
sg21
g22
sa(dp2171
g13
I9780470565926
sg14
VZubrick (Db*)
p2172
sg16
VOptional
p2173
sg18
F37.5
sg19
VEbook
p2174
sg21
g22
sasg33
V367579
p2175
sg35
VE-01
p2176
sa(dp2177
g8
VSTAFF,
p2178
sg10
(lp2179
(dp2180
g13
I9780470494370
sg14
VZubrick
p2181
sg16
VRequired
p2182
sg18
F76.0
sg19
VPaperback
p2183
sg21
g22
sa(dp2184
g13
I9780470565926
sg14
VZubrick (Db*)
p2185
sg16
VOptional
p2186
sg18
F37.5
sg19
VEbook
p2187
sg21
g22
sasg33
V367580
p2188
sg35
VE-02
p2189
sasg33
V97854
p2190
sg35
VCHM317L
p2191
sa(dp2192
g5
(lp2193
(dp2194
g8
VFLORES
p2195
sg10
(lp2196
(dp2197
g13
I9780618824281
sg14
VWilliamson
p2198
sg16
VRequired
p2199
sg18
F61.35
sg19
VNone
p2200
sg21
g524
sa(dp2201
g13
I9780470494370
sg14
VZubrick
p2202
sg16
VRequired
p2203
sg18
F76.0
sg19
VPaperback
p2204
sg21
g22
sa(dp2205
g13
I9780470565926
sg14
VZubrick (Db*)
p2206
sg16
VOptional
p2207
sg18
F37.5
sg19
VEbook
p2208
sg21
g22
sasg33
V367581
p2209
sg35
VE-01
p2210
sasg33
V97855
p2211
sg35
VCHM318L
p2212
sa(dp2213
g5
(lp2214
(dp2215
g8
VFLORES
p2216
sg10
(lp2217
(dp2218
g13
I9780618824281
sg14
VWilliamson
p2219
sg16
VRequired
p2220
sg18
F61.35
sg19
VNone
p2221
sg21
g524
sa(dp2222
g13
I9780470494370
sg14
VZubrick
p2223
sg16
VRequired
p2224
sg18
F76.0
sg19
VPaperback
p2225
sg21
g22
sa(dp2226
g13
I9780470565926
sg14
VZubrick (Db*)
p2227
sg16
VOptional
p2228
sg18
F37.5
sg19
VEbook
p2229
sg21
g22
sasg33
V367582
p2230
sg35
VE-01
p2231
sasg33
V97856
p2232
sg35
VCHM319L
p2233
sa(dp2234
g5
(lp2235
(dp2236
g8
VOPOTOWSKY
p2237
sg10
(lp2238
sg33
V367584
p2239
sg35
VE-01
p2240
sa(dp2241
g8
VMCCOY
p2242
sg10
(lp2243
sg33
V367585
p2244
sg35
VE-02
p2245
sa(dp2246
g8
VOPOTOWSKY
p2247
sg10
(lp2248
sg33
V367586
p2249
sg35
VE-03
p2250
sa(dp2251
g8
VMCCOY
p2252
sg10
(lp2253
sg33
V367587
p2254
sg35
VE-04
p2255
sa(dp2256
g8
VSTAFF,
p2257
sg10
(lp2258
sg33
V367588
p2259
sg35
VE-05
p2260
sa(dp2261
g8
VSTAFF,
p2262
sg10
(lp2263
sg33
V367589
p2264
sg35
VE-06
p2265
sasg33
V97858
p2266
sg35
VCHM321L
p2267
sa(dp2268
g5
(lp2269
(dp2270
g8
VOPOTOWSKY
p2271
sg10
(lp2272
sg33
V367591
p2273
sg35
VE-01
p2274
sa(dp2275
g8
VOPOTOWSKY
p2276
sg10
(lp2277
sg33
V367592
p2278
sg35
VE-02
p2279
sasg33
V97860
p2280
sg35
VCHM329L
p2281
sasg406
VCHM
p2282
sg33
V4803
p2283
sg35
VCHEMISTRY
p2284
sa(dp2285
g2
(lp2286
(dp2287
g5
(lp2288
(dp2289
g8
VGUTHRIE
p2290
sg10
(lp2291
sg33
V379856
p2292
sg35
VE-01
p2293
sasg33
V97862
p2294
sg35
VCIS231
p2295
sa(dp2296
g5
(lp2297
(dp2298
g8
VGUTHRIE
p2299
sg10
(lp2300
(dp2301
g13
I9780077546779
sg14
VBaltzan*
p2302
sg16
VRequired
p2303
sg18
F125.0
sg19
Nsg21
Nsa(dp2304
g13
I9780077546786
sg14
VBaltzan*
p2305
sg16
VRequired
p2306
sg18
F119.0
sg19
Nsg21
Nsa(dp2307
g13
I9780077338350
sg14
VBaltzan/Mcgraw-Hill
p2308
sg16
VPart of Set
p2309
sg18
F47.05
sg19
Nsg21
Nsasg33
V379860
p2310
sg35
VE-02
p2311
sasg33
V97866
p2312
sg35
VCIS310
p2313
sa(dp2314
g5
(lp2315
(dp2316
g8
VHWANG
p2317
sg10
(lp2318
(dp2319
g13
I9780735627406
sg14
VNorthrup
p2320
sg16
VRequired
p2321
sg18
F70.0
sg19
Nsg21
Nsasg33
V379861
p2322
sg35
VE-01
p2323
sasg33
V97867
p2324
sg35
VCIS311
p2325
sasg406
VCIS
p2326
sg33
V4766
p2327
sg35
VCOMPUTER INFO SYST
p2328
sa(dp2329
g2
(lp2330
(dp2331
g5
(lp2332
(dp2333
g8
VSTAFF,
p2334
sg10
(lp2335
(dp2336
g13
I9781256518112
sg14
VFord-Brown*
p2337
sg16
VRequired
p2338
sg18
F78.55
sg19
Nsg21
Nsa(dp2339
g13
I9780205828067
sg14
VFord-Brown (Db*)
p2340
sg16
VOptional
p2341
sg18
F31.0
sg19
Nsg21
Nsa(dp2342
g13
I9780205750115
sg14
VFord-Brown
p2343
sg16
VPart of Set
p2344
sg18
F77.35
sg19
Nsg21
Nsa(dp2345
g13
I9780205890064
sg14
VPearson
p2346
sg16
VPart of Set
p2347
sg18
F41.2
sg19
Nsg21
Nsa(dp2348
g13
I9780205254392
sg14
VKallan
p2349
sg16
VPart of Set
p2350
sg18
F16.65
sg19
Nsg21
Nsasg33
V379866
p2351
sg35
V01
p2352
sa(dp2353
g8
VSTAFF
p2354
sg10
(lp2355
(dp2356
g13
I9781256518112
sg14
VFord-Brown*
p2357
sg16
VRequired
p2358
sg18
F78.55
sg19
Nsg21
Nsa(dp2359
g13
I9780205828067
sg14
VFord-Brown (Db*)
p2360
sg16
VOptional
p2361
sg18
F31.0
sg19
Nsg21
Nsa(dp2362
g13
I9780205750115
sg14
VFord-Brown
p2363
sg16
VPart of Set
p2364
sg18
F77.35
sg19
Nsg21
Nsa(dp2365
g13
I9780205890064
sg14
VPearson
p2366
sg16
VPart of Set
p2367
sg18
F41.2
sg19
Nsg21
Nsa(dp2368
g13
I9780205254392
sg14
VKallan
p2369
sg16
VPart of Set
p2370
sg18
F16.65
sg19
Nsg21
Nsasg33
V379867
p2371
sg35
V02
p2372
sa(dp2373
g8
VSTAFF
p2374
sg10
(lp2375
(dp2376
g13
I9781256518112
sg14
VFord-Brown*
p2377
sg16
VRequired
p2378
sg18
F78.55
sg19
Nsg21
Nsa(dp2379
g13
I9780205828067
sg14
VFord-Brown (Db*)
p2380
sg16
VOptional
p2381
sg18
F31.0
sg19
Nsg21
Nsa(dp2382
g13
I9780205750115
sg14
VFord-Brown
p2383
sg16
VPart of Set
p2384
sg18
F77.35
sg19
Nsg21
Nsa(dp2385
g13
I9780205890064
sg14
VPearson
p2386
sg16
VPart of Set
p2387
sg18
F41.2
sg19
Nsg21
Nsa(dp2388
g13
I9780205254392
sg14
VKallan
p2389
sg16
VPart of Set
p2390
sg18
F16.65
sg19
Nsg21
Nsasg33
V380104
p2391
sg35
V03
p2392
sasg33
V99367
p2393
sg35
VCOM100
p2394
sa(dp2395
g5
(lp2396
(dp2397
g8
VSTAFF,
p2398
sg10
(lp2399
(dp2400
g13
I9781256519089
sg14
VRybacki*
p2401
sg16
VRequired
p2402
sg18
F92.4
sg19
Nsg21
Nsa(dp2403
g13
I9780205781195
sg14
VRybacki (Db*)
p2404
sg16
VOptional
p2405
sg18
F37.0
sg19
VEbook
p2406
sg21
g66
sa(dp2407
g13
I9780205781188
sg14
VRybacki
p2408
sg16
VPart of Set
p2409
sg18
F93.0
sg19
VPaperback
p2410
sg21
g66
sa(dp2411
g13
I9780205254392
sg14
VKallan
p2412
sg16
VPart of Set
p2413
sg18
F16.65
sg19
Nsg21
Nsasg33
V379868
p2414
sg35
V01
p2415
sa(dp2416
g8
VSTAFF
p2417
sg10
(lp2418
(dp2419
g13
I9781256519089
sg14
VRybacki*
p2420
sg16
VRequired
p2421
sg18
F92.4
sg19
Nsg21
Nsa(dp2422
g13
I9780205781195
sg14
VRybacki (Db*)
p2423
sg16
VOptional
p2424
sg18
F37.0
sg19
VEbook
p2425
sg21
g66
sa(dp2426
g13
I9780205781188
sg14
VRybacki
p2427
sg16
VPart of Set
p2428
sg18
F93.0
sg19
VPaperback
p2429
sg21
g66
sa(dp2430
g13
I9780205254392
sg14
VKallan
p2431
sg16
VPart of Set
p2432
sg18
F16.65
sg19
Nsg21
Nsasg33
V379869
p2433
sg35
V02
p2434
sa(dp2435
g8
VSTAFF
p2436
sg10
(lp2437
(dp2438
g13
I9781256519089
sg14
VRybacki*
p2439
sg16
VRequired
p2440
sg18
F92.4
sg19
Nsg21
Nsa(dp2441
g13
I9780205781195
sg14
VRybacki (Db*)
p2442
sg16
VOptional
p2443
sg18
F37.0
sg19
VEbook
p2444
sg21
g66
sa(dp2445
g13
I9780205781188
sg14
VRybacki
p2446
sg16
VPart of Set
p2447
sg18
F93.0
sg19
VPaperback
p2448
sg21
g66
sa(dp2449
g13
I9780205254392
sg14
VKallan
p2450
sg16
VPart of Set
p2451
sg18
F16.65
sg19
Nsg21
Nsasg33
V380105
p2452
sg35
V03
p2453
sasg33
V99368
p2454
sg35
VCOM204
p2455
sa(dp2456
g5
(lp2457
(dp2458
g8
VSTAFF
p2459
sg10
(lp2460
sg33
V379870
p2461
sg35
V01
p2462
sasg33
V99369
p2463
sg35
VCOM314
p2464
sa(dp2465
g5
(lp2466
(dp2467
g8
VSTAFF
p2468
sg10
(lp2469
(dp2470
g13
I9781412977821
sg14
VJowett
p2471
sg16
VRequired
p2472
sg18
F64.0
sg19
VPaperback
p2473
sg21
g355
sasg33
V379871
p2474
sg35
V01
p2475
sasg33
V99370
p2476
sg35
VCOM413
p2477
sasg406
VCOM
p2478
sg33
V4808
p2479
sg35
VCOMMUNICATION
p2480
sa(dp2481
g2
(lp2482
(dp2483
g5
(lp2484
(dp2485
g8
VMunnerlyn
p2486
sg10
(lp2487
sg33
V370478
p2488
sg35
VE-01
p2489
sa(dp2490
g8
VMunnerlyn
p2491
sg10
(lp2492
sg33
V370479
p2493
sg35
VE-02
p2494
sasg33
V99343
p2495
sg35
VCPU100
p2496
sasg406
VCPU
p2497
sg33
V4769
p2498
sg35
VCAL POLY UNIVERSITY
p2499
sa(dp2500
g2
(lp2501
(dp2502
g5
(lp2503
(dp2504
g8
VRAHEJA
p2505
sg10
(lp2506
(dp2507
g13
I9780132576253
sg14
VGaddis
p2508
sg16
VRequired
p2509
sg18
F126.55
sg19
VPaperback
p2510
sg21
g66
sa(dp2511
g13
I9780132664837
sg14
VGaddis (Db*)
p2512
sg16
VOptional
p2513
sg18
F54.0
sg19
VEbook
p2514
sg21
g66
sasg33
V367604
p2515
sg35
VE-01
p2516
sasg33
V97871
p2517
sg35
VCS128
p2518
sa(dp2519
g5
(lp2520
(dp2521
g8
VYOUNG
p2522
sg10
(lp2523
(dp2524
g13
I9780716768647
sg14
VGersting
p2525
sg16
VRequired
p2526
sg18
F155.0
sg19
VHardback
p2527
sg21
g147
sasg33
V367605
p2528
sg35
VE-01
p2529
sasg33
V97872
p2530
sg35
VCS130
p2531
sa(dp2532
g5
(lp2533
(dp2534
g8
VSTAFF
p2535
sg10
(lp2536
(dp2537
g13
I9780132855839
sg14
VGaddis
p2538
sg16
VRequired
p2539
sg18
F115.0
sg19
VPaperback
p2540
sg21
g355
sa(dp2541
g13
I9780132855914
sg14
VGaddis (Db*)
p2542
sg16
VOptional
p2543
sg18
F58.0
sg19
VEbook
p2544
sg21
g355
sasg33
V367606
p2545
sg35
VE-01
p2546
sasg33
V97873
p2547
sg35
VCS140
p2548
sa(dp2549
g5
(lp2550
(dp2551
g8
VSALLOUM
p2552
sg10
(lp2553
(dp2554
g13
I9780495471691
sg14
VRoth
p2555
sg16
VRequired
p2556
sg18
F180.3
sg19
VHardback
p2557
sg21
g147
sa(dp2558
g13
I9780495873624
sg14
VRoth (Db*)
p2559
sg16
VOptional
p2560
sg18
F102.5
sg19
VEbook
p2561
sg21
g147
sasg33
V367607
p2562
sg35
VE-01
p2563
sasg33
V97874
p2564
sg35
VCS210
p2565
sa(dp2566
g5
(lp2567
(dp2568
g8
VSALLOUM
p2569
sg10
(lp2570
(dp2571
g13
I9780132576246
sg14
VMain
p2572
sg16
VRequired
p2573
sg18
F125.0
sg19
VPaperback
p2574
sg21
g524
sa(dp2575
g13
I9780132576475
sg14
VMain (Db*)
p2576
sg16
VOptional
p2577
sg18
F50.0
sg19
VEbook
p2578
sg21
g524
sasg33
V367608
p2579
sg35
VE-01
p2580
sasg33
V97875
p2581
sg35
VCS240
p2582
sa(dp2583
g5
(lp2584
(dp2585
g8
VSTAFF
p2586
sg10
(lp2587
(dp2588
g13
I9780132576246
sg14
VMain
p2589
sg16
VRequired
p2590
sg18
F125.0
sg19
VPaperback
p2591
sg21
g524
sa(dp2592
g13
I9780132576475
sg14
VMain (Db*)
p2593
sg16
VOptional
p2594
sg18
F50.0
sg19
VEbook
p2595
sg21
g524
sasg33
V367609
p2596
sg35
VE-01
p2597
sasg33
V97876
p2598
sg35
VCS241
p2599
sa(dp2600
g5
(lp2601
(dp2602
g8
VYOUNG
p2603
sg10
(lp2604
sg33
V367610
p2605
sg35
VE-01
p2606
sasg33
V97877
p2607
sg35
VCS375
p2608
sasg406
VCS
p2609
sg33
V4770
p2610
sg35
VCOMPUTER SCIENCE
p2611
sa(dp2612
g2
(lp2613
(dp2614
g5
(lp2615
(dp2616
g8
VXU
p2617
sg10
(lp2618
(dp2619
g13
I9780132145381
sg14
VTurban
p2620
sg16
VRequired
p2621
sg18
F195.0
sg19
Nsg21
Nsa(dp2622
g13
I9780132146371
sg14
VTurban (Db*)
p2623
sg16
VOptional
p2624
sg18
F77.0
sg19
Nsg21
Nsasg33
V367611
p2625
sg35
VE-01
p2626
sasg33
V97878
p2627
sg35
VEBZ301
p2628
sasg406
VEBZ
p2629
sg33
V4772
p2630
sg35
VELECTRONIC BUSINESS
p2631
sa(dp2632
g2
(lp2633
(dp2634
g5
(lp2635
(dp2636
g8
VRUSH
p2637
sg10
(lp2638
(dp2639
g13
I9781429283427
sg14
VKrugman
p2640
sg16
VRequired
p2641
sg18
F168.75
sg19
VPaperback
p2642
sg21
g100
sasg33
V367612
p2643
sg35
VE-01
p2644
sasg33
V97879
p2645
sg35
VEC201
p2646
sa(dp2647
g5
(lp2648
(dp2649
g8
VBROWN
p2650
sg10
(lp2651
(dp2652
g13
I9781429266598
sg14
VKrugman*
p2653
sg16
VRequired
p2654
sg18
F94.7
sg19
VLooseleaf
p2655
sg21
g447
sasg33
V367613
p2656
sg35
VE-01
p2657
sasg33
V97880
p2658
sg35
VEC202
p2659
sa(dp2660
g5
(lp2661
(dp2662
g8
VLANGE
p2663
sg10
(lp2664
sg33
V367614
p2665
sg35
VE-01
p2666
sasg33
V97944
p2667
sg35
VEC406
p2668
sa(dp2669
g5
(lp2670
(dp2671
g8
VBROWN
p2672
sg10
(lp2673
(dp2674
g13
I9780321533739
sg14
VEhrenberg
p2675
sg16
VRequired
p2676
sg18
F193.75
sg19
VHardback
p2677
sg21
V10
p2678
sa(dp2679
g13
I9780321550941
sg14
VEhrenberg (Db*)
p2680
sg16
VOptional
p2681
sg18
F83.0
sg19
VEbook
p2682
sg21
V10
p2683
sasg33
V367615
p2684
sg35
VE-01
p2685
sasg33
V97945
p2686
sg35
VEC414
p2687
sa(dp2688
g5
(lp2689
(dp2690
g8
VBRESNOCK
p2691
sg10
(lp2692
(dp2693
g13
I9780470393741
sg14
VEsty
p2694
sg16
VRequired
p2695
sg18
F21.95
sg19
Nsg21
Nsasg33
V367616
p2696
sg35
VE-01
p2697
sasg33
V97881
p2698
sg35
VEC441
p2699
sasg406
VEC
p2700
sg33
V4819
p2701
sg35
VECONOMICS
p2702
sa(dp2703
g2
(lp2704
(dp2705
g5
(lp2706
(dp2707
g8
VFERGUSON  JR
p2708
sg10
(lp2709
(dp2710
g13
I9780077263195
sg14
VAlexander
p2711
sg16
VRequired
p2712
sg18
F196.25
sg19
VHardback
p2713
sg21
g524
sasg33
V367618
p2714
sg35
VE-01
p2715
sasg33
V97882
p2716
sg35
VECE109
p2717
sa(dp2718
g5
(lp2719
(dp2720
g8
VMONEMI
p2721
sg10
(lp2722
(dp2723
g13
I9780132165419
sg14
VDeitel
p2724
sg16
VRequired
p2725
sg18
F124.0
sg19
VPaperback
p2726
sg21
g66
sa(dp2727
g13
I9780132177412
sg14
VDeitel (Db*)
p2728
sg16
VOptional
p2729
sg18
F50.0
sg19
VEbook
p2730
sg21
g66
sasg33
V367620
p2731
sg35
VE-01
p2732
sasg33
V97884
p2733
sg35
VECE114
p2734
sa(dp2735
g5
(lp2736
(dp2737
g8
VCHANDRA
p2738
sg10
(lp2739
sg33
V367622
p2740
sg35
VE-01
p2741
sasg33
V97886
p2742
sg35
VECE130
p2743
sa(dp2744
g5
(lp2745
(dp2746
g8
VSACCO
p2747
sg10
(lp2748
(dp2749
g13
I9780077211646
sg14
VBrown
p2750
sg16
VRequired
p2751
sg18
F180.95
sg19
VCloth
p2752
sg21
g447
sasg33
V367623
p2753
sg35
VE-01
p2754
sasg33
V97887
p2755
sg35
VECE205
p2756
sa(dp2757
g5
(lp2758
(dp2759
g8
VKANG
p2760
sg10
(lp2761
(dp2762
g13
I9780077263195
sg14
VAlexander
p2763
sg16
VRequired
p2764
sg18
F196.25
sg19
VHardback
p2765
sg21
g524
sasg33
V367625
p2766
sg35
VE-01
p2767
sasg33
V97889
p2768
sg35
VECE207
p2769
sa(dp2770
g5
(lp2771
(dp2772
g8
VCHANDRA
p2773
sg10
(lp2774
(dp2775
g13
I9780077263195
sg14
VAlexander
p2776
sg16
VRequired
p2777
sg18
F196.25
sg19
VHardback
p2778
sg21
g524
sasg33
V367627
p2779
sg35
VE-01
p2780
sasg33
V97891
p2781
sg35
VECE209
p2782
sa(dp2783
g5
(lp2784
(dp2785
g8
VOLSON
p2786
sg10
(lp2787
(dp2788
g13
I9780073380452
sg14
VJaeger
p2789
sg16
VRequired
p2790
sg18
F188.15
sg19
VHardback
p2791
sg21
g524
sa(dp2792
g13
I9780077330040
sg14
VJaeger (Db*)
p2793
sg16
VOptional
p2794
sg18
F105.5
sg19
VEbook
p2795
sg21
g524
sasg33
V367629
p2796
sg35
VE-01
p2797
sasg33
V97893
p2798
sg35
VECE220
p2799
sa(dp2800
g5
(lp2801
(dp2802
g8
VMONEMI
p2803
sg10
(lp2804
(dp2805
g13
I9780073380377
sg14
VRizzoni
p2806
sg16
VRequired
p2807
sg18
F137.35
sg19
Nsg21
Nsa(dp2808
g13
I9780077272722
sg14
VRizzoni (Db*)
p2809
sg16
VOptional
p2810
sg18
F77.0
sg19
Nsg21
Nsasg33
V367632
p2811
sg35
VE-01
p2812
sasg33
V97895
p2813
sg35
VECE231
p2814
sa(dp2815
g5
(lp2816
(dp2817
g8
VLIN
p2818
sg10
(lp2819
(dp2820
g13
I9780132165419
sg14
VDeitel
p2821
sg16
VRequired
p2822
sg18
F124.0
sg19
VPaperback
p2823
sg21
g66
sa(dp2824
g13
I9780132177412
sg14
VDeitel (Db*)
p2825
sg16
VOptional
p2826
sg18
F50.0
sg19
VEbook
p2827
sg21
g66
sasg33
V367634
p2828
sg35
VE-01
p2829
sasg33
V97897
p2830
sg35
VECE256
p2831
sa(dp2832
g5
(lp2833
(dp2834
g8
VCHANDRA
p2835
sg10
(lp2836
(dp2837
g13
I9780470108772
sg14
VGilat
p2838
sg16
VRequired
p2839
sg18
F88.0
sg19
VPaperback
p2840
sg21
g100
sa(dp2841
g13
I9780470283059
sg14
VGilat (Db*)
p2842
sg16
VOptional
p2843
sg18
F44.5
sg19
VEbook
p2844
sg21
g100
sasg33
V367635
p2845
sg35
VE-01
p2846
sasg33
V97898
p2847
sg35
VECE257
p2848
sa(dp2849
g5
(lp2850
(dp2851
g8
VSACCO,
p2852
sg10
(lp2853
(dp2854
g13
I9780201566116
sg14
VCheng
p2855
sg16
VRequired
p2856
sg18
F174.4
sg19
Nsg21
Nsasg33
V367636
p2857
sg35
VE-01
p2858
sa(dp2859
g8
VKETSEOGLOU
p2860
sg10
(lp2861
(dp2862
g13
I9780201566116
sg14
VCheng
p2863
sg16
VRequired
p2864
sg18
F174.4
sg19
Nsg21
Nsasg33
V367637
p2865
sg35
VE-02
p2866
sasg33
V97899
p2867
sg35
VECE302
p2868
sa(dp2869
g5
(lp2870
(dp2871
g8
VLIN
p2872
sg10
(lp2873
sg33
V367638
p2874
sg35
VE-01
p2875
sasg33
V97947
p2876
sg35
VECE304
p2877
sa(dp2878
g5
(lp2879
(dp2880
g8
VCHENG
p2881
sg10
(lp2882
(dp2883
g13
I9780131873742
sg14
VProakis
p2884
sg16
VRequired
p2885
sg18
F165.0
sg19
VHardback
p2886
sg21
g524
sasg33
V367639
p2887
sg35
VE-01
p2888
sa(dp2889
g8
VKETSEOGLOU
p2890
sg10
(lp2891
(dp2892
g13
I9780131873742
sg14
VProakis
p2893
sg16
VRequired
p2894
sg18
F165.0
sg19
VHardback
p2895
sg21
g524
sasg33
V367640
p2896
sg35
VE-02
p2897
sasg33
V97900
p2898
sg35
VECE306
p2899
sa(dp2900
g5
(lp2901
(dp2902
g8
VALIYAZICIOGLU
p2903
sg10
(lp2904
(dp2905
g13
I9780077263195
sg14
VAlexander
p2906
sg16
VRequired
p2907
sg18
F196.25
sg19
VHardback
p2908
sg21
g524
sasg33
V367643
p2909
sg35
VE-01
p2910
sasg33
V97902
p2911
sg35
VECE307
p2912
sa(dp2913
g5
(lp2914
(dp2915
g8
VCHENG
p2916
sg10
(lp2917
(dp2918
g13
I9780470547564
sg14
VNise
p2919
sg16
VRequired
p2920
sg18
F191.25
sg19
VHardback
p2921
sg21
g147
sa(dp2922
g13
I9780470926024
sg14
VNise (Db*)
p2923
sg16
VOptional
p2924
sg18
F102.5
sg19
VEbook
p2925
sg21
g147
sasg33
V367644
p2926
sg35
VE-01
p2927
sasg33
V97903
p2928
sg35
VECE309
p2929
sa(dp2930
g5
(lp2931
(dp2932
g8
VFERGUSON  JR
p2933
sg10
(lp2934
(dp2935
g13
I9780471272144
sg14
VYates
p2936
sg16
VRequired
p2937
sg18
F167.5
sg19
VCloth
p2938
sg21
g447
sa(dp2939
g13
I9780470592526
sg14
VYates (Db*)
p2940
sg16
VOptional
p2941
sg18
F93.5
sg19
VEbook
p2942
sg21
g447
sasg33
V367646
p2943
sg35
VE-01
p2944
sa(dp2945
g8
VKETSEOGLOU
p2946
sg10
(lp2947
(dp2948
g13
I9780471272144
sg14
VYates
p2949
sg16
VRequired
p2950
sg18
F167.5
sg19
VCloth
p2951
sg21
g447
sa(dp2952
g13
I9780470592526
sg14
VYates (Db*)
p2953
sg16
VOptional
p2954
sg18
F93.5
sg19
VEbook
p2955
sg21
g447
sasg33
V367647
p2956
sg35
VE-02
p2957
sasg33
V97905
p2958
sg35
VECE315
p2959
sa(dp2960
g5
(lp2961
(dp2962
g8
VCOCKRUM
p2963
sg10
(lp2964
(dp2965
g13
I9780073380452
sg14
VJaeger
p2966
sg16
VRequired
p2967
sg18
F188.15
sg19
VHardback
p2968
sg21
g524
sa(dp2969
g13
I9780077330040
sg14
VJaeger (Db*)
p2970
sg16
VOptional
p2971
sg18
F105.5
sg19
VEbook
p2972
sg21
g524
sasg33
V367648
p2973
sg35
VE-01
p2974
sasg33
V97906
p2975
sg35
VECE320
p2976
sa(dp2977
g5
(lp2978
(dp2979
g8
VOLSON
p2980
sg10
(lp2981
(dp2982
g13
I9780072283655
sg14
VHodges
p2983
sg16
VRequired
p2984
sg18
F213.15
sg19
VHardback
p2985
sg21
g100
sasg33
V367651
p2986
sg35
VE-01
p2987
sasg33
V97908
p2988
sg35
VECE325
p2989
sa(dp2990
g5
(lp2991
(dp2992
g8
VOLSON
p2993
sg10
(lp2994
(dp2995
g13
I9780201543933
sg14
VPierret
p2996
sg16
VRequired
p2997
sg18
F149.0
sg19
Nsg21
Nsasg33
V367653
p2998
sg35
VE-01
p2999
sasg33
V97910
p3000
sg35
VECE330
p3001
sa(dp3002
g5
(lp3003
(dp3004
g8
VRAFIQUZZAMAN
p3005
sg10
(lp3006
sg33
V367654
p3007
sg35
VE-01
p3008
sasg33
V97911
p3009
sg35
VECE341
p3010
sa(dp3011
g5
(lp3012
(dp3013
g8
VRAFIQUZZAMAN,
p3014
sg10
(lp3015
(dp3016
g13
I9780470380314
sg14
VRafiquzzaman
p3017
sg16
VRequired
p3018
sg18
F144.0
sg19
Nsg21
Nsasg33
V367656
p3019
sg35
VE-01
p3020
sasg33
V97913
p3021
sg35
VECE343
p3022
sa(dp3023
g5
(lp3024
(dp3025
g8
VMASSOUDI
p3026
sg10
(lp3027
sg33
V367658
p3028
sg35
VE-01
p3029
sasg33
V97948
p3030
sg35
VECE403
p3031
sa(dp3032
g5
(lp3033
(dp3034
g8
VALIYAZICIOGLU
p3035
sg10
(lp3036
sg33
V367659
p3037
sg35
VE-01
p3038
sasg33
V97915
p3039
sg35
VECE405
p3040
sa(dp3041
g5
(lp3042
(dp3043
g8
VKANG
p3044
sg10
(lp3045
(dp3046
g13
I9780131873742
sg14
VProakis
p3047
sg16
VRequired
p3048
sg18
F165.0
sg19
VHardback
p3049
sg21
g524
sasg33
V367661
p3050
sg35
VE-01
p3051
sasg33
V97917
p3052
sg35
VECE408
p3053
sa(dp3054
g5
(lp3055
(dp3056
g8
VLIN
p3057
sg10
(lp3058
(dp3059
g13
I9780132575669
sg14
VDeitel
p3060
sg16
VRequired
p3061
sg18
F126.55
sg19
VPaperback
p3062
sg21
g1017
sa(dp3063
g13
I9780132625043
sg14
VDeitel (Db*)
p3064
sg16
VOptional
p3065
sg18
F54.0
sg19
VEbook
p3066
sg21
g1017
sasg33
V367662
p3067
sg35
VE-01
p3068
sasg33
V97918
p3069
sg35
VECE429
p3070
sa(dp3071
g5
(lp3072
(dp3073
g8
VCOCKRUM
p3074
sg10
(lp3075
sg33
V367663
p3076
sg35
VE-01
p3077
sa(dp3078
g8
VALIYAZICIOGLU
p3079
sg10
(lp3080
sg33
V367664
p3081
sg35
VE-02
p3082
sasg33
V97919
p3083
sg35
VECE464
p3084
sa(dp3085
g5
(lp3086
(dp3087
g8
VMONEMI
p3088
sg10
(lp3089
sg33
V380106
p3090
sg35
V01
p3091
sasg33
V99499
p3092
sg35
VECE480
p3093
sa(dp3094
g5
(lp3095
(dp3096
g8
VFERGUSON  JR
p3097
sg10
(lp3098
sg33
V367619
p3099
sg35
VE-01
p3100
sasg33
V97883
p3101
sg35
VECE109L
p3102
sa(dp3103
g5
(lp3104
(dp3105
g8
VMONEMI
p3106
sg10
(lp3107
sg33
V367621
p3108
sg35
VE-01
p3109
sasg33
V97885
p3110
sg35
VECE114L
p3111
sa(dp3112
g5
(lp3113
(dp3114
g8
VSACCO
p3115
sg10
(lp3116
sg33
V367624
p3117
sg35
VE-01
p3118
sasg33
V97888
p3119
sg35
VECE205L
p3120
sa(dp3121
g5
(lp3122
(dp3123
g8
VALIYAZICIOGLU
p3124
sg10
(lp3125
sg33
V367626
p3126
sg35
VE-01
p3127
sasg33
V97890
p3128
sg35
VECE207L
p3129
sa(dp3130
g5
(lp3131
(dp3132
g8
VKANG
p3133
sg10
(lp3134
sg33
V367628
p3135
sg35
VE-01
p3136
sasg33
V97892
p3137
sg35
VECE209L
p3138
sa(dp3139
g5
(lp3140
(dp3141
g8
VMASSOUDI
p3142
sg10
(lp3143
sg33
V367630
p3144
sg35
VE-01
p3145
sa(dp3146
g8
VMASSOUDI,
p3147
sg10
(lp3148
sg33
V367631
p3149
sg35
VE-02
p3150
sasg33
V97894
p3151
sg35
VECE220L
p3152
sa(dp3153
g5
(lp3154
(dp3155
g8
VMONEMI
p3156
sg10
(lp3157
sg33
V367633
p3158
sg35
VE-01
p3159
sasg33
V97896
p3160
sg35
VECE231L
p3161
sa(dp3162
g5
(lp3163
(dp3164
g8
VCHENG
p3165
sg10
(lp3166
sg33
V367641
p3167
sg35
VE-01
p3168
sa(dp3169
g8
VALIYAZICIOGLU
p3170
sg10
(lp3171
sg33
V367642
p3172
sg35
VE-02
p3173
sasg33
V97901
p3174
sg35
VECE306L
p3175
sa(dp3176
g5
(lp3177
(dp3178
g8
VKANG
p3179
sg10
(lp3180
sg33
V367645
p3181
sg35
VE-01
p3182
sasg33
V97904
p3183
sg35
VECE309L
p3184
sa(dp3185
g5
(lp3186
(dp3187
g8
VMASSOUDI
p3188
sg10
(lp3189
sg33
V367649
p3190
sg35
VE-01
p3191
sa(dp3192
g8
VMASSOUDI,
p3193
sg10
(lp3194
sg33
V367650
p3195
sg35
VE-02
p3196
sasg33
V97907
p3197
sg35
VECE320L
p3198
sa(dp3199
g5
(lp3200
(dp3201
g8
VOLSON
p3202
sg10
(lp3203
sg33
V367652
p3204
sg35
VE-01
p3205
sasg33
V97909
p3206
sg35
VECE325L
p3207
sa(dp3208
g5
(lp3209
(dp3210
g8
VRAFIQUZZAMAN
p3211
sg10
(lp3212
sg33
V367655
p3213
sg35
VE-01
p3214
sasg33
V97912
p3215
sg35
VECE341L
p3216
sa(dp3217
g5
(lp3218
(dp3219
g8
VRAFIQUZZAMAN,
p3220
sg10
(lp3221
sg33
V367657
p3222
sg35
VE-01
p3223
sasg33
V97914
p3224
sg35
VECE343L
p3225
sa(dp3226
g5
(lp3227
(dp3228
g8
VKETSEOGLOU
p3229
sg10
(lp3230
sg33
V367660
p3231
sg35
VE-01
p3232
sasg33
V97916
p3233
sg35
VECE405L
p3234
sasg406
VECE
p3235
sg33
V4774
p3236
sg35
VELEC & COMP ENGR
p3237
sa(dp3238
g2
(lp3239
(dp3240
g5
(lp3241
(dp3242
g8
VLaubie
p3243
sg10
(lp3244
(dp3245
g13
I9780072866377
sg14
VTaylor
p3246
sg16
VRequired
p3247
sg18
F141.25
sg19
Nsg21
Nsa(dp3248
g13
I9780077267322
sg14
VTaylor (Db*)
p3249
sg16
VOptional
p3250
sg18
F79.25
sg19
Nsg21
Nsasg33
V367665
p3251
sg35
VE-01
p3252
sasg33
V97930
p3253
sg35
VEDS403
p3254
sasg406
VEDS
p3255
sg33
V4834
p3256
sg35
VEDUCATION SPECIALIST
p3257
sa(dp3258
g2
(lp3259
(dp3260
g5
(lp3261
(dp3262
g8
VSTAFF
p3263
sg10
(lp3264
sg33
V367666
p3265
sg35
VE-01
p3266
sasg33
V97949
p3267
sg35
VEDU510
p3268
sa(dp3269
g5
(lp3270
(dp3271
g8
VSTAFF
p3272
sg10
(lp3273
sg33
V367668
p3274
sg35
VE-01
p3275
sasg33
V97920
p3276
sg35
VEDU520
p3277
sa(dp3278
g5
(lp3279
(dp3280
g8
VSTAFF
p3281
sg10
(lp3282
sg33
V367667
p3283
sg35
VE-01
p3284
sasg33
V97950
p3285
sg35
VEDU510A
p3286
sasg406
VEDU
p3287
sg33
V4812
p3288
sg35
VEDUC LEADERSHIP
p3289
sa(dp3290
g2
(lp3291
(dp3292
g5
(lp3293
(dp3294
g8
VDAVIS JR
p3295
sg10
(lp3296
(dp3297
g13
I9780451191137
sg14
VRand
p3298
sg16
VRequired
p3299
sg18
F8.0
sg19
Nsg21
Nsasg33
V367669
p3300
sg35
VE-01
p3301
sa(dp3302
g8
VDAVIS JR
p3303
sg10
(lp3304
(dp3305
g13
I9780451191137
sg14
VRand
p3306
sg16
VRequired
p3307
sg18
F8.0
sg19
Nsg21
Nsasg33
V367670
p3308
sg35
VE-02
p3309
sasg33
V97921
p3310
sg35
VEGR402
p3311
sa(dp3312
g5
(lp3313
(dp3314
g8
VABOLFAZLI
p3315
sg10
(lp3316
(dp3317
g13
I9780199836765
sg14
VNewnan*
p3318
sg16
VRequired
p3319
sg18
F120.0
sg19
VKit/Set/Package
p3320
sg21
V11
p3321
sa(dp3322
g13
I9780199778126
sg14
VNewnan
p3323
sg16
VPart of Set
p3324
sg18
F120.0
sg19
VHardback
p3325
sg21
V11
p3326
sa(dp3327
g13
I9780199778195
sg14
VNewnan
p3328
sg16
VPart of Set
p3329
sg18
F19.95
sg19
VPaperback
p3330
sg21
V11
p3331
sasg33
V367671
p3332
sg35
VE-01
p3333
sasg33
V97922
p3334
sg35
VEGR403
p3335
sa(dp3336
g5
(lp3337
(dp3338
g8
VTULACZ
p3339
sg10
(lp3340
(dp3341
g13
I9781888689136
sg14
VJosephson
p3342
sg16
VRequired
p3343
sg18
F17.3
sg19
Nsg21
Nsasg33
V379888
p3344
sg35
VE-01
p3345
sasg33
V99387
p3346
sg35
VEGR445
p3347
sasg406
VEGR
p3348
sg33
V4817
p3349
sg35
VENGINEERING
p3350
sa(dp3351
g2
(lp3352
(dp3353
g5
(lp3354
(dp3355
g8
VStaff, Staff
p3356
sg10
(lp3357
(dp3358
g13
I9780132409667
sg14
VAzar
p3359
sg16
VRequired
p3360
sg18
F58.35
sg19
VPaperback
p3361
sg21
g100
sa(dp3362
g13
I9780131995574
sg14
VButler
p3363
sg16
VRequired
p3364
sg18
F46.8
sg19
Nsg21
Nsa(dp3365
g13
I9780521858137
sg14
VRichards*
p3366
sg16
VRequired
p3367
sg18
F40.8
sg19
Nsg21
Nsasg33
V379828
p3368
sg35
VREF
p3369
sasg33
V99360
p3370
sg35
VELI001
p3371
sa(dp3372
g5
(lp3373
(dp3374
g8
VStaff, Staff
p3375
sg10
(lp3376
(dp3377
g13
I9780132414883
sg14
VHogue
p3378
sg16
VRequired
p3379
sg18
F46.8
sg19
VPaperback
p3380
sg21
g447
sa(dp3381
g13
I9780132546485
sg14
VFuchs
p3382
sg16
VRequired
p3383
sg18
F58.0
sg19
VPaperback
p3384
sg21
g524
sa(dp3385
g13
I9780194756112
sg14
VBrooks
p3386
sg16
VRequired
p3387
sg18
F59.95
sg19
Nsg21
Nsa(dp3388
g13
I9780138143886
sg14
VJeffries
p3389
sg16
VRequired
p3390
sg18
F45.0
sg19
VPaperback
p3391
sg21
g524
sasg33
V379829
p3392
sg35
VREF
p3393
sasg33
V99361
p3394
sg35
VELI002
p3395
sa(dp3396
g5
(lp3397
(dp3398
g8
VStaff, Staff
p3399
sg10
(lp3400
(dp3401
g13
I9780132221504
sg14
VDingle
p3402
sg16
VRequired
p3403
sg18
F25.45
sg19
Nsg21
Nsa(dp3404
g13
I9780132546492
sg14
VFuchs
p3405
sg16
VRequired
p3406
sg18
F58.0
sg19
VPaperback
p3407
sg21
g524
sa(dp3408
g13
I9780131933958
sg14
VOshima
p3409
sg16
VRequired
p3410
sg18
F46.8
sg19
VPaperback
p3411
sg21
g100
sa(dp3412
g13
I9780194756129
sg14
VCraven
p3413
sg16
VRequired
p3414
sg18
F59.95
sg19
Nsg21
Nsa(dp3415
g13
I9780132089036
sg14
VJeffries
p3416
sg16
VRequired
p3417
sg18
F45.0
sg19
VPaperback
p3418
sg21
g100
sasg33
V379830
p3419
sg35
VREF
p3420
sasg33
V99362
p3421
sg35
VELI003
p3422
sa(dp3423
g5
(lp3424
(dp3425
g8
VStaff, Staff
p3426
sg10
(lp3427
(dp3428
g13
I9780131523593
sg14
VOshima
p3429
sg16
VRequired
p3430
sg18
F46.8
sg19
VPaperback
p3431
sg21
g524
sa(dp3432
g13
I9780132431781
sg14
VDingle
p3433
sg16
VRequired
p3434
sg18
F25.45
sg19
Nsg21
Nsa(dp3435
g13
I9780132546508
sg14
VMaurer
p3436
sg16
VRequired
p3437
sg18
F58.0
sg19
VPaperback
p3438
sg21
g524
sa(dp3439
g13
I9780131990272
sg14
VMikulecky
p3440
sg16
VRequired
p3441
sg18
F45.0
sg19
Nsg21
Nsa(dp3442
g13
I9780194756136
sg14
VFreire
p3443
sg16
VRequired
p3444
sg18
F59.95
sg19
Nsg21
Nsasg33
V379831
p3445
sg35
VREF
p3446
sasg33
V99363
p3447
sg35
VELI004
p3448
sa(dp3449
g5
(lp3450
(dp3451
g8
VStaff, Staff
p3452
sg10
(lp3453
(dp3454
g13
I9780472088560
sg14
VSwales
p3455
sg16
VRequired
p3456
sg18
F23.95
sg19
VPaperback
p3457
sg21
g447
sa(dp3458
g13
I9780143114550
sg14
VKidd
p3459
sg16
VRequired
p3460
sg18
F15.0
sg19
Nsg21
Nsasg33
V379832
p3461
sg35
VREF
p3462
sasg33
V99364
p3463
sg35
VELI005
p3464
sa(dp3465
g5
(lp3466
(dp3467
g8
VStaff, Staff
p3468
sg10
(lp3469
(dp3470
g13
I9780062737335
sg14
VRavitch
p3471
sg16
VRequired
p3472
sg18
F20.0
sg19
Nsg21
Nsa(dp3473
g13
I9780312650315
sg14
VLunsford
p3474
sg16
VRequired
p3475
sg18
F28.65
sg19
VSpiral
p3476
sg21
g524
sasg33
V379833
p3477
sg35
VREF
p3478
sasg33
V99365
p3479
sg35
VELIBRIDGE
p3480
sasg406
VELI
p3481
sg33
V4777
p3482
sg35
VENGLISH LANG INST
p3483
sa(dp3484
g2
(lp3485
(dp3486
g5
(lp3487
(dp3488
g8
VSTAFF
p3489
sg10
(lp3490
sg33
V367672
p3491
sg35
VE-01
p3492
sa(dp3493
g8
VSTAFF
p3494
sg10
(lp3495
sg33
V367673
p3496
sg35
VE-02
p3497
sa(dp3498
g8
VSTAFF
p3499
sg10
(lp3500
sg33
V380191
p3501
sg35
VE-03
p3502
sasg33
V97923
p3503
sg35
VENG095
p3504
sa(dp3505
g5
(lp3506
(dp3507
g8
VSTAFF
p3508
sg10
(lp3509
sg33
V367674
p3510
sg35
VE-01
p3511
sa(dp3512
g8
VSTAFF
p3513
sg10
(lp3514
sg33
V367675
p3515
sg35
VE-02
p3516
sa(dp3517
g8
VSTAFF
p3518
sg10
(lp3519
sg33
V367676
p3520
sg35
VE-03
p3521
sa(dp3522
g8
VSTAFF
p3523
sg10
(lp3524
sg33
V367677
p3525
sg35
VE-04
p3526
sasg33
V97924
p3527
sg35
VENG096
p3528
sa(dp3529
g5
(lp3530
(dp3531
g8
VGRISWOLD
p3532
sg10
(lp3533
(dp3534
g13
I9781405820295
sg14
VLongman
p3535
sg16
VRequired
p3536
sg18
F51.75
sg19
Nsg21
Nsa(dp3537
g13
I9781413008456
sg14
VHouck
p3538
sg16
VRequired
p3539
sg18
F52.0
sg19
Nsg21
Nsasg33
V367678
p3540
sg35
VE-01
p3541
sa(dp3542
g8
VRUSSIKOFF
p3543
sg10
(lp3544
sg33
V367679
p3545
sg35
VE-02
p3546
sasg33
V97925
p3547
sg35
VENG098
p3548
sa(dp3549
g5
(lp3550
(dp3551
g8
VGRISWOLD
p3552
sg10
(lp3553
(dp3554
g13
I9781405820295
sg14
VLongman
p3555
sg16
VRequired
p3556
sg18
F51.75
sg19
Nsg21
Nsasg33
V367680
p3557
sg35
VE-01
p3558
sa(dp3559
g8
VRUSSIKOFF
p3560
sg10
(lp3561
sg33
V367681
p3562
sg35
VE-02
p3563
sasg33
V97926
p3564
sg35
VENG099
p3565
sa(dp3566
g5
(lp3567
(dp3568
g8
VSTAFF
p3569
sg10
(lp3570
sg33
V367682
p3571
sg35
VE-01
p3572
sa(dp3573
g8
VSTAFF
p3574
sg10
(lp3575
sg33
V367683
p3576
sg35
VE-02
p3577
sa(dp3578
g8
VSTAFF
p3579
sg10
(lp3580
sg33
V367684
p3581
sg35
VE-03
p3582
sasg33
V97927
p3583
sg35
VENG104
p3584
sa(dp3585
g5
(lp3586
(dp3587
g8
VSTAFF
p3588
sg10
(lp3589
sg33
V367685
p3590
sg35
VE-01
p3591
sa(dp3592
g8
VSTAFF
p3593
sg10
(lp3594
sg33
V367686
p3595
sg35
VE-02
p3596
sasg33
V97928
p3597
sg35
VENG105
p3598
sa(dp3599
g5
(lp3600
(dp3601
g8
VSTAFF
p3602
sg10
(lp3603
sg33
V367687
p3604
sg35
VE-01
p3605
sasg33
V97929
p3606
sg35
VENG201
p3607
sasg406
VENG
p3608
sg33
V4832
p3609
sg35
VENGLISH
p3610
sa(dp3611
g2
(lp3612
(dp3613
g5
(lp3614
(dp3615
g8
VSTAFF
p3616
sg10
(lp3617
sg33
V379872
p3618
sg35
VE-01
p3619
sa(dp3620
g8
VSTAFF
p3621
sg10
(lp3622
sg33
V379873
p3623
sg35
VE-02
p3624
sasg33
V99376
p3625
sg35
VESE5
p3626
sa(dp3627
g5
(lp3628
(dp3629
g8
VSTAFF
p3630
sg10
(lp3631
sg33
V380192
p3632
sg35
VE-01
p3633
sa(dp3634
g8
VSTAFF
p3635
sg10
(lp3636
sg33
V380193
p3637
sg35
VE-02
p3638
sa(dp3639
g8
VSTAFF
p3640
sg10
(lp3641
sg33
V380194
p3642
sg35
VE-03
p3643
sasg33
V100645
p3644
sg35
VESE095
p3645
sasg406
VESE
p3646
sg33
V4837
p3647
sg35
VESE
p3648
sa(dp3649
g2
(lp3650
(dp3651
g5
(lp3652
(dp3653
g8
VSTAFF
p3654
sg10
(lp3655
sg33
V380195
p3656
sg35
VE-01
p3657
sa(dp3658
g8
VSTAFF
p3659
sg10
(lp3660
sg33
V380196
p3661
sg35
VE-02
p3662
sasg33
V100646
p3663
sg35
VESM010
p3664
sa(dp3665
g5
(lp3666
(dp3667
g8
VSHIRLEY
p3668
sg10
(lp3669
sg33
V380197
p3670
sg35
VE-01
p3671
sa(dp3672
g8
VSHIRLEY
p3673
sg10
(lp3674
sg33
V380198
p3675
sg35
VE-02
p3676
sa(dp3677
g8
VSTAFF
p3678
sg10
(lp3679
sg33
V380199
p3680
sg35
VE-11
p3681
sa(dp3682
g8
VSTAFF
p3683
sg10
(lp3684
sg33
V380200
p3685
sg35
VE-21
p3686
sasg33
V100647
p3687
sg35
VESM011
p3688
sa(dp3689
g5
(lp3690
(dp3691
g8
VSTAFF
p3692
sg10
(lp3693
sg33
V380201
p3694
sg35
VE-01
p3695
sa(dp3696
g8
VGRIFFITH
p3697
sg10
(lp3698
sg33
V380202
p3699
sg35
VE-02
p3700
sa(dp3701
g8
VSTAFF
p3702
sg10
(lp3703
sg33
V380203
p3704
sg35
VE-11
p3705
sa(dp3706
g8
VSTAFF
p3707
sg10
(lp3708
sg33
V380204
p3709
sg35
VE-21
p3710
sasg33
V100648
p3711
sg35
VESM012
p3712
sasg406
VESM
p3713
sg33
V4838
p3714
sg35
VESM
p3715
sa(dp3716
g2
(lp3717
(dp3718
g5
(lp3719
(dp3720
g8
VBABIKIAN
p3721
sg10
(lp3722
sg33
V379874
p3723
sg35
VE-01
p3724
sasg33
V99371
p3725
sg35
VETC130
p3726
sa(dp3727
g5
(lp3728
(dp3729
g8
VBABIKIAN
p3730
sg10
(lp3731
sg33
V379876
p3732
sg35
VE-01
p3733
sasg33
V99373
p3734
sg35
VETC305
p3735
sa(dp3736
g5
(lp3737
(dp3738
g8
VSALEM
p3739
sg10
(lp3740
sg33
V380205
p3741
sg35
VE-01
p3742
sa(dp3743
g8
VSALEM
p3744
sg10
(lp3745
sg33
V379877
p3746
sg35
VE-11
p3747
sasg33
V99377
p3748
sg35
VETC311
p3749
sa(dp3750
g5
(lp3751
(dp3752
g8
VSALEM
p3753
sg10
(lp3754
sg33
V380107
p3755
sg35
VE-01
p3756
sa(dp3757
g8
VSALEM
p3758
sg10
(lp3759
sg33
V379878
p3760
sg35
VE-11
p3761
sasg33
V99374
p3762
sg35
VETC316
p3763
sa(dp3764
g5
(lp3765
(dp3766
g8
VSALEM
p3767
sg10
(lp3768
sg33
V380108
p3769
sg35
VE-01
p3770
sa(dp3771
g8
VSALEM
p3772
sg10
(lp3773
sg33
V379879
p3774
sg35
VE-11
p3775
sasg33
V99378
p3776
sg35
VETC499
p3777
sa(dp3778
g5
(lp3779
(dp3780
g8
VBABIKIAN
p3781
sg10
(lp3782
sg33
V379875
p3783
sg35
VE-01
p3784
sasg33
V99372
p3785
sg35
VETC130L
p3786
sasg406
VETC
p3787
sg33
V4833
p3788
sg35
VENGR TECH/CONSTRUCT
p3789
sa(dp3790
g2
(lp3791
(dp3792
g5
(lp3793
(dp3794
g8
VQAYYUM
p3795
sg10
(lp3796
sg33
V379880
p3797
sg35
VE-01
p3798
sasg33
V99375
p3799
sg35
VETE499
p3800
sa(dp3801
g5
(lp3802
(dp3803
g8
VQAYYUM
p3804
sg10
(lp3805
sg33
V379889
p3806
sg35
VE-01
p3807
sasg33
V99388
p3808
sg35
VETE499L
p3809
sasg406
VETE
p3810
sg33
V4781
p3811
sg35
VENGR TECH/ELECTRONIC
p3812
sa(dp3813
g2
(lp3814
(dp3815
g5
(lp3816
(dp3817
g8
VBABIKIAN
p3818
sg10
(lp3819
sg33
V379890
p3820
sg35
VE-01
p3821
sasg33
V99389
p3822
sg35
VETT210
p3823
sa(dp3824
g5
(lp3825
(dp3826
g8
VQAYYUM
p3827
sg10
(lp3828
sg33
V379891
p3829
sg35
VE-01
p3830
sasg33
V99390
p3831
sg35
VETT215
p3832
sa(dp3833
g5
(lp3834
(dp3835
g8
VSTAFF
p3836
sg10
(lp3837
sg33
V379893
p3838
sg35
VE-21
p3839
sasg33
V99392
p3840
sg35
VETT217
p3841
sa(dp3842
g5
(lp3843
(dp3844
g8
VSTAFF
p3845
sg10
(lp3846
sg33
V379894
p3847
sg35
V1
p3848
sa(dp3849
g8
VSTAFF
p3850
sg10
(lp3851
sg33
V379895
p3852
sg35
VE-21
p3853
sasg33
V99393
p3854
sg35
VETT220
p3855
sa(dp3856
g5
(lp3857
(dp3858
g8
VKAUSER
p3859
sg10
(lp3860
sg33
V379897
p3861
sg35
VE-01
p3862
sa(dp3863
g8
VKAUSER
p3864
sg10
(lp3865
sg33
V379898
p3866
sg35
VE-11
p3867
sasg33
V99395
p3868
sg35
VETT310
p3869
sa(dp3870
g5
(lp3871
(dp3872
g8
VSTAFF
p3873
sg10
(lp3874
sg33
V379900
p3875
sg35
VE-21
p3876
sasg33
V99397
p3877
sg35
VETT499
p3878
sa(dp3879
g5
(lp3880
(dp3881
g8
VQAYYUM
p3882
sg10
(lp3883
sg33
V379892
p3884
sg35
VE-01
p3885
sasg33
V99391
p3886
sg35
VETT215L
p3887
sa(dp3888
g5
(lp3889
(dp3890
g8
VSTAFF
p3891
sg10
(lp3892
sg33
V379896
p3893
sg35
VE-21
p3894
sasg33
V99394
p3895
sg35
VETT220L
p3896
sa(dp3897
g5
(lp3898
(dp3899
g8
VKAUSER
p3900
sg10
(lp3901
sg33
V379899
p3902
sg35
VE-11
p3903
sasg33
V99396
p3904
sg35
VETT310L
p3905
sasg406
VETT
p3906
sg33
V4818
p3907
sg35
VENGINEERING TECH
p3908
sa(dp3909
g2
(lp3910
(dp3911
g5
(lp3912
(dp3913
g8
VSTAFF
p3914
sg10
(lp3915
sg33
V367688
p3916
sg35
VE-01
p3917
sasg33
V97724
p3918
sg35
VEWS140
p3919
sa(dp3920
g5
(lp3921
(dp3922
g8
VSTAFF
p3923
sg10
(lp3924
sg33
V367689
p3925
sg35
VE-04
p3926
sasg33
V97725
p3927
sg35
VEWS375
p3928
sa(dp3929
g5
(lp3930
(dp3931
g8
VSTAFF
p3932
sg10
(lp3933
sg33
V367690
p3934
sg35
VE-O7
p3935
sasg33
V97726
p3936
sg35
VEWS402
p3937
sa(dp3938
g5
(lp3939
(dp3940
g8
VSTAFF
p3941
sg10
(lp3942
sg33
V367691
p3943
sg35
VE-O3
p3944
sasg33
V97951
p3945
sg35
VEWS407
p3946
sa(dp3947
g5
(lp3948
(dp3949
g8
VREESE
p3950
sg10
(lp3951
sg33
V367692
p3952
sg35
VE-O2
p3953
sasg33
V97727
p3954
sg35
VEWS499
p3955
sasg406
VEWS
p3956
sg33
V4695
p3957
sg35
VETHNIC & WOMEN'S ST
p3958
sa(dp3959
g2
(lp3960
(dp3961
g5
(lp3962
(dp3963
g8
VMATHIAS
p3964
sg10
(lp3965
(dp3966
g13
I9780470534786
sg14
VKimmel
p3967
sg16
VRequired
p3968
sg18
F230.0
sg19
VHardback
p3969
sg21
g524
sa(dp3970
g13
I9780470919859
sg14
VKimmel (Db*)
p3971
sg16
VOptional
p3972
sg18
F120.5
sg19
VEbook
p3973
sg21
g524
sasg33
V367693
p3974
sg35
VE-02
p3975
sasg33
V97728
p3976
sg35
VFMA224
p3977
sasg406
VFMA
p3978
sg33
V4697
p3979
sg35
VFOOD MKTNG & AGRIB
p3980
sa(dp3981
g2
(lp3982
(dp3983
g5
(lp3984
(dp3985
g8
VGORDON
p3986
sg10
(lp3987
(dp3988
g13
I9780538736558
sg14
VHales
p3989
sg16
VRequired
p3990
sg18
F142.2
sg19
Nsg21
Nsa(dp3991
g13
I9781111180300
sg14
VHales (Db*)
p3992
sg16
VOptional
p3993
sg18
F77.0
sg19
VEbook
p3994
sg21
g524
sasg33
V367694
p3995
sg35
VE-01
p3996
sa(dp3997
g8
VMazhar
p3998
sg10
(lp3999
(dp4000
g13
I9780538736558
sg14
VHales
p4001
sg16
VRequired
p4002
sg18
F142.2
sg19
Nsg21
Nsa(dp4003
g13
I9781111180300
sg14
VHales (Db*)
p4004
sg16
VOptional
p4005
sg18
F77.0
sg19
VEbook
p4006
sg21
g524
sasg33
V367695
p4007
sg35
VE-02
p4008
sasg33
V97729
p4009
sg35
VFN203
p4010
sa(dp4011
g5
(lp4012
(dp4013
g8
VWALLACE
p4014
sg10
(lp4015
(dp4016
g13
I9780495115410
sg14
VKittler
p4017
sg16
VRequired
p4018
sg18
F139.4
sg19
VPaperback
p4019
sg21
g355
sa(dp4020
g13
I9780495588214
sg14
VKittler (Db*)
p4021
sg16
VOptional
p4022
sg18
F75.5
sg19
VEbook
p4023
sg21
g355
sasg33
V367696
p4024
sg35
VE-01
p4025
sa(dp4026
g8
VSTAFF
p4027
sg10
(lp4028
(dp4029
g13
I9780495115410
sg14
VKittler
p4030
sg16
VRequired
p4031
sg18
F139.4
sg19
VPaperback
p4032
sg21
g355
sa(dp4033
g13
I9780495588214
sg14
VKittler (Db*)
p4034
sg16
VOptional
p4035
sg18
F75.5
sg19
VEbook
p4036
sg21
g355
sasg33
V367697
p4037
sg35
VE-02
p4038
sa(dp4039
g8
VIlkay
p4040
sg10
(lp4041
(dp4042
g13
I9780495115410
sg14
VKittler
p4043
sg16
VRequired
p4044
sg18
F139.4
sg19
VPaperback
p4045
sg21
g355
sa(dp4046
g13
I9780495588214
sg14
VKittler (Db*)
p4047
sg16
VOptional
p4048
sg18
F75.5
sg19
VEbook
p4049
sg21
g355
sasg33
V367698
p4050
sg35
VE-23
p4051
sasg33
V97730
p4052
sg35
VFN228
p4053
sa(dp4054
g5
(lp4055
(dp4056
g8
VMCCABE
p4057
sg10
(lp4058
(dp4059
g13
I9781449675226
sg14
VInsel
p4060
sg16
VRequired
p4061
sg18
F149.05
sg19
VHardback
p4062
sg21
g524
sasg33
V367699
p4063
sg35
VE-01
p4064
sasg33
V97731
p4065
sg35
VFN235
p4066
sa(dp4067
g5
(lp4068
(dp4069
g8
VIlkay
p4070
sg10
(lp4071
(dp4072
g13
I9781133159377
sg14
VSizer*
p4073
sg16
VRequired
p4074
sg18
F126.25
sg19
VKit/Set/Package
p4075
sg21
V12
p4076
sa(dp4077
g13
I9780757594212
sg14
VIlkay
p4078
sg16
VOptional
p4079
sg18
F38.0
sg19
Nsg21
Nsa(dp4080
g13
I9780538495080
sg14
VEsha Research
p4081
sg16
VPart of Set
p4082
sg18
F47.35
sg19
Nsg21
Nsa(dp4083
g13
I9781133153337
sg14
VSizer
p4084
sg16
VPart of Set
p4085
sg18
F110.6
sg19
VLooseleaf
p4086
sg21
V12
p4087
sasg33
V367700
p4088
sg35
VE-01
p4089
sa(dp4090
g8
VMazhar
p4091
sg10
(lp4092
(dp4093
g13
I9781133159377
sg14
VSizer*
p4094
sg16
VRequired
p4095
sg18
F126.25
sg19
VKit/Set/Package
p4096
sg21
V12
p4097
sa(dp4098
g13
I9780538495080
sg14
VEsha Research
p4099
sg16
VPart of Set
p4100
sg18
F47.35
sg19
Nsg21
Nsa(dp4101
g13
I9781133153337
sg14
VSizer
p4102
sg16
VPart of Set
p4103
sg18
F110.6
sg19
VLooseleaf
p4104
sg21
V12
p4105
sasg33
V367701
p4106
sg35
VE-02
p4107
sa(dp4108
g8
VGORDON
p4109
sg10
(lp4110
(dp4111
g13
I9781133159377
sg14
VSizer*
p4112
sg16
VRequired
p4113
sg18
F126.25
sg19
VKit/Set/Package
p4114
sg21
V12
p4115
sa(dp4116
g13
I9780538495080
sg14
VEsha Research
p4117
sg16
VPart of Set
p4118
sg18
F47.35
sg19
Nsg21
Nsa(dp4119
g13
I9781133153337
sg14
VSizer
p4120
sg16
VPart of Set
p4121
sg18
F110.6
sg19
VLooseleaf
p4122
sg21
V12
p4123
sasg33
V367702
p4124
sg35
VE-23
p4125
sasg33
V97732
p4126
sg35
VFN305
p4127
sa(dp4128
g5
(lp4129
(dp4130
g8
VSTAFF
p4131
sg10
(lp4132
sg33
V379822
p4133
sg35
VE-01
p4134
sa(dp4135
g8
VSTAFF
p4136
sg10
(lp4137
sg33
V379823
p4138
sg35
VE-02
p4139
sa(dp4140
g8
VSTAFF
p4141
sg10
(lp4142
sg33
V379824
p4143
sg35
VE-03
p4144
sasg33
V99354
p4145
sg35
VFN694
p4146
sa(dp4147
g5
(lp4148
(dp4149
g8
VSTAFF
p4150
sg10
(lp4151
sg33
V379825
p4152
sg35
VE-01
p4153
sasg33
V99355
p4154
sg35
VFN696
p4155
sasg406
VFN
p4156
sg33
V4698
p4157
sg35
VFOODS & NUTRITION
p4158
sa(dp4159
g2
(lp4160
(dp4161
g5
(lp4162
(dp4163
g8
VPEREZ
p4164
sg10
(lp4165
(dp4166
g13
I9780538470827
sg14
VClarkson
p4167
sg16
VRequired
p4168
sg18
F255.65
sg19
VHardback
p4169
sg21
V12
p4170
sa(dp4171
g13
I9780495991649
sg14
VClarkson
p4172
sg16
VRequired
p4173
sg18
F0.0
sg19
VPaperback
p4174
sg21
V12
p4175
sa(dp4176
g13
I9781111547295
sg14
VClarkson (Db*)
p4177
sg16
VOptional
p4178
sg18
F138.0
sg19
VEbook
p4179
sg21
V12
p4180
sasg33
V379901
p4181
sg35
VE-01
p4182
sasg33
V97733
p4183
sg35
VFRL201
p4184
sa(dp4185
g5
(lp4186
(dp4187
g8
VSTAFF
p4188
sg10
(lp4189
(dp4190
g13
I9780077694913
sg14
VRoss*
p4191
sg16
VRequired
p4192
sg18
F0.0
sg19
VLooseleaf
p4193
sg21
V10
p4194
sa(dp4195
g13
I9780077694968
sg14
VMcgraw
p4196
sg16
VPart of Set
p4197
sg18
F52.95
sg19
Nsg21
Nsasg33
V379902
p4198
sg35
VE-01
p4199
sa(dp4200
g8
VSTAFF
p4201
sg10
(lp4202
(dp4203
g13
I9780077694913
sg14
VRoss*
p4204
sg16
VRequired
p4205
sg18
F0.0
sg19
VLooseleaf
p4206
sg21
V10
p4207
sa(dp4208
g13
I9780077694968
sg14
VMcgraw
p4209
sg16
VPart of Set
p4210
sg18
F52.95
sg19
Nsg21
Nsasg33
V379903
p4211
sg35
VE-02
p4212
sasg33
V97734
p4213
sg35
VFRL300
p4214
sa(dp4215
g5
(lp4216
(dp4217
g8
VMCCLURE
p4218
sg10
(lp4219
(dp4220
g13
I9780077954079
sg14
VRoss* (Sw2)
p4221
sg16
VRequired
p4222
sg18
F137.0
sg19
VKit/Set/Package
p4223
sg21
g1017
sa(dp4224
g13
I9780077296483
sg14
VRoss (Db*)
p4225
sg16
VOptional
p4226
sg18
F122.75
sg19
Nsg21
Nsa(dp4227
g13
I9780077246129
sg14
VRoss
p4228
sg16
VPart of Set
p4229
sg18
F176.25
sg19
VHardback
p4230
sg21
g1017
sa(dp4231
g13
I9780077326869
sg14
VRoss
p4232
sg16
VPart of Set
p4233
sg18
F58.8
sg19
VAccess Code
p4234
sg21
g1017
sasg33
V379904
p4235
sg35
VE-01
p4236
sa(dp4237
g8
VKASHEFINEJAD
p4238
sg10
(lp4239
(dp4240
g13
I9780077954079
sg14
VRoss* (Sw2)
p4241
sg16
VRequired
p4242
sg18
F137.0
sg19
VKit/Set/Package
p4243
sg21
g1017
sa(dp4244
g13
I9780077296483
sg14
VRoss (Db*)
p4245
sg16
VOptional
p4246
sg18
F122.75
sg19
Nsg21
Nsa(dp4247
g13
I9780077246129
sg14
VRoss
p4248
sg16
VPart of Set
p4249
sg18
F176.25
sg19
VHardback
p4250
sg21
g1017
sa(dp4251
g13
I9780077326869
sg14
VRoss
p4252
sg16
VPart of Set
p4253
sg18
F58.8
sg19
VAccess Code
p4254
sg21
g1017
sasg33
V379905
p4255
sg35
VE-02
p4256
sasg33
V97735
p4257
sg35
VFRL301
p4258
sa(dp4259
g5
(lp4260
(dp4261
g8
VYOUNG
p4262
sg10
(lp4263
(dp4264
g13
I9780538470827
sg14
VClarkson
p4265
sg16
VRequired
p4266
sg18
F255.65
sg19
VHardback
p4267
sg21
V12
p4268
sa(dp4269
g13
I9780495991649
sg14
VClarkson
p4270
sg16
VRequired
p4271
sg18
F0.0
sg19
VPaperback
p4272
sg21
V12
p4273
sa(dp4274
g13
I9781111547295
sg14
VClarkson (Db*)
p4275
sg16
VOptional
p4276
sg18
F138.0
sg19
VEbook
p4277
sg21
V12
p4278
sasg33
V379906
p4279
sg35
VE-01
p4280
sasg33
V97736
p4281
sg35
VFRL302
p4282
sa(dp4283
g5
(lp4284
(dp4285
g8
VSTAFF
p4286
sg10
(lp4287
(dp4288
g13
I9780073377322
sg14
VLing
p4289
sg16
VRequired
p4290
sg18
F160.0
sg19
VHardback
p4291
sg21
g100
sa(dp4292
g13
I9780077296353
sg14
VLing (Db*)
p4293
sg16
VOptional
p4294
sg18
F92.5
sg19
VEbook
p4295
sg21
g100
sasg33
V379907
p4296
sg35
VE-01
p4297
sasg33
V97737
p4298
sg35
VFRL306
p4299
sa(dp4300
g5
(lp4301
(dp4302
g8
VSARMAS
p4303
sg10
(lp4304
(dp4305
g13
I9780077606794
sg14
VRoss*
p4306
sg16
VRequired
p4307
sg18
F255.0
sg19
VKit/Set/Package
p4308
sg21
g1017
sa(dp4309
g13
I9780077296384
sg14
VRoss (Db*)
p4310
sg16
VOptional
p4311
sg18
F127.25
sg19
VEbook
p4312
sg21
g1017
sa(dp4313
g13
I9780077333386
sg14
VRoss
p4314
sg16
VPart of Set
p4315
sg18
F94.1
sg19
Nsg21
Nsa(dp4316
g13
I9780073382333
sg14
VRoss
p4317
sg16
VPart of Set
p4318
sg18
F228.75
sg19
VHardback
p4319
sg21
g1017
sasg33
V379908
p4320
sg35
VE-01
p4321
sasg33
V97738
p4322
sg35
VFRL367
p4323
sa(dp4324
g5
(lp4325
(dp4326
g8
VWelke
p4327
sg10
(lp4328
(dp4329
g13
I9780073377339
sg14
VBrueggeman
p4330
sg16
VRequired
p4331
sg18
F185.3
sg19
VHardback
p4332
sg21
V14
p4333
sa(dp4334
g13
I9780077375256
sg14
VBrueggeman (Db*)
p4335
sg16
VOptional
p4336
sg18
F107.0
sg19
VEbook
p4337
sg21
g524
sasg33
V379909
p4338
sg35
VE-01
p4339
sasg33
V99398
p4340
sg35
VFRL383
p4341
sa(dp4342
g5
(lp4343
(dp4344
g8
VKHOLDY -SABETY
p4345
sg10
(lp4346
(dp4347
g13
I9780262026284
sg14
VBenninga
p4348
sg16
VRequired
p4349
sg18
F92.0
sg19
VHardback
p4350
sg21
g100
sasg33
V379910
p4351
sg35
VE-01
p4352
sasg33
V97739
p4353
sg35
VFRL404
p4354
sa(dp4355
g5
(lp4356
(dp4357
g8
VSOLIS
p4358
sg10
(lp4359
(dp4360
g13
I9780324596168
sg14
VJentz
p4361
sg16
VRequired
p4362
sg18
F236.9
sg19
VHardback
p4363
sg21
V11
p4364
sa(dp4365
g13
I9781439028421
sg14
VJentz (Db*)
p4366
sg16
VOptional
p4367
sg18
F134.5
sg19
VEbook
p4368
sg21
VAL
p4369
sasg33
V379911
p4370
sg35
VE-01
p4371
sasg33
V97740
p4372
sg35
VFRL408
p4373
sa(dp4374
g5
(lp4375
(dp4376
g8
VYOUNG
p4377
sg10
(lp4378
(dp4379
g13
I9780538473613
sg14
VSchaffer
p4380
sg16
VRequired
p4381
sg18
F247.8
sg19
VHardback
p4382
sg21
g22
sa(dp4383
g13
I9781133835974
sg14
VSchaffer (Db*)
p4384
sg16
VOptional
p4385
sg18
F140.5
sg19
Nsg21
Nsasg33
V379912
p4386
sg35
VE-01
p4387
sasg33
V97741
p4388
sg35
VFRL426
p4389
sa(dp4390
g5
(lp4391
(dp4392
g8
VSARMAS
p4393
sg10
(lp4394
(dp4395
g13
I9781285217734
sg14
VBrigham/Klein
p4396
sg16
VRequired
p4397
sg18
F0.0
sg19
Nsg21
Nsasg33
V379913
p4398
sg35
VE-01
p4399
sasg33
V97742
p4400
sg35
VFRL440
p4401
sa(dp4402
g5
(lp4403
(dp4404
g8
VGHAZANFARI
p4405
sg10
(lp4406
(dp4407
g13
I9780078034671
sg14
VRose
p4408
sg16
VRequired
p4409
sg18
F201.9
sg19
VHardback
p4410
sg21
g1017
sa(dp4411
g13
I9780077410568
sg14
VRose (Db*)
p4412
sg16
VOptional
p4413
sg18
F113.25
sg19
VEbook
p4414
sg21
g1017
sasg33
V379914
p4415
sg35
VE-01
p4416
sasg33
V97952
p4417
sg35
VFRL460
p4418
sasg406
VFRL
p4419
sg33
V4805
p4420
sg35
VFIN REAL EST & LAW
p4421
sa(dp4422
g2
(lp4423
(dp4424
g5
(lp4425
(dp4426
g8
VSTAFF
p4427
sg10
(lp4428
(dp4429
g13
I9780073376226
sg14
VForouzan
p4430
sg16
VRequired
p4431
sg18
F170.65
sg19
VHardback
p4432
sg21
g355
sa(dp4433
g13
I9780077445386
sg14
VForouzan (Db*)
p4434
sg16
VOptional
p4435
sg18
F95.75
sg19
VEbook
p4436
sg21
g355
sasg33
V380449
p4437
sg35
VE-01
p4438
sasg33
V97743
p4439
sg35
VGBA557
p4440
sa(dp4441
g5
(lp4442
(dp4443
g8
VEdward
p4444
sg10
(lp4445
(dp4446
g13
I9780470740941
sg14
VLocke
p4447
sg16
VRequired
p4448
sg18
F75.0
sg19
VPaperback
p4449
sg21
g447
sasg33
V367718
p4450
sg35
VE-01
p4451
sasg33
V97744
p4452
sg35
VGBA615
p4453
sa(dp4454
g5
(lp4455
(dp4456
g8
VEdward
p4457
sg10
(lp4458
sg33
V367719
p4459
sg35
VE-01
p4460
sasg33
V97745
p4461
sg35
VGBA616
p4462
sa(dp4463
g5
(lp4464
(dp4465
g8
VHALATI
p4466
sg10
(lp4467
(dp4468
g13
I9781111532222
sg14
VAnderson
p4469
sg16
VRequired
p4470
sg18
F235.95
sg19
Nsg21
Nsa(dp4471
g13
I9781111916077
sg14
VAnderson (Db*)
p4472
sg16
VOptional
p4473
sg18
F148.0
sg19
VEbook
p4474
sg21
V13
p4475
sasg33
V367721
p4476
sg35
VE-01
p4477
sasg33
V97746
p4478
sg35
VGBA628
p4479
sa(dp4480
g5
(lp4481
(dp4482
g8
VHALATI
p4483
sg10
(lp4484
sg33
V367722
p4485
sg35
VE-01
p4486
sasg33
V97747
p4487
sg35
VGBA629
p4488
sa(dp4489
g5
(lp4490
(dp4491
g8
VMONCRIEF
p4492
sg10
(lp4493
(dp4494
g13
I9781412965576
sg14
VCreswell
p4495
sg16
VRequired
p4496
sg18
F75.0
sg19
VPaperback
p4497
sg21
g100
sasg33
V367725
p4498
sg35
VE-01
p4499
sasg33
V97750
p4500
sg35
VGBA683
p4501
sa(dp4502
g5
(lp4503
(dp4504
g8
VMONCRIEF
p4505
sg10
(lp4506
sg33
V367726
p4507
sg35
VE-01
p4508
sasg33
V97751
p4509
sg35
VGBA684
p4510
sa(dp4511
g5
(lp4512
(dp4513
g8
VRHODES
p4514
sg10
(lp4515
(dp4516
g13
I9781450068925
sg14
VRhodes
p4517
sg16
VRequired
p4518
sg18
F16.0
sg19
Nsg21
Nsa(dp4519
g13
I9780078112720
sg14
VThompson
p4520
sg16
VRequired
p4521
sg18
F218.15
sg19
VHardback
p4522
sg21
V18
p4523
sasg33
V367727
p4524
sg35
VE-01
p4525
sasg33
V97752
p4526
sg35
VGBA687
p4527
sa(dp4528
g5
(lp4529
(dp4530
g8
VRHODES
p4531
sg10
(lp4532
sg33
V367728
p4533
sg35
VE-01
p4534
sasg33
V97753
p4535
sg35
VGBA688
p4536
sasg406
VGBA
p4537
sg33
V4813
p4538
sg35
VGRADUATE BUS ADMIN
p4539
sa(dp4540
g2
(lp4541
(dp4542
g5
(lp4543
(dp4544
g8
VMCGARVEY
p4545
sg10
(lp4546
sg33
V367729
p4547
sg35
VE-01
p4548
sasg33
V97754
p4549
sg35
VGED400
p4550
sa(dp4551
g5
(lp4552
(dp4553
g8
VJACOBSEN
p4554
sg10
(lp4555
sg33
V367731
p4556
sg35
VE-01
p4557
sasg33
V97756
p4558
sg35
VGED532
p4559
sa(dp4560
g5
(lp4561
(dp4562
g8
VSTAFF
p4563
sg10
(lp4564
sg33
V367732
p4565
sg35
VE-01
p4566
sasg33
V97757
p4567
sg35
VGED550
p4568
sa(dp4569
g5
(lp4570
(dp4571
g8
VJACOBSEN
p4572
sg10
(lp4573
sg33
V367733
p4574
sg35
VE-01
p4575
sasg33
V97758
p4576
sg35
VGED690
p4577
sa(dp4578
g5
(lp4579
(dp4580
g8
VSTAFF
p4581
sg10
(lp4582
sg33
V367734
p4583
sg35
VE-01
p4584
sasg33
V97759
p4585
sg35
VGED691
p4586
sa(dp4587
g5
(lp4588
(dp4589
g8
VJACOBSEN
p4590
sg10
(lp4591
sg33
V367735
p4592
sg35
VE-01
p4593
sasg33
V97760
p4594
sg35
VGED693
p4595
sa(dp4596
g5
(lp4597
(dp4598
g8
VMCGARVEY
p4599
sg10
(lp4600
sg33
V367730
p4601
sg35
VE-01
p4602
sasg33
V97755
p4603
sg35
VGED400L
p4604
sasg406
VGED
p4605
sg33
V4702
p4606
sg35
VGRADUATE & PROF ST
p4607
sa(dp4608
g2
(lp4609
(dp4610
g5
(lp4611
(dp4612
g8
VNICOLL
p4613
sg10
(lp4614
(dp4615
g13
I9780470134863
sg14
VStrahler
p4616
sg16
VRequired
p4617
sg18
F145.0
sg19
VPaperback
p4618
sg21
g355
sa(dp4619
g13
I9780470416501
sg14
VStrahler (Db*)
p4620
sg16
VOptional
p4621
sg18
F70.5
sg19
VEbook
p4622
sg21
g355
sasg33
V367736
p4623
sg35
VE-01
p4624
sasg33
V97761
p4625
sg35
VGEO101
p4626
sa(dp4627
g5
(lp4628
(dp4629
g8
VPlatt
p4630
sg10
(lp4631
(dp4632
g13
I9780321769664
sg14
VKnox
p4633
sg16
VRequired
p4634
sg18
F137.05
sg19
VPaperback
p4635
sg21
g147
sa(dp4636
g13
I9780321821324
sg14
VKnox (Db*)
p4637
sg16
VOptional
p4638
sg18
F83.0
sg19
VEbook
p4639
sg21
g147
sasg33
V367737
p4640
sg35
VE-01
p4641
sasg33
V97762
p4642
sg35
VGEO102
p4643
sa(dp4644
g5
(lp4645
(dp4646
g8
VPlatt
p4647
sg10
(lp4648
(dp4649
g13
I9780757570605
sg14
VHyslop
p4650
sg16
VRequired
p4651
sg18
F79.95
sg19
Nsg21
Nsasg33
V367738
p4652
sg35
VE-01
p4653
sasg33
V97763
p4654
sg35
VGEO351
p4655
sasg406
VGEO
p4656
sg33
V4703
p4657
sg35
VGEOGRAPHY
p4658
sa(dp4659
g2
(lp4660
(dp4661
g5
(lp4662
(dp4663
g8
VROUMELIS
p4664
sg10
(lp4665
(dp4666
g13
I9780393935189
sg14
VMarshak
p4667
sg16
VRequired
p4668
sg18
F127.5
sg19
VPaperback
p4669
sg21
g524
sa(dp4670
g13
I9780393120660
sg14
VMarshak (Db*)
p4671
sg16
VOptional
p4672
sg18
F56.7
sg19
VEbook
p4673
sg21
g524
sasg33
V379915
p4674
sg35
VE-01
p4675
sasg33
V99379
p4676
sg35
VGSC321
p4677
sa(dp4678
g5
(lp4679
(dp4680
g8
VROUMELIS
p4681
sg10
(lp4682
(dp4683
g13
I9780757523687
sg14
VNourse
p4684
sg16
VRequired
p4685
sg18
F58.8
sg19
VPaperback
p4686
sg21
g447
sasg33
V379916
p4687
sg35
VE-01
p4688
sasg33
V99380
p4689
sg35
VGSC321L
p4690
sasg406
VGSC
p4691
sg33
V4811
p4692
sg35
VGEOLOGICAL SCIENCE
p4693
sa(dp4694
g2
(lp4695
(dp4696
g5
(lp4697
(dp4698
g8
VIrvin
p4699
sg10
(lp4700
sg33
V380206
p4701
sg35
VE-01
p4702
sasg33
V97764
p4703
sg35
VHST101
p4704
sa(dp4705
g5
(lp4706
(dp4707
g8
VARREOLA
p4708
sg10
(lp4709
(dp4710
g13
I9781121438767
sg14
VArreola
p4711
sg16
VRequired
p4712
sg18
F57.4
sg19
Nsg21
Nsasg33
V367740
p4713
sg35
VE-01
p4714
sa(dp4715
g8
VIrvin
p4716
sg10
(lp4717
sg33
V380209
p4718
sg35
VE-02
p4719
sasg33
V97765
p4720
sg35
VHST102
p4721
sa(dp4722
g5
(lp4723
(dp4724
g8
VMANSOUR
p4725
sg10
(lp4726
(dp4727
g13
I9780312666934
sg14
VMckay
p4728
sg16
VRequired
p4729
sg18
F110.65
sg19
VPaperback
p4730
sg21
g1017
sa(dp4731
g13
I9780312569792
sg14
VMckay (Db*)
p4732
sg16
VOptional
p4733
sg18
F52.0
sg19
VEbook
p4734
sg21
g1017
sasg33
V367742
p4735
sg35
VE-01
p4736
sasg33
V97766
p4737
sg35
VHST103
p4738
sa(dp4739
g5
(lp4740
(dp4741
g8
VBATES
p4742
sg10
(lp4743
sg33
V367743
p4744
sg35
VE-01
p4745
sasg33
V97767
p4746
sg35
VHST201
p4747
sa(dp4748
g5
(lp4749
(dp4750
g8
VHOIKKALA
p4751
sg10
(lp4752
(dp4753
g13
I9781256751274
sg14
VDivine*
p4754
sg16
VRequired
p4755
sg18
F0.0
sg19
VKit/Set/Package
p4756
sg21
g1017
sa(dp4757
g13
I9780205206544
sg14
VPearson
p4758
sg16
VPart of Set
p4759
sg18
F0.0
sg19
Nsg21
Nsa(dp4760
g13
I9780205723577
sg14
VDivine
p4761
sg16
VPart of Set
p4762
sg18
F0.0
sg19
VPaperback
p4763
sg21
g1017
sasg33
V367744
p4764
sg35
VE-02
p4765
sa(dp4766
g8
VBATES
p4767
sg10
(lp4768
sg33
V380446
p4769
sg35
VE-02C
p4770
sa(dp4771
g8
VMANSOUR
p4772
sg10
(lp4773
(dp4774
g13
I9780393130362
sg14
VFoner*
p4775
sg16
VRequired
p4776
sg18
F66.65
sg19
VKit/Set/Package
p4777
sg21
g100
sa(dp4778
g13
I9780393120301
sg14
VFoner (Db*)
p4779
sg16
VOptional
p4780
sg18
F22.25
sg19
VEbook
p4781
sg21
g100
sa(dp4782
g13
I9780393935684
sg14
VFoner
p4783
sg16
VPart of Set
p4784
sg18
F26.65
sg19
VPaperback
p4785
sg21
g100
sa(dp4786
g13
I9780393935530
sg14
VFoner
p4787
sg16
VPart of Set
p4788
sg18
F66.65
sg19
VPaperback
p4789
sg21
g100
sasg33
V367745
p4790
sg35
VE-03
p4791
sasg33
V97768
p4792
sg35
VHST202
p4793
sa(dp4794
g5
(lp4795
(dp4796
g8
VBATES
p4797
sg10
(lp4798
sg33
V367746
p4799
sg35
VE-01
p4800
sa(dp4801
g8
VHOIKKALA
p4802
sg10
(lp4803
(dp4804
g13
I9780618594962
sg14
VCherny/Chan*(Sw)
p4805
sg16
VRequired
p4806
sg18
F134.4
sg19
Nsg21
Nsa(dp4807
g13
I9780669275889
sg14
VChan
p4808
sg16
VPart of Set
p4809
sg18
F68.2
sg19
Nsg21
Nsa(dp4810
g13
I9780395959640
sg14
VCherny
p4811
sg16
VPart of Set
p4812
sg18
F130.0
sg19
Nsg21
Nsasg33
V367747
p4813
sg35
VE-02
p4814
sasg33
V97955
p4815
sg35
VHST370
p4816
sasg406
VHST
p4817
sg33
V4707
p4818
sg35
VHISTORY
p4819
sa(dp4820
g2
(lp4821
(dp4822
g5
(lp4823
(dp4824
g8
VMULYANTO
p4825
sg10
(lp4826
(dp4827
g13
I9780136090984
sg14
VCavusgil
p4828
sg16
VRequired
p4829
sg18
F187.5
sg19
VHardback
p4830
sg21
g447
sa(dp4831
g13
I9780136090724
sg14
VCavusgil (Db*)
p4832
sg16
VOptional
p4833
sg18
F80.0
sg19
VEbook
p4834
sg21
g447
sasg33
V367748
p4835
sg35
VE-01
p4836
sasg33
V97956
p4837
sg35
VIBM300
p4838
sa(dp4839
g5
(lp4840
(dp4841
g8
VMYERS
p4842
sg10
(lp4843
(dp4844
g13
I9780324789287
sg14
VLamb
p4845
sg16
VRequired
p4846
sg18
F54.95
sg19
Nsg21
Nsasg33
V367749
p4847
sg35
VE-01
p4848
sa(dp4849
g8
VBRYANT
p4850
sg10
(lp4851
(dp4852
g13
I9780132620000
sg14
VLevens*
p4853
sg16
VRequired
p4854
sg18
F66.45
sg19
VKit/Set/Package
p4855
sg21
g447
sa(dp4856
g13
I9780132177474
sg14
VLevens
p4857
sg16
VPart of Set
p4858
sg18
F57.2
sg19
VPaperback
p4859
sg21
g447
sa(dp4860
g13
I9780132175920
sg14
VPearson
p4861
sg16
VPart of Set
p4862
sg18
F96.0
sg19
VAccess Code
p4863
sg21
g447
sasg33
V367750
p4864
sg35
VE-02
p4865
sasg33
V97957
p4866
sg35
VIBM301
p4867
sa(dp4868
g5
(lp4869
(dp4870
g8
VVERCILLO
p4871
sg10
(lp4872
(dp4873
g13
I9780538467384
sg14
VFerrell
p4874
sg16
VRequired
p4875
sg18
F197.8
sg19
VPaperback
p4876
sg21
g355
sasg33
V367751
p4877
sg35
VE-01
p4878
sasg33
V97958
p4879
sg35
VIBM302
p4880
sa(dp4881
g5
(lp4882
(dp4883
g8
VASSUMMA
p4884
sg10
(lp4885
sg33
V367752
p4886
sg35
VE-01
p4887
sasg33
V97959
p4888
sg35
VIBM306
p4889
sa(dp4890
g5
(lp4891
(dp4892
g8
VSWARTZ
p4893
sg10
(lp4894
(dp4895
g13
I9780073404868
sg14
VBelch
p4896
sg16
VRequired
p4897
sg18
F203.15
sg19
VHardback
p4898
sg21
g1017
sa(dp4899
g13
I9780077325367
sg14
VBelch (Db*)
p4900
sg16
VOptional
p4901
sg18
F117.25
sg19
VEbook
p4902
sg21
g1017
sasg33
V367753
p4903
sg35
VE-01
p4904
sasg33
V97960
p4905
sg35
VIBM307
p4906
sa(dp4907
g5
(lp4908
(dp4909
g8
VVERCILLO
p4910
sg10
(lp4911
sg33
V367754
p4912
sg35
VE-01
p4913
sasg33
V97961
p4914
sg35
VIBM320
p4915
sa(dp4916
g5
(lp4917
(dp4918
g8
VMYERS
p4919
sg10
(lp4920
(dp4921
g13
I9780132147552
sg14
VStrauss
p4922
sg16
VRequired
p4923
sg18
F131.25
sg19
VPaperback
p4924
sg21
g147
sa(dp4925
g13
I9780132147613
sg14
VStrauss (Db*)
p4926
sg16
VOptional
p4927
sg18
F56.0
sg19
VEbook
p4928
sg21
g147
sasg33
V367755
p4929
sg35
VE-01
p4930
sasg33
V97962
p4931
sg35
VIBM403
p4932
sa(dp4933
g5
(lp4934
(dp4935
g8
VHOSSAIN
p4936
sg10
(lp4937
(dp4938
g13
I9780324305418
sg14
VChurchill
p4939
sg16
VRequired
p4940
sg18
F133.65
sg19
VHardback
p4941
sg21
g147
sasg33
V367756
p4942
sg35
VE-01
p4943
sasg33
V97963
p4944
sg35
VIBM408
p4945
sa(dp4946
g5
(lp4947
(dp4948
g8
VWHITSON
p4949
sg10
(lp4950
(dp4951
g13
I9780135053010
sg14
VSchiffman
p4952
sg16
VRequired
p4953
sg18
F203.0
sg19
VHardback
p4954
sg21
V10
p4955
sa(dp4956
g13
I9780135053072
sg14
VSchiffman (Db*)
p4957
sg16
VOptional
p4958
sg18
F85.0
sg19
VEbook
p4959
sg21
V10
p4960
sasg33
V367757
p4961
sg35
VE-01
p4962
sasg33
V97964
p4963
sg35
VIBM411
p4964
sa(dp4965
g5
(lp4966
(dp4967
g8
VROXAS
p4968
sg10
(lp4969
(dp4970
g13
I9780073529943
sg14
VCateora
p4971
sg16
VRequired
p4972
sg18
F210.65
sg19
VHardback
p4973
sg21
V15
p4974
sa(dp4975
g13
I9780077446963
sg14
VCateora (Db*)
p4976
sg16
VOptional
p4977
sg18
F112.25
sg19
VEbook
p4978
sg21
g355
sasg33
V367758
p4979
sg35
VE-01
p4980
sasg33
V97965
p4981
sg35
VIBM414
p4982
sa(dp4983
g5
(lp4984
(dp4985
g8
VOzkaya
p4986
sg10
(lp4987
(dp4988
g13
I9780160869532
sg14
VInternational Trade
p4989
sg16
VRequired
p4990
sg18
F0.0
sg19
Nsg21
Nsasg33
V367759
p4991
sg35
VE-01
p4992
sasg33
V97966
p4993
sg35
VIBM416
p4994
sa(dp4995
g5
(lp4996
(dp4997
g8
VASSUMMA
p4998
sg10
(lp4999
(dp5000
g13
I9780136107064
sg14
VKerin
p5001
sg16
VRequired
p5002
sg18
F206.25
sg19
VHardback
p5003
sg21
V12
p5004
sasg33
V367760
p5005
sg35
VE-01
p5006
sasg33
V97967
p5007
sg35
VIBM421
p5008
sa(dp5009
g5
(lp5010
(dp5011
g8
VSWARTZ
p5012
sg10
(lp5013
sg33
V379918
p5014
sg35
VE-01
p5015
sasg33
V99399
p5016
sg35
VIBM480
p5017
sasg406
VIBM
p5018
sg33
V4822
p5019
sg35
VINTERNL BUS & MARKET
p5020
sa(dp5021
g2
(lp5022
(dp5023
g5
(lp5024
(dp5025
g8
VLAMPHIER
p5026
sg10
(lp5027
(dp5028
g13
I9780553212471
sg14
VShelley
p5029
sg16
VRequired
p5030
sg18
F4.95
sg19
Nsg21
Nsa(dp5031
g13
I9780449220603
sg14
VPiercy
p5032
sg16
VRequired
p5033
sg18
F7.5
sg19
Nsg21
Nsasg33
V379919
p5034
sg35
VE-01
p5035
sasg33
V97968
p5036
sg35
VIGE320
p5037
sasg406
VIGE
p5038
sg33
V4712
p5039
sg35
VINTERDISPL GEN EDUC
p5040
sa(dp5041
g2
(lp5042
(dp5043
g5
(lp5044
(dp5045
g8
VCHASE
p5046
sg10
(lp5047
(dp5048
g13
I9780073407432
sg14
VBassham
p5049
sg16
VRequired
p5050
sg18
F127.65
sg19
VPaperback
p5051
sg21
g524
sa(dp5052
g13
I9780077304478
sg14
VBassham (Db*)
p5053
sg16
VOptional
p5054
sg18
F62.0
sg19
Nsg21
Nsasg33
V367762
p5055
sg35
V01
p5056
sa(dp5057
g8
VCHASE
p5058
sg10
(lp5059
(dp5060
g13
I9780073407432
sg14
VBassham
p5061
sg16
VRequired
p5062
sg18
F127.65
sg19
VPaperback
p5063
sg21
g524
sa(dp5064
g13
I9780077304478
sg14
VBassham (Db*)
p5065
sg16
VOptional
p5066
sg18
F62.0
sg19
Nsg21
Nsasg33
V367763
p5067
sg35
V02
p5068
sasg33
V97969
p5069
sg35
VKIN209
p5070
sa(dp5071
g5
(lp5072
(dp5073
g8
VLIANG
p5074
sg10
(lp5075
(dp5076
g13
I9780321523013
sg14
VPowers
p5077
sg16
VRequired
p5078
sg18
F72.8
sg19
VHardback
p5079
sg21
g355
sasg33
V367764
p5080
sg35
V01
p5081
sasg33
V97970
p5082
sg35
VKIN301
p5083
sa(dp5084
g5
(lp5085
(dp5086
g8
VMOUSTAFA
p5087
sg10
(lp5088
(dp5089
g13
I9780736055833
sg14
VWilmore
p5090
sg16
VRequired
p5091
sg18
F92.0
sg19
VHardback
p5092
sg21
g524
sasg33
V367765
p5093
sg35
V01
p5094
sasg33
V97971
p5095
sg35
VKIN303
p5096
sa(dp5097
g5
(lp5098
(dp5099
g8
VKANG
p5100
sg10
(lp5101
(dp5102
g13
I9780073376431
sg14
VFloyd
p5103
sg16
VRequired
p5104
sg18
F82.0
sg19
VPaperback
p5105
sg21
V17
p5106
sa(dp5107
g13
I9780736051019
sg14
VMcginnis
p5108
sg16
VRequired
p5109
sg18
F83.0
sg19
VHardback
p5110
sg21
g447
sa(dp5111
g13
I9780077283506
sg14
VFloyd (Db*)
p5112
sg16
VOptional
p5113
sg18
F50.25
sg19
VEbook
p5114
sg21
g66
sasg33
V367768
p5115
sg35
V01
p5116
sasg33
V97973
p5117
sg35
VKIN304
p5118
sa(dp5119
g5
(lp5120
(dp5121
g8
VMETZKER
p5122
sg10
(lp5123
(dp5124
g13
I9780073376509
sg14
VGallahue
p5125
sg16
VRequired
p5126
sg18
F141.9
sg19
VHardback
p5127
sg21
g66
sa(dp5128
g13
I9780077378769
sg14
VGallahue (Db*)
p5129
sg16
VOptional
p5130
sg18
F79.5
sg19
VEbook
p5131
sg21
g66
sasg33
V367770
p5132
sg35
V01
p5133
sasg33
V97975
p5134
sg35
VKIN312
p5135
sa(dp5136
g5
(lp5137
(dp5138
g8
VMETZKER
p5139
sg10
(lp5140
(dp5141
g13
I9780801116056
sg14
VCalif Dept Educ
p5142
sg16
VRequired
p5143
sg18
F21.25
sg19
Nsg21
Nsasg33
V367772
p5144
sg35
V01
p5145
sasg33
V97977
p5146
sg35
VKIN328
p5147
sa(dp5148
g5
(lp5149
(dp5150
g8
VSPALDING
p5151
sg10
(lp5152
sg33
V367774
p5153
sg35
V01
p5154
sa(dp5155
g8
VSPALDING
p5156
sg10
(lp5157
sg33
V367775
p5158
sg35
V02
p5159
sa(dp5160
g8
VFISH
p5161
sg10
(lp5162
sg33
V367776
p5163
sg35
V03
p5164
sa(dp5165
g8
VFISH
p5166
sg10
(lp5167
sg33
V367777
p5168
sg35
V04
p5169
sa(dp5170
g8
VHANSEN
p5171
sg10
(lp5172
sg33
V367778
p5173
sg35
V05
p5174
sasg33
V97979
p5175
sg35
VKIN370
p5176
sa(dp5177
g5
(lp5178
(dp5179
g8
VMOUSTAFA
p5180
sg10
(lp5181
(dp5182
g13
I9780736055833
sg14
VWilmore
p5183
sg16
VRequired
p5184
sg18
F92.0
sg19
VHardback
p5185
sg21
g524
sasg33
V367779
p5186
sg35
V01
p5187
sasg33
V97980
p5188
sg35
VKIN403
p5189
sa(dp5190
g5
(lp5191
(dp5192
g8
VHANSEN
p5193
sg10
(lp5194
sg33
V367782
p5195
sg35
V01
p5196
sa(dp5197
g8
VHANSEN
p5198
sg10
(lp5199
sg33
V367783
p5200
sg35
V02
p5201
sasg33
V97982
p5202
sg35
VKIN441
p5203
sa(dp5204
g5
(lp5205
(dp5206
g8
VCHASE
p5207
sg10
(lp5208
(dp5209
g13
I9781612050324
sg14
VEitzen
p5210
sg16
VRequired
p5211
sg18
F54.95
sg19
VPaperback
p5212
sg21
g1017
sasg33
V367784
p5213
sg35
V01
p5214
sasg33
V98070
p5215
sg35
VKIN449
p5216
sa(dp5217
g5
(lp5218
(dp5219
g8
VLIANG
p5220
sg10
(lp5221
(dp5222
g13
I9780781769037
sg14
VAmer Coll Sport
p5223
sg16
VRequired
p5224
sg18
F39.95
sg19
Nsg21
Nsa(dp5225
g13
I9781609130299
sg14
VAmer College (Db*)
p5226
sg16
VOptional
p5227
sg18
F23.0
sg19
VEbook
p5228
sg21
g22
sasg33
V367785
p5229
sg35
V01
p5230
sasg33
V97983
p5231
sg35
VKIN453
p5232
sa(dp5233
g5
(lp5234
(dp5235
g8
VLIANG
p5236
sg10
(lp5237
(dp5238
g13
I9780781768702
sg14
VAmer Coll Spor
p5239
sg16
VRequired
p5240
sg18
F58.95
sg19
VPaperback
p5241
sg21
g447
sa(dp5242
g13
I9781609130329
sg14
VAcsm (Db*)
p5243
sg16
VOptional
p5244
sg18
F34.0
sg19
VEbook
p5245
sg21
g447
sasg33
V367786
p5246
sg35
V01
p5247
sasg33
V98071
p5248
sg35
VKIN455
p5249
sa(dp5250
g5
(lp5251
(dp5252
g8
VMOUSTAFA
p5253
sg10
(lp5254
(dp5255
g13
I9780781797818
sg14
VMcardle
p5256
sg16
VRequired
p5257
sg18
F110.5
sg19
VHardback
p5258
sg21
g66
sa(dp5259
g13
I9781608319367
sg14
VMcardle (Db*)
p5260
sg16
VOptional
p5261
sg18
F65.0
sg19
VEbook
p5262
sg21
g66
sasg33
V367787
p5263
sg35
V01
p5264
sasg33
V97984
p5265
sg35
VKIN456
p5266
sa(dp5267
g5
(lp5268
(dp5269
g8
VMOUSTAFA
p5270
sg10
(lp5271
(dp5272
g13
I9780073376592
sg14
VBeam
p5273
sg16
VRequired
p5274
sg18
F105.35
sg19
VSpiral
p5275
sg21
g147
sasg33
V367766
p5276
sg35
V01
p5277
sa(dp5278
g8
VSTAFF
p5279
sg10
(lp5280
(dp5281
g13
I9780073376592
sg14
VBeam
p5282
sg16
VRequired
p5283
sg18
F105.35
sg19
VSpiral
p5284
sg21
g147
sasg33
V367767
p5285
sg35
V02
p5286
sasg33
V97972
p5287
sg35
VKIN303L
p5288
sa(dp5289
g5
(lp5290
(dp5291
g8
VKANG
p5292
sg10
(lp5293
sg33
V367769
p5294
sg35
V01
p5295
sasg33
V97974
p5296
sg35
VKIN304L
p5297
sa(dp5298
g5
(lp5299
(dp5300
g8
VMETZKER
p5301
sg10
(lp5302
sg33
V367771
p5303
sg35
V01
p5304
sasg33
V97976
p5305
sg35
VKIN312A
p5306
sa(dp5307
g5
(lp5308
(dp5309
g8
VMETZKER
p5310
sg10
(lp5311
sg33
V367773
p5312
sg35
V01
p5313
sasg33
V97978
p5314
sg35
VKIN328A
p5315
sa(dp5316
g5
(lp5317
(dp5318
g8
VMOUSTAFA
p5319
sg10
(lp5320
sg33
V367780
p5321
sg35
V01
p5322
sa(dp5323
g8
VMOUSTAFA
p5324
sg10
(lp5325
sg33
V367781
p5326
sg35
V02
p5327
sasg33
V97981
p5328
sg35
VKIN403L
p5329
sasg406
VKIN
p5330
sg33
V4806
p5331
sg35
VKINESIOLOGY
p5332
sa(dp5333
g2
(lp5334
(dp5335
g5
(lp5336
(dp5337
g8
VSTAFF
p5338
sg10
(lp5339
(dp5340
g13
I9780077594497
sg14
VMessersmith*
p5341
sg16
VRequired
p5342
sg18
F114.65
sg19
VKit/Set/Package
p5343
sg21
g100
sa(dp5344
g13
I9780077594473
sg14
VMessersmith
p5345
sg16
VPart of Set
p5346
sg18
F114.65
sg19
VPaperback
p5347
sg21
g100
sa(dp5348
g13
I9780077594480
sg14
VMcgraw
p5349
sg16
VPart of Set
p5350
sg18
F66.65
sg19
Nsg21
Nsasg33
V367788
p5351
sg35
VE-01
p5352
sa(dp5353
g8
VSTAFF
p5354
sg10
(lp5355
(dp5356
g13
I9780077594497
sg14
VMessersmith*
p5357
sg16
VRequired
p5358
sg18
F114.65
sg19
VKit/Set/Package
p5359
sg21
g100
sa(dp5360
g13
I9780077594473
sg14
VMessersmith
p5361
sg16
VPart of Set
p5362
sg18
F114.65
sg19
VPaperback
p5363
sg21
g100
sa(dp5364
g13
I9780077594480
sg14
VMcgraw
p5365
sg16
VPart of Set
p5366
sg18
F66.65
sg19
Nsg21
Nsasg33
V367789
p5367
sg35
VE-02
p5368
sasg33
V97985
p5369
sg35
VMAT010
p5370
sa(dp5371
g5
(lp5372
(dp5373
g8
VSHIRLEY
p5374
sg10
(lp5375
(dp5376
g13
I9780077594497
sg14
VMessersmith*
p5377
sg16
VRequired
p5378
sg18
F114.65
sg19
VKit/Set/Package
p5379
sg21
g100
sa(dp5380
g13
I9780077594473
sg14
VMessersmith
p5381
sg16
VPart of Set
p5382
sg18
F114.65
sg19
VPaperback
p5383
sg21
g100
sa(dp5384
g13
I9780077594480
sg14
VMcgraw
p5385
sg16
VPart of Set
p5386
sg18
F66.65
sg19
Nsg21
Nsasg33
V367790
p5387
sg35
VE-01
p5388
sa(dp5389
g8
VSHIRLEY
p5390
sg10
(lp5391
(dp5392
g13
I9780077594497
sg14
VMessersmith*
p5393
sg16
VRequired
p5394
sg18
F114.65
sg19
VKit/Set/Package
p5395
sg21
g100
sa(dp5396
g13
I9780077594473
sg14
VMessersmith
p5397
sg16
VPart of Set
p5398
sg18
F114.65
sg19
VPaperback
p5399
sg21
g100
sa(dp5400
g13
I9780077594480
sg14
VMcgraw
p5401
sg16
VPart of Set
p5402
sg18
F66.65
sg19
Nsg21
Nsasg33
V367791
p5403
sg35
VE-02
p5404
sa(dp5405
g8
VSHIRLEY,
p5406
sg10
(lp5407
(dp5408
g13
I9780077594497
sg14
VMessersmith*
p5409
sg16
VRequired
p5410
sg18
F114.65
sg19
VKit/Set/Package
p5411
sg21
g100
sa(dp5412
g13
I9780077594473
sg14
VMessersmith
p5413
sg16
VPart of Set
p5414
sg18
F114.65
sg19
VPaperback
p5415
sg21
g100
sa(dp5416
g13
I9780077594480
sg14
VMcgraw
p5417
sg16
VPart of Set
p5418
sg18
F66.65
sg19
Nsg21
Nsasg33
V367792
p5419
sg35
VE-03
p5420
sa(dp5421
g8
VSTAFF
p5422
sg10
(lp5423
(dp5424
g13
I9780077594497
sg14
VMessersmith*
p5425
sg16
VRequired
p5426
sg18
F114.65
sg19
VKit/Set/Package
p5427
sg21
g100
sa(dp5428
g13
I9780077594473
sg14
VMessersmith
p5429
sg16
VPart of Set
p5430
sg18
F114.65
sg19
VPaperback
p5431
sg21
g100
sa(dp5432
g13
I9780077594480
sg14
VMcgraw
p5433
sg16
VPart of Set
p5434
sg18
F66.65
sg19
Nsg21
Nsasg33
V367793
p5435
sg35
VE-11
p5436
sa(dp5437
g8
VSTAFF
p5438
sg10
(lp5439
(dp5440
g13
I9780077594497
sg14
VMessersmith*
p5441
sg16
VRequired
p5442
sg18
F114.65
sg19
VKit/Set/Package
p5443
sg21
g100
sa(dp5444
g13
I9780077594473
sg14
VMessersmith
p5445
sg16
VPart of Set
p5446
sg18
F114.65
sg19
VPaperback
p5447
sg21
g100
sa(dp5448
g13
I9780077594480
sg14
VMcgraw
p5449
sg16
VPart of Set
p5450
sg18
F66.65
sg19
Nsg21
Nsasg33
V379920
p5451
sg35
VE-21
p5452
sasg33
V97986
p5453
sg35
VMAT011
p5454
sa(dp5455
g5
(lp5456
(dp5457
g8
VSTAFF
p5458
sg10
(lp5459
(dp5460
g13
I9780077594534
sg14
VMessersmith*
p5461
sg16
VRequired
p5462
sg18
F100.0
sg19
VKit/Set/Package
p5463
sg21
g100
sa(dp5464
g13
I9780077594497
sg14
VMessersmith*
p5465
sg16
VOptional
p5466
sg18
F114.65
sg19
VKit/Set/Package
p5467
sg21
g100
sa(dp5468
g13
I9780077594510
sg14
VMessersmith
p5469
sg16
VPart of Set
p5470
sg18
F100.0
sg19
VPaperback
p5471
sg21
g100
sa(dp5472
g13
I9780077594527
sg14
VMcgraw
p5473
sg16
VPart of Set
p5474
sg18
F58.8
sg19
Nsg21
Nsasg33
V367794
p5475
sg35
VE-01
p5476
sa(dp5477
g8
VGRIFFITH
p5478
sg10
(lp5479
(dp5480
g13
I9780077594534
sg14
VMessersmith*
p5481
sg16
VRequired
p5482
sg18
F100.0
sg19
VKit/Set/Package
p5483
sg21
g100
sa(dp5484
g13
I9780077594497
sg14
VMessersmith*
p5485
sg16
VOptional
p5486
sg18
F114.65
sg19
VKit/Set/Package
p5487
sg21
g100
sa(dp5488
g13
I9780077594510
sg14
VMessersmith
p5489
sg16
VPart of Set
p5490
sg18
F100.0
sg19
VPaperback
p5491
sg21
g100
sa(dp5492
g13
I9780077594527
sg14
VMcgraw
p5493
sg16
VPart of Set
p5494
sg18
F58.8
sg19
Nsg21
Nsasg33
V367795
p5495
sg35
VE-02
p5496
sa(dp5497
g8
VSTAFF
p5498
sg10
(lp5499
(dp5500
g13
I9780077594534
sg14
VMessersmith*
p5501
sg16
VRequired
p5502
sg18
F100.0
sg19
VKit/Set/Package
p5503
sg21
g100
sa(dp5504
g13
I9780077594497
sg14
VMessersmith*
p5505
sg16
VOptional
p5506
sg18
F114.65
sg19
VKit/Set/Package
p5507
sg21
g100
sa(dp5508
g13
I9780077594510
sg14
VMessersmith
p5509
sg16
VPart of Set
p5510
sg18
F100.0
sg19
VPaperback
p5511
sg21
g100
sa(dp5512
g13
I9780077594527
sg14
VMcgraw
p5513
sg16
VPart of Set
p5514
sg18
F58.8
sg19
Nsg21
Nsasg33
V367796
p5515
sg35
VE-11
p5516
sa(dp5517
g8
VSTAFF
p5518
sg10
(lp5519
(dp5520
g13
I9780077594534
sg14
VMessersmith*
p5521
sg16
VRequired
p5522
sg18
F100.0
sg19
VKit/Set/Package
p5523
sg21
g100
sa(dp5524
g13
I9780077594497
sg14
VMessersmith*
p5525
sg16
VOptional
p5526
sg18
F114.65
sg19
VKit/Set/Package
p5527
sg21
g100
sa(dp5528
g13
I9780077594510
sg14
VMessersmith
p5529
sg16
VPart of Set
p5530
sg18
F100.0
sg19
VPaperback
p5531
sg21
g100
sa(dp5532
g13
I9780077594527
sg14
VMcgraw
p5533
sg16
VPart of Set
p5534
sg18
F58.8
sg19
Nsg21
Nsasg33
V367797
p5535
sg35
VE-21
p5536
sa(dp5537
g8
VSTAFF
p5538
sg10
(lp5539
(dp5540
g13
I9780077594534
sg14
VMessersmith*
p5541
sg16
VRequired
p5542
sg18
F100.0
sg19
VKit/Set/Package
p5543
sg21
g100
sa(dp5544
g13
I9780077594497
sg14
VMessersmith*
p5545
sg16
VOptional
p5546
sg18
F114.65
sg19
VKit/Set/Package
p5547
sg21
g100
sa(dp5548
g13
I9780077594510
sg14
VMessersmith
p5549
sg16
VPart of Set
p5550
sg18
F100.0
sg19
VPaperback
p5551
sg21
g100
sa(dp5552
g13
I9780077594527
sg14
VMcgraw
p5553
sg16
VPart of Set
p5554
sg18
F58.8
sg19
Nsg21
Nsasg33
V379921
p5555
sg35
VE-22
p5556
sasg33
V97987
p5557
sg35
VMAT012
p5558
sa(dp5559
g5
(lp5560
(dp5561
g8
VMC DONALD
p5562
sg10
(lp5563
(dp5564
g13
I9781118177419
sg14
VYoung*
p5565
sg16
VRequired
p5566
sg18
F105.35
sg19
VKit/Set/Package
p5567
sg21
g447
sa(dp5568
g13
I9780470247471
sg14
VWiley
p5569
sg16
VPart of Set
p5570
sg18
F100.6
sg19
VAccess Code
p5571
sg21
g447
sa(dp5572
g13
I9781118177402
sg14
VYoung
p5573
sg16
VPart of Set
p5574
sg18
F100.0
sg19
Nsg21
Nsasg33
V367798
p5575
sg35
VE-01
p5576
sa(dp5577
g8
VGRIFFITH
p5578
sg10
(lp5579
(dp5580
g13
I9781118177419
sg14
VYoung*
p5581
sg16
VRequired
p5582
sg18
F105.35
sg19
VKit/Set/Package
p5583
sg21
g447
sa(dp5584
g13
I9780470247471
sg14
VWiley
p5585
sg16
VPart of Set
p5586
sg18
F100.6
sg19
VAccess Code
p5587
sg21
g447
sa(dp5588
g13
I9781118177402
sg14
VYoung
p5589
sg16
VPart of Set
p5590
sg18
F100.0
sg19
Nsg21
Nsasg33
V367799
p5591
sg35
VE-02
p5592
sasg33
V97988
p5593
sg35
VMAT105
p5594
sa(dp5595
g5
(lp5596
(dp5597
g8
VGREEN
p5598
sg10
(lp5599
(dp5600
g13
I9781118177419
sg14
VYoung*
p5601
sg16
VRequired
p5602
sg18
F105.35
sg19
VKit/Set/Package
p5603
sg21
g447
sa(dp5604
g13
I9780470247471
sg14
VWiley
p5605
sg16
VPart of Set
p5606
sg18
F100.6
sg19
VAccess Code
p5607
sg21
g447
sa(dp5608
g13
I9781118177402
sg14
VYoung
p5609
sg16
VPart of Set
p5610
sg18
F100.0
sg19
Nsg21
Nsasg33
V367800
p5611
sg35
VE-01
p5612
sa(dp5613
g8
VGREEN
p5614
sg10
(lp5615
(dp5616
g13
I9781118177419
sg14
VYoung*
p5617
sg16
VRequired
p5618
sg18
F105.35
sg19
VKit/Set/Package
p5619
sg21
g447
sa(dp5620
g13
I9780470247471
sg14
VWiley
p5621
sg16
VPart of Set
p5622
sg18
F100.6
sg19
VAccess Code
p5623
sg21
g447
sa(dp5624
g13
I9781118177402
sg14
VYoung
p5625
sg16
VPart of Set
p5626
sg18
F100.0
sg19
Nsg21
Nsasg33
V367801
p5627
sg35
VE-02
p5628
sasg33
V97989
p5629
sg35
VMAT106
p5630
sa(dp5631
g5
(lp5632
(dp5633
g8
VSTAFF
p5634
sg10
(lp5635
(dp5636
g13
I9781133295327
sg14
VStewart* (Sw2)
p5637
sg16
VRequired
p5638
sg18
F171.25
sg19
VHardback
p5639
sg21
g66
sa(dp5640
g13
I9781133295334
sg14
VStewart* (Sw2)
p5641
sg16
VRequired
p5642
sg18
F146.25
sg19
VPaperback
p5643
sg21
g66
sa(dp5644
g13
I9780840049346
sg14
VStewart
p5645
sg16
VOptional
p5646
sg18
F77.0
sg19
VPaperback
p5647
sg21
g66
sasg33
V367802
p5648
sg35
VE-01
p5649
sasg33
V97990
p5650
sg35
VMAT112
p5651
sa(dp5652
g5
(lp5653
(dp5654
g8
VKRINIK
p5655
sg10
(lp5656
(dp5657
g13
I9781133295327
sg14
VStewart* (Sw2)
p5658
sg16
VRequired
p5659
sg18
F171.25
sg19
VHardback
p5660
sg21
g66
sa(dp5661
g13
I9781133295334
sg14
VStewart* (Sw2)
p5662
sg16
VRequired
p5663
sg18
F146.25
sg19
VPaperback
p5664
sg21
g66
sa(dp5665
g13
I9780840049346
sg14
VStewart
p5666
sg16
VOptional
p5667
sg18
F77.0
sg19
VPaperback
p5668
sg21
g66
sa(dp5669
g13
I9780495988281
sg14
VStewart
p5670
sg16
VPart of Set
p5671
sg18
F179.85
sg19
VHardback
p5672
sg21
g66
sa(dp5673
g13
I9780495978480
sg14
VStewart
p5674
sg16
VPart of Set
p5675
sg18
F152.55
sg19
VPaperback
p5676
sg21
g66
sa(dp5677
g13
I9780538738071
sg14
VCengage
p5678
sg16
VPart of Set
p5679
sg18
F95.0
sg19
Nsg21
Nsasg33
V367803
p5680
sg35
VE-01
p5681
sa(dp5682
g8
VKRINIK
p5683
sg10
(lp5684
(dp5685
g13
I9781133295327
sg14
VStewart* (Sw2)
p5686
sg16
VRequired
p5687
sg18
F171.25
sg19
VHardback
p5688
sg21
g66
sa(dp5689
g13
I9781133295334
sg14
VStewart* (Sw2)
p5690
sg16
VRequired
p5691
sg18
F146.25
sg19
VPaperback
p5692
sg21
g66
sa(dp5693
g13
I9780840049346
sg14
VStewart
p5694
sg16
VOptional
p5695
sg18
F77.0
sg19
VPaperback
p5696
sg21
g66
sa(dp5697
g13
I9780495988281
sg14
VStewart
p5698
sg16
VPart of Set
p5699
sg18
F179.85
sg19
VHardback
p5700
sg21
g66
sa(dp5701
g13
I9780495978480
sg14
VStewart
p5702
sg16
VPart of Set
p5703
sg18
F152.55
sg19
VPaperback
p5704
sg21
g66
sa(dp5705
g13
I9780538738071
sg14
VCengage
p5706
sg16
VPart of Set
p5707
sg18
F95.0
sg19
Nsg21
Nsasg33
V367804
p5708
sg35
VE-02
p5709
sasg33
V97991
p5710
sg35
VMAT114
p5711
sa(dp5712
g5
(lp5713
(dp5714
g8
VSWIFT  JR
p5715
sg10
(lp5716
(dp5717
g13
I9781133295327
sg14
VStewart* (Sw2)
p5718
sg16
VRequired
p5719
sg18
F171.25
sg19
VHardback
p5720
sg21
g66
sa(dp5721
g13
I9781133295334
sg14
VStewart* (Sw2)
p5722
sg16
VRequired
p5723
sg18
F146.25
sg19
VPaperback
p5724
sg21
g66
sa(dp5725
g13
I9780840049346
sg14
VStewart
p5726
sg16
VOptional
p5727
sg18
F77.0
sg19
VPaperback
p5728
sg21
g66
sa(dp5729
g13
I9780495988281
sg14
VStewart
p5730
sg16
VPart of Set
p5731
sg18
F179.85
sg19
VHardback
p5732
sg21
g66
sa(dp5733
g13
I9780495978480
sg14
VStewart
p5734
sg16
VPart of Set
p5735
sg18
F152.55
sg19
VPaperback
p5736
sg21
g66
sa(dp5737
g13
I9780538738071
sg14
VCengage
p5738
sg16
VPart of Set
p5739
sg18
F95.0
sg19
Nsg21
Nsasg33
V367805
p5740
sg35
VE-01
p5741
sa(dp5742
g8
VSWIFT  JR
p5743
sg10
(lp5744
(dp5745
g13
I9781133295327
sg14
VStewart* (Sw2)
p5746
sg16
VRequired
p5747
sg18
F171.25
sg19
VHardback
p5748
sg21
g66
sa(dp5749
g13
I9781133295334
sg14
VStewart* (Sw2)
p5750
sg16
VRequired
p5751
sg18
F146.25
sg19
VPaperback
p5752
sg21
g66
sa(dp5753
g13
I9780840049346
sg14
VStewart
p5754
sg16
VOptional
p5755
sg18
F77.0
sg19
VPaperback
p5756
sg21
g66
sa(dp5757
g13
I9780495988281
sg14
VStewart
p5758
sg16
VPart of Set
p5759
sg18
F179.85
sg19
VHardback
p5760
sg21
g66
sa(dp5761
g13
I9780495978480
sg14
VStewart
p5762
sg16
VPart of Set
p5763
sg18
F152.55
sg19
VPaperback
p5764
sg21
g66
sa(dp5765
g13
I9780538738071
sg14
VCengage
p5766
sg16
VPart of Set
p5767
sg18
F95.0
sg19
Nsg21
Nsasg33
V367806
p5768
sg35
VE-02
p5769
sasg33
V97992
p5770
sg35
VMAT115
p5771
sa(dp5772
g5
(lp5773
(dp5774
g8
VMC DONALD
p5775
sg10
(lp5776
(dp5777
g13
I9781133295327
sg14
VStewart* (Sw2)
p5778
sg16
VRequired
p5779
sg18
F171.25
sg19
VHardback
p5780
sg21
g66
sa(dp5781
g13
I9781133295334
sg14
VStewart* (Sw2)
p5782
sg16
VRequired
p5783
sg18
F146.25
sg19
VPaperback
p5784
sg21
g66
sa(dp5785
g13
I9780840049346
sg14
VStewart
p5786
sg16
VOptional
p5787
sg18
F77.0
sg19
VPaperback
p5788
sg21
g66
sa(dp5789
g13
I9780495988281
sg14
VStewart
p5790
sg16
VPart of Set
p5791
sg18
F179.85
sg19
VHardback
p5792
sg21
g66
sa(dp5793
g13
I9780495978480
sg14
VStewart
p5794
sg16
VPart of Set
p5795
sg18
F152.55
sg19
VPaperback
p5796
sg21
g66
sa(dp5797
g13
I9780538738071
sg14
VCengage
p5798
sg16
VPart of Set
p5799
sg18
F95.0
sg19
Nsg21
Nsasg33
V367807
p5800
sg35
VE-01
p5801
sa(dp5802
g8
VGILL
p5803
sg10
(lp5804
(dp5805
g13
I9781133295327
sg14
VStewart* (Sw2)
p5806
sg16
VRequired
p5807
sg18
F171.25
sg19
VHardback
p5808
sg21
g66
sa(dp5809
g13
I9781133295334
sg14
VStewart* (Sw2)
p5810
sg16
VRequired
p5811
sg18
F146.25
sg19
VPaperback
p5812
sg21
g66
sa(dp5813
g13
I9780840049346
sg14
VStewart
p5814
sg16
VOptional
p5815
sg18
F77.0
sg19
VPaperback
p5816
sg21
g66
sa(dp5817
g13
I9780495988281
sg14
VStewart
p5818
sg16
VPart of Set
p5819
sg18
F179.85
sg19
VHardback
p5820
sg21
g66
sa(dp5821
g13
I9780495978480
sg14
VStewart
p5822
sg16
VPart of Set
p5823
sg18
F152.55
sg19
VPaperback
p5824
sg21
g66
sa(dp5825
g13
I9780538738071
sg14
VCengage
p5826
sg16
VPart of Set
p5827
sg18
F95.0
sg19
Nsg21
Nsasg33
V367808
p5828
sg35
VE-02
p5829
sasg33
V97993
p5830
sg35
VMAT116
p5831
sa(dp5832
g5
(lp5833
(dp5834
g8
VSHIRLEY
p5835
sg10
(lp5836
(dp5837
g13
I9780470170526
sg14
VHughes-Hallett
p5838
sg16
VRequired
p5839
sg18
F161.25
sg19
VPaperback
p5840
sg21
g524
sa(dp5841
g13
I9780470564813
sg14
VHughes (Db*)
p5842
sg16
VOptional
p5843
sg18
F86.5
sg19
VEbook
p5844
sg21
g524
sa(dp5845
g13
I9780470170533
sg14
VHughes-Hallett
p5846
sg16
VOptional
p5847
sg18
F61.35
sg19
VPaperback
p5848
sg21
g524
sasg33
V367809
p5849
sg35
VE-01
p5850
sasg33
V97994
p5851
sg35
VMAT120
p5852
sa(dp5853
g5
(lp5854
(dp5855
g8
VBARRO
p5856
sg10
(lp5857
(dp5858
g13
I9780077292737
sg14
VHoffmann
p5859
sg16
VRequired
p5860
sg18
F169.7
sg19
VHardback
p5861
sg21
V10
p5862
sa(dp5863
g13
I9780073349022
sg14
VHoffmann
p5864
sg16
VOptional
p5865
sg18
F86.35
sg19
VPaperback
p5866
sg21
V10
p5867
sasg33
V367810
p5868
sg35
VE-01
p5869
sa(dp5870
g8
VBARRO
p5871
sg10
(lp5872
(dp5873
g13
I9780077292737
sg14
VHoffmann
p5874
sg16
VRequired
p5875
sg18
F169.7
sg19
VHardback
p5876
sg21
V10
p5877
sa(dp5878
g13
I9780073349022
sg14
VHoffmann
p5879
sg16
VOptional
p5880
sg18
F86.35
sg19
VPaperback
p5881
sg21
V10
p5882
sasg33
V367811
p5883
sg35
VE-02
p5884
sa(dp5885
g8
VBARRO
p5886
sg10
(lp5887
sg33
V383410
p5888
sg35
VE-03
p5889
sasg33
V97995
p5890
sg35
VMAT125
p5891
sa(dp5892
g5
(lp5893
(dp5894
g8
VGREEN
p5895
sg10
(lp5896
(dp5897
g13
I9780486639468
sg14
VEves
p5898
sg16
VRequired
p5899
sg18
F16.95
sg19
Nsg21
Nsa(dp5900
g13
I9780486660141
sg14
VSchneider
p5901
sg16
VRequired
p5902
sg18
F16.95
sg19
Nsg21
Nsasg33
V367812
p5903
sg35
VE-01
p5904
sasg33
V97996
p5905
sg35
VMAT208
p5906
sa(dp5907
g5
(lp5908
(dp5909
g8
VSWIFT  JR
p5910
sg10
(lp5911
(dp5912
g13
I9781424086122
sg14
VStewart
p5913
sg16
VRequired
p5914
sg18
F200.3
sg19
VHardback
p5915
sg21
g147
sa(dp5916
g13
I9780495011729
sg14
VStewart
p5917
sg16
VRequired
p5918
sg18
F164.1
sg19
VHardback
p5919
sg21
g147
sa(dp5920
g13
I9780495544289
sg14
VStewart (Db*)
p5921
sg16
VOptional
p5922
sg18
F88.0
sg19
VEbook
p5923
sg21
g147
sa(dp5924
g13
I9780495012283
sg14
VStewart
p5925
sg16
VOptional
p5926
sg18
F59.25
sg19
VPaperback
p5927
sg21
g147
sasg33
V367813
p5928
sg35
VE-01
p5929
sasg33
V97997
p5930
sg35
VMAT214
p5931
sa(dp5932
g5
(lp5933
(dp5934
g8
VGREEN
p5935
sg10
(lp5936
(dp5937
g13
I9781424086122
sg14
VStewart
p5938
sg16
VRequired
p5939
sg18
F200.3
sg19
VHardback
p5940
sg21
g147
sa(dp5941
g13
I9780495011729
sg14
VStewart
p5942
sg16
VRequired
p5943
sg18
F164.1
sg19
VHardback
p5944
sg21
g147
sa(dp5945
g13
I9780495544289
sg14
VStewart (Db*)
p5946
sg16
VOptional
p5947
sg18
F88.0
sg19
VEbook
p5948
sg21
g147
sa(dp5949
g13
I9780495012283
sg14
VStewart
p5950
sg16
VOptional
p5951
sg18
F59.25
sg19
VPaperback
p5952
sg21
g147
sasg33
V367814
p5953
sg35
VE-01
p5954
sa(dp5955
g8
VKRINIK
p5956
sg10
(lp5957
(dp5958
g13
I9781424086122
sg14
VStewart
p5959
sg16
VRequired
p5960
sg18
F200.3
sg19
VHardback
p5961
sg21
g147
sa(dp5962
g13
I9780495011729
sg14
VStewart
p5963
sg16
VRequired
p5964
sg18
F164.1
sg19
VHardback
p5965
sg21
g147
sa(dp5966
g13
I9780495544289
sg14
VStewart (Db*)
p5967
sg16
VOptional
p5968
sg18
F88.0
sg19
VEbook
p5969
sg21
g147
sa(dp5970
g13
I9780495012283
sg14
VStewart
p5971
sg16
VOptional
p5972
sg18
F59.25
sg19
VPaperback
p5973
sg21
g147
sasg33
V367815
p5974
sg35
VE-02
p5975
sasg33
V97998
p5976
sg35
VMAT215
p5977
sa(dp5978
g5
(lp5979
(dp5980
g8
VSWIFT  JR
p5981
sg10
(lp5982
(dp5983
g13
I9781584884767
sg14
VSwift
p5984
sg16
VRequired
p5985
sg18
F99.95
sg19
Nsg21
Nsasg33
V367816
p5986
sg35
VE-01
p5987
sasg33
V97999
p5988
sg35
VMAT216
p5989
sa(dp5990
g5
(lp5991
(dp5992
g8
VXIE
p5993
sg10
(lp5994
(dp5995
g13
I9780201662122
sg14
VPeterson
p5996
sg16
VRequired
p5997
sg18
F84.0
sg19
Nsg21
Nsa(dp5998
g13
I9780321725066
sg14
VPeterson (Db*)
p5999
sg16
VOptional
p6000
sg18
F42.0
sg19
Nsg21
Nsa(dp6001
g13
I9780201662139
sg14
VPeterson
p6002
sg16
VOptional
p6003
sg18
F36.7
sg19
VPaperback
p6004
sg21
g3848
sasg33
V367817
p6005
sg35
VE-01
p6006
sasg33
V98000
p6007
sg35
VMAT224
p6008
sa(dp6009
g5
(lp6010
(dp6011
g8
VKRINIK
p6012
sg10
(lp6013
(dp6014
g13
I9780321390530
sg14
VChartrand
p6015
sg16
VRequired
p6016
sg18
F124.0
sg19
VHardback
p6017
sg21
g447
sa(dp6018
g13
I9780321549631
sg14
VChartrand (Db*)
p6019
sg16
VOptional
p6020
sg18
F51.0
sg19
VEbook
p6021
sg21
g447
sasg33
V367818
p6022
sg35
VE-01
p6023
sasg33
V98001
p6024
sg35
VMAT310
p6025
sasg406
VMAT
p6026
sg33
V4719
p6027
sg35
VMATHEMATICS
p6028
sa(dp6029
g2
(lp6030
(dp6031
g5
(lp6032
(dp6033
g8
VKIM
p6034
sg10
(lp6035
(dp6036
g13
I9780077381134
sg14
VBeer
p6037
sg16
VRequired
p6038
sg18
F119.65
sg19
VPaperback
p6039
sg21
g1017
sasg33
V379922
p6040
sg35
VE-01
p6041
sa(dp6042
g8
VSTAFF
p6043
sg10
(lp6044
(dp6045
g13
I9780077381134
sg14
VBeer
p6046
sg16
VRequired
p6047
sg18
F119.65
sg19
VPaperback
p6048
sg21
g1017
sasg33
V379923
p6049
sg35
VE-02
p6050
sasg33
V98002
p6051
sg35
VME214
p6052
sa(dp6053
g5
(lp6054
(dp6055
g8
VPIROOZAN
p6056
sg10
(lp6057
(dp6058
g13
I9780470499788
sg14
VMeriam
p6059
sg16
VRequired
p6060
sg18
F117.5
sg19
VPaperback
p6061
sg21
g147
sasg33
V379924
p6062
sg35
VE-01
p6063
sa(dp6064
g8
VLIPOVETSKY
p6065
sg10
(lp6066
(dp6067
g13
I9780470499788
sg14
VMeriam
p6068
sg16
VRequired
p6069
sg18
F117.5
sg19
VPaperback
p6070
sg21
g147
sasg33
V379925
p6071
sg35
VE-02
p6072
sasg33
V98003
p6073
sg35
VME215
p6074
sa(dp6075
g5
(lp6076
(dp6077
g8
VLIPOVETSKY
p6078
sg10
(lp6079
(dp6080
g13
I9780136022305
sg14
VHibbeler
p6081
sg16
VRequired
p6082
sg18
F184.7
sg19
VHardback
p6083
sg21
g22
sa(dp6084
g13
I9780136023159
sg14
VHibbeler (Db*)
p6085
sg16
VOptional
p6086
sg18
F79.0
sg19
VEbook
p6087
sg21
g22
sasg33
V379926
p6088
sg35
VE-01
p6089
sa(dp6090
g8
VGhazinejad,
p6091
sg10
(lp6092
(dp6093
g13
I9780136022305
sg14
VHibbeler
p6094
sg16
VRequired
p6095
sg18
F184.7
sg19
VHardback
p6096
sg21
g22
sa(dp6097
g13
I9780136023159
sg14
VHibbeler (Db*)
p6098
sg16
VOptional
p6099
sg18
F79.0
sg19
VEbook
p6100
sg21
g22
sasg33
V379927
p6101
sg35
VE-02
p6102
sasg33
V98004
p6103
sg35
VME218
p6104
sa(dp6105
g5
(lp6106
(dp6107
g8
VPIROOZAN
p6108
sg10
(lp6109
(dp6110
g13
I9780136022305
sg14
VHibbeler
p6111
sg16
VRequired
p6112
sg18
F184.7
sg19
VHardback
p6113
sg21
g22
sa(dp6114
g13
I9780136023159
sg14
VHibbeler (Db*)
p6115
sg16
VOptional
p6116
sg18
F79.0
sg19
VEbook
p6117
sg21
g22
sasg33
V379928
p6118
sg35
VE-01
p6119
sasg33
V98005
p6120
sg35
VME219
p6121
sa(dp6122
g5
(lp6123
(dp6124
g8
VSHIH
p6125
sg10
(lp6126
(dp6127
g13
I9780132396677
sg14
VChapra
p6128
sg16
VRequired
p6129
sg18
F47.0
sg19
VPaperback
p6130
sg21
g447
sa(dp6131
g13
I9780136093114
sg14
VChapra (Db*)
p6132
sg16
VOptional
p6133
sg18
F20.0
sg19
VEbook
p6134
sg21
g447
sasg33
V379931
p6135
sg35
VE-01
p6136
sasg33
V98007
p6137
sg35
VME232
p6138
sa(dp6139
g5
(lp6140
(dp6141
g8
VXUE
p6142
sg10
(lp6143
(dp6144
g13
I9780077986704
sg14
VCengel* (Sw2)
p6145
sg16
VRequired
p6146
sg18
F214.05
sg19
VKit/Set/Package
p6147
sg21
g66
sa(dp6148
g13
I9780077366742
sg14
VCengel
p6149
sg16
VPart of Set
p6150
sg18
F211.9
sg19
VHardback
p6151
sg21
g66
sa(dp6152
g13
I9780077359997
sg14
VCengel
p6153
sg16
VPart of Set
p6154
sg18
F37.0
sg19
VPaperback
p6155
sg21
g66
sasg33
V379933
p6156
sg35
VE-01
p6157
sasg33
V98009
p6158
sg35
VME301
p6159
sa(dp6160
g5
(lp6161
(dp6162
g8
VXUE
p6163
sg10
(lp6164
(dp6165
g13
I9780077366742
sg14
VCengel
p6166
sg16
VPart of Set
p6167
sg18
F211.9
sg19
VHardback
p6168
sg21
g66
sa(dp6169
g13
I9780077359997
sg14
VCengel
p6170
sg16
VPart of Set
p6171
sg18
F37.0
sg19
VPaperback
p6172
sg21
g66
sasg33
V379934
p6173
sg35
VE-01
p6174
sasg33
V98010
p6175
sg35
VME302
p6176
sa(dp6177
g5
(lp6178
(dp6179
g8
VANDERSON
p6180
sg10
(lp6181
(dp6182
g13
I9781118116135
sg14
VMunson
p6183
sg16
VRequired
p6184
sg18
F206.25
sg19
VHardback
p6185
sg21
g66
sasg33
V379935
p6186
sg35
VE-01
p6187
sa(dp6188
g8
VANDERSON
p6189
sg10
(lp6190
(dp6191
g13
I9781118116135
sg14
VMunson
p6192
sg16
VRequired
p6193
sg18
F206.25
sg19
VHardback
p6194
sg21
g66
sasg33
V379936
p6195
sg35
VE-02
p6196
sasg33
V98011
p6197
sg35
VME311
p6198
sa(dp6199
g5
(lp6200
(dp6201
g8
VXUE
p6202
sg10
(lp6203
(dp6204
g13
I9780470262849
sg14
VMunson
p6205
sg16
VRequired
p6206
sg18
F203.75
sg19
VHardback
p6207
sg21
g147
sa(dp6208
g13
I9780470416259
sg14
VMunson (Db*)
p6209
sg16
VOptional
p6210
sg18
F107.5
sg19
VEbook
p6211
sg21
g147
sasg33
V379937
p6212
sg35
VE-01
p6213
sasg33
V98012
p6214
sg35
VME312
p6215
sa(dp6216
g5
(lp6217
(dp6218
g8
VGhazinejad
p6219
sg10
(lp6220
(dp6221
g13
I9780495773436
sg14
VAskeland*
p6222
sg16
VRequired
p6223
sg18
F211.55
sg19
VNone
p6224
sg21
g447
sasg33
V379939
p6225
sg35
VE-01
p6226
sasg33
V99400
p6227
sg35
VME315
p6228
sa(dp6229
g5
(lp6230
(dp6231
g8
VDINSMORE
p6232
sg10
(lp6233
(dp6234
g13
I9780470528006
sg14
VMeriam* (Sw2)
p6235
sg16
VRequired
p6236
sg18
F123.75
sg19
VKit/Set/Package
p6237
sg21
g147
sa(dp6238
g13
I9780470499788
sg14
VMeriam
p6239
sg16
VPart of Set
p6240
sg18
F117.5
sg19
VPaperback
p6241
sg21
g147
sa(dp6242
g13
I9780470106365
sg14
VMeriam/Wiley
p6243
sg16
VPart of Set
p6244
sg18
F79.4
sg19
Nsg21
Nsasg33
V379940
p6245
sg35
VE-01
p6246
sa(dp6247
g8
VDINSMORE
p6248
sg10
(lp6249
(dp6250
g13
I9780470528006
sg14
VMeriam* (Sw2)
p6251
sg16
VRequired
p6252
sg18
F123.75
sg19
VKit/Set/Package
p6253
sg21
g147
sa(dp6254
g13
I9780470499788
sg14
VMeriam
p6255
sg16
VPart of Set
p6256
sg18
F117.5
sg19
VPaperback
p6257
sg21
g147
sa(dp6258
g13
I9780470106365
sg14
VMeriam/Wiley
p6259
sg16
VPart of Set
p6260
sg18
F79.4
sg19
Nsg21
Nsasg33
V379941
p6261
sg35
VE-02
p6262
sa(dp6263
g8
VSTAFF
p6264
sg10
(lp6265
(dp6266
g13
I9780470499788
sg14
VMeriam
p6267
sg16
VRequired
p6268
sg18
F117.5
sg19
VPaperback
p6269
sg21
g147
sasg33
V379942
p6270
sg35
VE-03
p6271
sasg33
V98014
p6272
sg35
VME316
p6273
sa(dp6274
g5
(lp6275
(dp6276
g8
VPIROOZAN
p6277
sg10
(lp6278
(dp6279
g13
I9780077300555
sg14
VBudynas (Db*)
p6280
sg16
VRequired
p6281
sg18
F119.25
sg19
Nsg21
Nsa(dp6282
g13
I9780073529288
sg14
VBudynas
p6283
sg16
VRequired
p6284
sg18
F180.0
sg19
VHardback
p6285
sg21
g1017
sasg33
V379943
p6286
sg35
VE-01
p6287
sasg33
V98015
p6288
sg35
VME319
p6289
sa(dp6290
g5
(lp6291
(dp6292
g8
VKIM
p6293
sg10
(lp6294
(dp6295
g13
I9780073529288
sg14
VBudynas
p6296
sg16
VRequired
p6297
sg18
F180.0
sg19
VHardback
p6298
sg21
g1017
sa(dp6299
g13
I9780077300555
sg14
VBudynas (Db*)
p6300
sg16
VOptional
p6301
sg18
F119.25
sg19
Nsg21
Nsasg33
V379944
p6302
sg35
VE-01
p6303
sasg33
V98016
p6304
sg35
VME325
p6305
sa(dp6306
g5
(lp6307
(dp6308
g8
VLIPOVETSKY
p6309
sg10
(lp6310
(dp6311
g13
I9780495668251
sg14
VLogan
p6312
sg16
VRequired
p6313
sg18
F214.7
sg19
VHardback
p6314
sg21
g355
sa(dp6315
g13
I9781111895099
sg14
VLogan (Db*)
p6316
sg16
VOptional
p6317
sg18
F116.0
sg19
VEbook
p6318
sg21
g355
sasg33
V379948
p6319
sg35
VE-01
p6320
sasg33
V98019
p6321
sg35
VME406
p6322
sa(dp6323
g5
(lp6324
(dp6325
g8
VDINSMORE
p6326
sg10
(lp6327
(dp6328
g13
I9780470501962
sg14
VBergman
p6329
sg16
VRequired
p6330
sg18
F218.75
sg19
VHardback
p6331
sg21
g147
sa(dp6332
g13
I9780470919620
sg14
VIncropera (Db*)
p6333
sg16
VOptional
p6334
sg18
F116.5
sg19
VEbook
p6335
sg21
g147
sasg33
V379950
p6336
sg35
VE-01
p6337
sasg33
V98021
p6338
sg35
VME415
p6339
sa(dp6340
g5
(lp6341
(dp6342
g8
VANDERSON
p6343
sg10
(lp6344
(dp6345
g13
I9780470496626
sg14
VLee
p6346
sg16
VRequired
p6347
sg18
F150.0
sg19
Nsg21
Nsa(dp6348
g13
I9780470951606
sg14
VLee (Db*)
p6349
sg16
VOptional
p6350
sg18
F105.0
sg19
Nsg21
Nsasg33
V379951
p6351
sg35
VE-01
p6352
sasg33
V98022
p6353
sg35
VME427
p6354
sa(dp6355
g5
(lp6356
(dp6357
g8
VANDERSON
p6358
sg10
(lp6359
(dp6360
g13
I9780201847659
sg14
VBeckwith
p6361
sg16
VRequired
p6362
sg18
F183.75
sg19
VHardback
p6363
sg21
g147
sasg33
V379952
p6364
sg35
VE-01
p6365
sasg33
V98023
p6366
sg35
VME435
p6367
sa(dp6368
g5
(lp6369
(dp6370
g8
VDINSMORE
p6371
sg10
(lp6372
(dp6373
g13
I9780136024583
sg14
VDorf
p6374
sg16
VRequired
p6375
sg18
F171.55
sg19
VHardback
p6376
sg21
V12
p6377
sa(dp6378
g13
I9780136024941
sg14
VDorf (Db*)
p6379
sg16
VOptional
p6380
sg18
F73.0
sg19
VEbook
p6381
sg21
V12
p6382
sasg33
V379954
p6383
sg35
VE-01
p6384
sasg33
V98025
p6385
sg35
VME439
p6386
sa(dp6387
g5
(lp6388
(dp6389
g8
VSHIH
p6390
sg10
(lp6391
sg33
V379956
p6392
sg35
VE-01
p6393
sasg33
V99401
p6394
sg35
VME499
p6395
sa(dp6396
g5
(lp6397
(dp6398
g8
VREZAEI
p6399
sg10
(lp6400
sg33
V379929
p6401
sg35
VE-01
p6402
sa(dp6403
g8
VREZAEI
p6404
sg10
(lp6405
sg33
V379930
p6406
sg35
VE-02
p6407
sasg33
V98006
p6408
sg35
VME220L
p6409
sa(dp6410
g5
(lp6411
(dp6412
g8
VKIM
p6413
sg10
(lp6414
sg33
V380110
p6415
sg35
VE-01
p6416
sasg33
V99501
p6417
sg35
VME224L
p6418
sa(dp6419
g5
(lp6420
(dp6421
g8
VSHIH
p6422
sg10
(lp6423
(dp6424
g13
I9780470767856
sg14
VGilat
p6425
sg16
VRequired
p6426
sg18
F104.0
sg19
VPaperback
p6427
sg21
g524
sa(dp6428
g13
I9780470919491
sg14
VGilat (Db*)
p6429
sg16
VOptional
p6430
sg18
F50.5
sg19
VEbook
p6431
sg21
g524
sasg33
V379932
p6432
sg35
VE-01
p6433
sasg33
V98008
p6434
sg35
VME232A
p6435
sa(dp6436
g5
(lp6437
(dp6438
g8
VXUE
p6439
sg10
(lp6440
sg33
V379938
p6441
sg35
VE-01
p6442
sasg33
V98013
p6443
sg35
VME313L
p6444
sa(dp6445
g5
(lp6446
(dp6447
g8
VKIM
p6448
sg10
(lp6449
sg33
V379945
p6450
sg35
VE-01
p6451
sasg33
V98017
p6452
sg35
VME325L
p6453
sa(dp6454
g5
(lp6455
(dp6456
g8
VVALDEZ
p6457
sg10
(lp6458
sg33
V379946
p6459
sg35
VE-01
p6460
sa(dp6461
g8
VVALDEZ
p6462
sg10
(lp6463
sg33
V379947
p6464
sg35
VE-02
p6465
sasg33
V98018
p6466
sg35
VME350L
p6467
sa(dp6468
g5
(lp6469
(dp6470
g8
VLIPOVETSKY
p6471
sg10
(lp6472
sg33
V379949
p6473
sg35
VE-01
p6474
sasg33
V98020
p6475
sg35
VME406A
p6476
sa(dp6477
g5
(lp6478
(dp6479
g8
VANDERSON
p6480
sg10
(lp6481
sg33
V379953
p6482
sg35
VE-01
p6483
sasg33
V98024
p6484
sg35
VME435L
p6485
sa(dp6486
g5
(lp6487
(dp6488
g8
VDINSMORE
p6489
sg10
(lp6490
sg33
V379955
p6491
sg35
VE-01
p6492
sasg33
V98026
p6493
sg35
VME439L
p6494
sasg406
VME
p6495
sg33
V4821
p6496
sg35
VMECHANICAL ENGR
p6497
sa(dp6498
g2
(lp6499
(dp6500
g5
(lp6501
(dp6502
g8
VDAVIS JR
p6503
sg10
(lp6504
(dp6505
g13
I9781118169254
sg14
VDegarmo*
p6506
sg16
VRequired
p6507
sg18
F124.0
sg19
VSpiral
p6508
sg21
V11
p6509
sasg33
V367852
p6510
sg35
VE-01
p6511
sasg33
V98027
p6512
sg35
VMFE201
p6513
sa(dp6514
g5
(lp6515
(dp6516
g8
VDAVIS JR
p6517
sg10
(lp6518
sg33
V367853
p6519
sg35
VE-01
p6520
sa(dp6521
g8
VDAVIS JR
p6522
sg10
(lp6523
sg33
V367854
p6524
sg35
VE-02
p6525
sasg33
V98028
p6526
sg35
VMFE201L
p6527
sasg406
VMFE
p6528
sg33
V4721
p6529
sg35
VMANUFACTURING ENGR
p6530
sa(dp6531
g2
(lp6532
(dp6533
g5
(lp6534
(dp6535
g8
VALMARAZ
p6536
sg10
(lp6537
sg33
V379957
p6538
sg35
VE-01
p6539
sasg33
V99402
p6540
sg35
VMHR201
p6541
sa(dp6542
g5
(lp6543
(dp6544
g8
VSHARIFZADEH
p6545
sg10
(lp6546
sg33
V379958
p6547
sg35
VE-01
p6548
sasg33
V99403
p6549
sg35
VMHR301
p6550
sa(dp6551
g5
(lp6552
(dp6553
g8
VDELGADO
p6554
sg10
(lp6555
(dp6556
g13
I9780538453158
sg14
VMathis
p6557
sg16
VRequired
p6558
sg18
F213.15
sg19
VHardback
p6559
sg21
V13
p6560
sa(dp6561
g13
I9781111547226
sg14
VMathis (Db*)
p6562
sg16
VOptional
p6563
sg18
F92.0
sg19
VEbook
p6564
sg21
V13
p6565
sasg33
V379959
p6566
sg35
VE-01
p6567
sasg33
V99404
p6568
sg35
VMHR311
p6569
sa(dp6570
g5
(lp6571
(dp6572
g8
VGONZALEZ
p6573
sg10
(lp6574
sg33
V379960
p6575
sg35
VE-01
p6576
sa(dp6577
g8
VMax
p6578
sg10
(lp6579
(dp6580
g13
I9781118129319
sg14
VSchermerhorn
p6581
sg16
VRequired
p6582
sg18
F138.75
sg19
VLooseleaf
p6583
sg21
V12
p6584
sasg33
V379961
p6585
sg35
VE-02
p6586
sasg33
V99405
p6587
sg35
VMHR318
p6588
sa(dp6589
g5
(lp6590
(dp6591
g8
VWORSHAM
p6592
sg10
(lp6593
(dp6594
g13
I9781133430339
sg14
VLongenecker*
p6595
sg16
VRequired
p6596
sg18
F155.8
sg19
VKit/Set/Package
p6597
sg21
V16
p6598
sa(dp6599
g13
I9781111532871
sg14
VLongenecker
p6600
sg16
VPart of Set
p6601
sg18
F227.2
sg19
VHardback
p6602
sg21
V16
p6603
sa(dp6604
g13
I9781111578343
sg14
VLongenecker
p6605
sg16
VPart of Set
p6606
sg18
F112.05
sg19
Nsg21
Nsasg33
V379962
p6607
sg35
VE-01
p6608
sasg33
V99406
p6609
sg35
VMHR320
p6610
sa(dp6611
g5
(lp6612
(dp6613
g8
VWORSHAM
p6614
sg10
(lp6615
(dp6616
g13
I9781111821227
sg14
VGuffey
p6617
sg16
VRequired
p6618
sg18
F162.8
sg19
VPaperback
p6619
sg21
g1017
sa(dp6620
g13
I9781133473459
sg14
VGuffey (Db*)
p6621
sg16
VOptional
p6622
sg18
F80.5
sg19
Nsg21
Nsasg33
V379963
p6623
sg35
VE-01
p6624
sasg33
V99407
p6625
sg35
VMHR324
p6626
sa(dp6627
g5
(lp6628
(dp6629
g8
VMax
p6630
sg10
(lp6631
sg33
V379964
p6632
sg35
VE-01
p6633
sasg33
V99408
p6634
sg35
VMHR401
p6635
sa(dp6636
g5
(lp6637
(dp6638
g8
VDELGADO
p6639
sg10
(lp6640
(dp6641
g13
I9780136078326
sg14
VBlanchard
p6642
sg16
VRequired
p6643
sg18
F134.5
sg19
VPaperback
p6644
sg21
g524
sa(dp6645
g13
I9780136078371
sg14
VBlanchard (Db*)
p6646
sg16
VOptional
p6647
sg18
F57.0
sg19
VEbook
p6648
sg21
g524
sasg33
V379965
p6649
sg35
VE-01
p6650
sasg33
V99409
p6651
sg35
VMHR405
p6652
sa(dp6653
g5
(lp6654
(dp6655
g8
VWATERS
p6656
sg10
(lp6657
(dp6658
g13
I9781121523715
sg14
VWaters
p6659
sg16
VRequired
p6660
sg18
F0.0
sg19
Nsg21
Nsasg33
V379966
p6661
sg35
VE-01
p6662
sasg33
V99410
p6663
sg35
VMHR410
p6664
sa(dp6665
g5
(lp6666
(dp6667
g8
VALMARAZ
p6668
sg10
(lp6669
sg33
V379967
p6670
sg35
VE-01
p6671
sasg33
V99411
p6672
sg35
VMHR441
p6673
sa(dp6674
g5
(lp6675
(dp6676
g8
VSTAFF
p6677
sg10
(lp6678
sg33
V379968
p6679
sg35
VE-01
p6680
sasg33
V99412
p6681
sg35
VMHR442
p6682
sa(dp6683
g5
(lp6684
(dp6685
g8
VEdward
p6686
sg10
(lp6687
(dp6688
g13
I9781578514861
sg14
VGoleman
p6689
sg16
VRequired
p6690
sg18
F26.95
sg19
Nsg21
Nsa(dp6691
g13
I9780060835910
sg14
VRock
p6692
sg16
VRequired
p6693
sg18
F16.0
sg19
Nsg21
Nsa(dp6694
g13
I9780787984915
sg14
VKouzes
p6695
sg16
VRequired
p6696
sg18
F29.95
sg19
VHardback
p6697
sg21
g524
sasg33
V379969
p6698
sg35
VE-01
p6699
sasg33
V99413
p6700
sg35
VMHR450
p6701
sasg406
VMHR
p6702
sg33
V4823
p6703
sg35
VMGMT & HUMAN RESOUR
p6704
sa(dp6705
g2
(lp6706
(dp6707
g5
(lp6708
(dp6709
g8
VSTATHOPOULOS
p6710
sg10
(lp6711
(dp6712
g13
I9780878936854
sg14
VStaley
p6713
sg16
VRequired
p6714
sg18
F144.95
sg19
VHardback
p6715
sg21
g447
sasg33
V367855
p6716
sg35
VE-01
p6717
sasg33
V98029
p6718
sg35
VMIC201
p6719
sa(dp6720
g5
(lp6721
(dp6722
g8
VSTAFF
p6723
sg10
(lp6724
sg33
V367856
p6725
sg35
VE-01
p6726
sa(dp6727
g8
VSTAFF
p6728
sg10
(lp6729
sg33
V367857
p6730
sg35
VE-02
p6731
sa(dp6732
g8
VSTAFF
p6733
sg10
(lp6734
sg33
V367858
p6735
sg35
VE-04
p6736
sasg33
V98030
p6737
sg35
VMIC201L
p6738
sasg406
VMIC
p6739
sg33
V4814
p6740
sg35
VMICROBIOLOGY
p6741
sa(dp6742
g2
(lp6743
(dp6744
g5
(lp6745
(dp6746
g8
VEMERSON
p6747
sg10
(lp6748
sg33
V379970
p6749
sg35
VE-01
p6750
sasg33
V99425
p6751
sg35
VMPA599
p6752
sasg406
VMPA
p6753
sg33
V4824
p6754
sg35
VMASTERS OF PUBLIC AD
p6755
sa(dp6756
g2
(lp6757
(dp6758
g5
(lp6759
(dp6760
g8
VRAVI
p6761
sg10
(lp6762
sg33
V383411
p6763
sg35
V01
p6764
sasg33
V100773
p6765
sg35
VMTE207
p6766
sasg406
VMTE
p6767
sg33
V4726
p6768
sg35
VMATERIALS ENGR
p6769
sa(dp6770
g2
(lp6771
(dp6772
g5
(lp6773
(dp6774
g8
VKOPPLIN
p6775
sg10
(lp6776
(dp6777
g13
I9780977927685
sg14
VConnect Ed
p6778
sg16
VRequired
p6779
sg18
F106.25
sg19
Nsg21
Nsasg33
V379971
p6780
sg35
VE-01
p6781
sasg33
V99414
p6782
sg35
VMU100
p6783
sa(dp6784
g5
(lp6785
(dp6786
g8
VWINER
p6787
sg10
(lp6788
(dp6789
g13
I9780634009594
sg14
VThompson
p6790
sg16
VRequired
p6791
sg18
F25.0
sg19
Nsg21
Nsa(dp6792
g13
I9780240811444
sg14
VBartlett
p6793
sg16
VRequired
p6794
sg18
F46.95
sg19
VPaperback
p6795
sg21
g355
sasg33
V379972
p6796
sg35
VE-13
p6797
sasg33
V99415
p6798
sg35
VMU228
p6799
sa(dp6800
g5
(lp6801
(dp6802
g8
VHUFF
p6803
sg10
(lp6804
sg33
V379973
p6805
sg35
VE-02
p6806
sasg33
V99346
p6807
sg35
VMU310
p6808
sa(dp6809
g5
(lp6810
(dp6811
g8
VWINER
p6812
sg10
(lp6813
sg33
V380111
p6814
sg35
VE-01
p6815
sasg33
V99416
p6816
sg35
VMU392
p6817
sasg406
VMU
p6818
sg33
V4727
p6819
sg35
VMUSIC
p6820
sa(dp6821
g2
(lp6822
(dp6823
g5
(lp6824
(dp6825
g8
VMARKLE
p6826
sg10
(lp6827
(dp6828
g13
I9780495603955
sg14
VSinnott-Armstrong
p6829
sg16
VRequired
p6830
sg18
F70.5
sg19
VPaperback
p6831
sg21
g22
sa(dp6832
g13
I9781439023846
sg14
VSinnott-Armstrong (Db*)
p6833
sg16
VOptional
p6834
sg18
F44.5
sg19
VEbook
p6835
sg21
g22
sasg33
V370486
p6836
sg35
V01
p6837
sasg33
V99349
p6838
sg35
VPHL202
p6839
sasg406
VPHL
p6840
sg33
V4728
p6841
sg35
VPHILOSOPHY
p6842
sa(dp6843
g2
(lp6844
(dp6845
g5
(lp6846
(dp6847
g8
VNawpar
p6848
sg10
(lp6849
(dp6850
g13
I9781256366041
sg14
VWalker*
p6851
sg16
VRequired
p6852
sg18
F141.4
sg19
VKit/Set/Package
p6853
sg21
g524
sa(dp6854
g13
I9781256366034
sg14
VWalker*
p6855
sg16
VRequired
p6856
sg18
F212.5
sg19
VKit/Set/Package
p6857
sg21
g524
sa(dp6858
g13
I9780321611130
sg14
VWalker
p6859
sg16
VPart of Set
p6860
sg18
F113.75
sg19
VPaperback
p6861
sg21
g524
sa(dp6862
g13
I9780321611116
sg14
VWalker
p6863
sg16
VPart of Set
p6864
sg18
F163.0
sg19
VHardback
p6865
sg21
g524
sa(dp6866
g13
I9780558422882
sg14
VWalker
p6867
sg16
VPart of Set
p6868
sg18
F59.5
sg19
Nsg21
Nsasg33
V367859
p6869
sg35
VE-01
p6870
sasg33
V98031
p6871
sg35
VPHY121
p6872
sa(dp6873
g5
(lp6874
(dp6875
g8
VRhee
p6876
sg10
(lp6877
(dp6878
g13
I9781256366041
sg14
VWalker*
p6879
sg16
VRequired
p6880
sg18
F141.4
sg19
VKit/Set/Package
p6881
sg21
g524
sa(dp6882
g13
I9781256366034
sg14
VWalker*
p6883
sg16
VRequired
p6884
sg18
F212.5
sg19
VKit/Set/Package
p6885
sg21
g524
sa(dp6886
g13
I9781256363415
sg14
VWalker*
p6887
sg16
VRequired
p6888
sg18
F135.0
sg19
VKit/Set/Package
p6889
sg21
g524
sa(dp6890
g13
I9780321611130
sg14
VWalker
p6891
sg16
VPart of Set
p6892
sg18
F113.75
sg19
VPaperback
p6893
sg21
g524
sa(dp6894
g13
I9780321611116
sg14
VWalker
p6895
sg16
VPart of Set
p6896
sg18
F163.0
sg19
VHardback
p6897
sg21
g524
sa(dp6898
g13
I9780321611123
sg14
VWalker
p6899
sg16
VPart of Set
p6900
sg18
F111.6
sg19
VPaperback
p6901
sg21
g524
sasg33
V367861
p6902
sg35
VE-01
p6903
sasg33
V98033
p6904
sg35
VPHY122
p6905
sa(dp6906
g5
(lp6907
(dp6908
g8
VKhakpour
p6909
sg10
(lp6910
(dp6911
g13
I9781256366034
sg14
VWalker*
p6912
sg16
VRequired
p6913
sg18
F212.5
sg19
VKit/Set/Package
p6914
sg21
g524
sa(dp6915
g13
I9781256363415
sg14
VWalker*
p6916
sg16
VRequired
p6917
sg18
F135.0
sg19
VKit/Set/Package
p6918
sg21
g524
sa(dp6919
g13
I9780321601995
sg14
VWalker
p6920
sg16
VOptional
p6921
sg18
F32.2
sg19
VPaperback
p6922
sg21
g524
sa(dp6923
g13
I9780321611116
sg14
VWalker
p6924
sg16
VPart of Set
p6925
sg18
F163.0
sg19
VHardback
p6926
sg21
g524
sa(dp6927
g13
I9780321611123
sg14
VWalker
p6928
sg16
VPart of Set
p6929
sg18
F111.6
sg19
VPaperback
p6930
sg21
g524
sasg33
V367863
p6931
sg35
VE-01
p6932
sasg33
V98035
p6933
sg35
VPHY123
p6934
sa(dp6935
g5
(lp6936
(dp6937
g8
VLAM
p6938
sg10
(lp6939
(dp6940
g13
I9781118309193
sg14
VHalliday (Sw2)
p6941
sg16
VRequired
p6942
sg18
F120.65
sg19
VKit/Set/Package
p6943
sg21
g1017
sa(dp6944
g13
I9781118144374
sg14
VHalliday
p6945
sg16
VPart of Set
p6946
sg18
F114.0
sg19
VLooseleaf
p6947
sg21
g1017
sa(dp6948
g13
I9780470524725
sg14
VHalliday/Wiley
p6949
sg16
VPart of Set
p6950
sg18
F100.0
sg19
VAccess Code
p6951
sg21
g1017
sasg33
V367865
p6952
sg35
VE-01
p6953
sasg33
V98037
p6954
sg35
VPHY131
p6955
sa(dp6956
g5
(lp6957
(dp6958
g8
VCHRISTENSEN  JR
p6959
sg10
(lp6960
(dp6961
g13
I9781118309193
sg14
VHalliday (Sw2)
p6962
sg16
VRequired
p6963
sg18
F120.65
sg19
VKit/Set/Package
p6964
sg21
g1017
sa(dp6965
g13
I9781118144374
sg14
VHalliday
p6966
sg16
VPart of Set
p6967
sg18
F114.0
sg19
VLooseleaf
p6968
sg21
g1017
sa(dp6969
g13
I9780470524725
sg14
VHalliday/Wiley
p6970
sg16
VPart of Set
p6971
sg18
F100.0
sg19
VAccess Code
p6972
sg21
g1017
sasg33
V367867
p6973
sg35
VE-01
p6974
sasg33
V98039
p6975
sg35
VPHY132
p6976
sa(dp6977
g5
(lp6978
(dp6979
g8
VMYLANDER
p6980
sg10
(lp6981
(dp6982
g13
I9781118309193
sg14
VHalliday (Sw2)
p6983
sg16
VRequired
p6984
sg18
F120.65
sg19
VKit/Set/Package
p6985
sg21
g1017
sa(dp6986
g13
I9781118144374
sg14
VHalliday
p6987
sg16
VPart of Set
p6988
sg18
F114.0
sg19
VLooseleaf
p6989
sg21
g1017
sa(dp6990
g13
I9780470524725
sg14
VHalliday/Wiley
p6991
sg16
VPart of Set
p6992
sg18
F100.0
sg19
VAccess Code
p6993
sg21
g1017
sasg33
V367869
p6994
sg35
VE-01
p6995
sasg33
V98041
p6996
sg35
VPHY133
p6997
sa(dp6998
g5
(lp6999
(dp7000
g8
VShareghi
p7001
sg10
(lp7002
sg33
V367860
p7003
sg35
VE-11
p7004
sa(dp7005
g8
VSTAFF,
p7006
sg10
(lp7007
sg33
V379816
p7008
sg35
VE-12
p7009
sasg33
V98032
p7010
sg35
VPHY121L
p7011
sa(dp7012
g5
(lp7013
(dp7014
g8
VRhee
p7015
sg10
(lp7016
sg33
V367862
p7017
sg35
VE-11
p7018
sa(dp7019
g8
VSTAFF,
p7020
sg10
(lp7021
sg33
V379817
p7022
sg35
VE-12
p7023
sasg33
V98034
p7024
sg35
VPHY122L
p7025
sa(dp7026
g5
(lp7027
(dp7028
g8
VKhakpour
p7029
sg10
(lp7030
sg33
V367864
p7031
sg35
VE-11
p7032
sa(dp7033
g8
VSTAFF,
p7034
sg10
(lp7035
sg33
V379818
p7036
sg35
VE-12
p7037
sasg33
V98036
p7038
sg35
VPHY123L
p7039
sa(dp7040
g5
(lp7041
(dp7042
g8
VLAM
p7043
sg10
(lp7044
sg33
V367866
p7045
sg35
VE-11
p7046
sa(dp7047
g8
VSTAFF,
p7048
sg10
(lp7049
sg33
V379819
p7050
sg35
VE-12
p7051
sasg33
V98038
p7052
sg35
VPHY131L
p7053
sa(dp7054
g5
(lp7055
(dp7056
g8
VBenzahra
p7057
sg10
(lp7058
sg33
V367868
p7059
sg35
VE-11
p7060
sa(dp7061
g8
VBenzahra
p7062
sg10
(lp7063
sg33
V379820
p7064
sg35
VE-12
p7065
sasg33
V98040
p7066
sg35
VPHY132L
p7067
sa(dp7068
g5
(lp7069
(dp7070
g8
VMYLANDER
p7071
sg10
(lp7072
sg33
V367870
p7073
sg35
VE-11
p7074
sa(dp7075
g8
VSTAFF,
p7076
sg10
(lp7077
sg33
V379821
p7078
sg35
VE-12
p7079
sasg33
V98042
p7080
sg35
VPHY133L
p7081
sasg406
VPHY
p7082
sg33
V4828
p7083
sg35
VPHYSICS
p7084
sa(dp7085
g2
(lp7086
(dp7087
g5
(lp7088
(dp7089
g8
VREESE
p7090
sg10
(lp7091
(dp7092
g13
I9780759392809
sg14
VSquire
p7093
sg16
VRequired
p7094
sg18
F92.5
sg19
VPaperback
p7095
sg21
g355
sasg33
V379975
p7096
sg35
VE-01
p7097
sa(dp7098
g8
VREESE
p7099
sg10
(lp7100
sg33
V383412
p7101
sg35
VE-02
p7102
sasg33
V99417
p7103
sg35
VPLS201
p7104
sa(dp7105
g5
(lp7106
(dp7107
g8
VEMERSON
p7108
sg10
(lp7109
sg33
V379977
p7110
sg35
VE-01
p7111
sasg33
V99419
p7112
sg35
VPLS205
p7113
sa(dp7114
g5
(lp7115
(dp7116
g8
VREESE
p7117
sg10
(lp7118
sg33
V379979
p7119
sg35
VE-01
p7120
sa(dp7121
g8
VREESE
p7122
sg10
(lp7123
sg33
V383413
p7124
sg35
VE-02
p7125
sasg33
V99421
p7126
sg35
VPLS382
p7127
sa(dp7128
g5
(lp7129
(dp7130
g8
VEMERSON
p7131
sg10
(lp7132
sg33
V379978
p7133
sg35
VE-01
p7134
sasg33
V99420
p7135
sg35
VPLS205A
p7136
sasg406
VPLS
p7137
sg33
V4825
p7138
sg35
VPOLITICAL SCIENCE
p7139
sa(dp7140
g2
(lp7141
(dp7142
g5
(lp7143
(dp7144
g8
VKaufmann
p7145
sg10
(lp7146
(dp7147
g13
I9780738003351
sg14
VKaae
p7148
sg16
VRequired
p7149
sg18
F44.55
sg19
VSpiral
p7150
sg21
V5R
p7151
sasg33
V370485
p7152
sg35
VE-01
p7153
sasg33
V99348
p7154
sg35
VPLT300
p7155
sasg406
VPLT
p7156
sg33
V4826
p7157
sg35
VPLANT SCIENCES
p7158
sa(dp7159
g2
(lp7160
(dp7161
g5
(lp7162
(dp7163
g8
VTHOMAS
p7164
sg10
(lp7165
(dp7166
g13
I9781133618904
sg14
VWeiten*
p7167
sg16
VRequired
p7168
sg18
F124.0
sg19
VKit/Set/Package
p7169
sg21
V10
p7170
sa(dp7171
g13
I9781111561352
sg14
VWeiten (Db*)
p7172
sg16
VOptional
p7173
sg18
F90.0
sg19
VEbook
p7174
sg21
V10
p7175
sa(dp7176
g13
I9781133445265
sg14
VCengage/Weiten*
p7177
sg16
VPart of Set
p7178
sg18
F25.0
sg19
VAccess Code
p7179
sg21
V10
p7180
sa(dp7181
g13
I9781111297985
sg14
VWeiten
p7182
sg16
VPart of Set
p7183
sg18
F108.35
sg19
VPaperback
p7184
sg21
V10
p7185
sasg33
V367871
p7186
sg35
VE-01
p7187
sasg33
V98043
p7188
sg35
VPSY201
p7189
sa(dp7190
g5
(lp7191
(dp7192
g8
VVon Glahn
p7193
sg10
(lp7194
(dp7195
g13
I9780470392225
sg14
VWitte
p7196
sg16
VRequired
p7197
sg18
F182.5
sg19
VHardback
p7198
sg21
g1017
sa(dp7199
g13
I9780470566114
sg14
VWitte (Db*)
p7200
sg16
VOptional
p7201
sg18
F93.5
sg19
VEbook
p7202
sg21
g1017
sasg33
V367873
p7203
sg35
VE-01
p7204
sasg33
V98044
p7205
sg35
VPSY307
p7206
sa(dp7207
g5
(lp7208
(dp7209
g8
VSTURGES
p7210
sg10
(lp7211
(dp7212
g13
I9780078035197
sg14
VTaylor
p7213
sg16
VRequired
p7214
sg18
F181.25
sg19
VHardback
p7215
sg21
g22
sa(dp7216
g13
I9780077378318
sg14
VTaylor (Db*)
p7217
sg16
VOptional
p7218
sg18
F95.0
sg19
VEbook
p7219
sg21
g22
sasg33
V367875
p7220
sg35
VE-01
p7221
sasg33
V98046
p7222
sg35
VPSY326
p7223
sa(dp7224
g5
(lp7225
(dp7226
g8
VHORNER
p7227
sg10
(lp7228
(dp7229
g13
I9780205579808
sg14
VFoley
p7230
sg16
VRequired
p7231
sg18
F130.4
sg19
VHardback
p7232
sg21
g355
sa(dp7233
g13
I9780205654376
sg14
VFoley (Db*)
p7234
sg16
VOptional
p7235
sg18
F51.0
sg19
VEbook
p7236
sg21
g355
sasg33
V367876
p7237
sg35
VE-01
p7238
sasg33
V98047
p7239
sg35
VPSY460
p7240
sa(dp7241
g5
(lp7242
(dp7243
g8
VVon Glahn
p7244
sg10
(lp7245
sg33
V367874
p7246
sg35
VE-01
p7247
sasg33
V98045
p7248
sg35
VPSY307A
p7249
sa(dp7250
g5
(lp7251
(dp7252
g8
VHORNER
p7253
sg10
(lp7254
sg33
V367877
p7255
sg35
VE-01
p7256
sasg33
V98048
p7257
sg35
VPSY460A
p7258
sasg406
VPSY
p7259
sg33
V4829
p7260
sg35
VPSYCHOLOGY
p7261
sa(dp7262
g2
(lp7263
(dp7264
g5
(lp7265
(dp7266
g8
VSTAFF
p7267
sg10
(lp7268
(dp7269
g13
I9780495094685
sg14
VBabbie
p7270
sg16
VRequired
p7271
sg18
F118.35
sg19
VPaperback
p7272
sg21
g524
sa(dp7273
g13
I9780495517467
sg14
VBabbie (Db*)
p7274
sg16
VOptional
p7275
sg18
F60.0
sg19
VEbook
p7276
sg21
g524
sasg33
V367878
p7277
sg35
VE-01
p7278
sasg33
V98049
p7279
sg35
VSOC204
p7280
sa(dp7281
g5
(lp7282
(dp7283
g8
VSTAFF
p7284
sg10
(lp7285
(dp7286
g13
I9780761929949
sg14
VBeckett
p7287
sg16
VRequired
p7288
sg18
F53.0
sg19
VPaperback
p7289
sg21
g447
sa(dp7290
g13
I9780802141446
sg14
VShakur
p7291
sg16
VRequired
p7292
sg18
F14.95
sg19
Nsg21
Nsa(dp7293
g13
I9781583227435
sg14
VLoo
p7294
sg16
VRequired
p7295
sg18
F17.95
sg19
VPaperback
p7296
sg21
V97
p7297
sa(dp7298
g13
I9780132350068
sg14
VBarkan
p7299
sg16
VRequired
p7300
sg18
F120.05
sg19
VHardback
p7301
sg21
g524
sa(dp7302
g13
I9780135031834
sg14
VBarkan (Db*)
p7303
sg16
VOptional
p7304
sg18
F64.0
sg19
VEbook
p7305
sg21
g524
sasg33
V367879
p7306
sg35
VE-01
p7307
sasg33
V98050
p7308
sg35
VSOC302
p7309
sasg406
VSOC
p7310
sg33
V4830
p7311
sg35
VSOCIOLOGY
p7312
sa(dp7313
g2
(lp7314
(dp7315
g5
(lp7316
(dp7317
g8
VDICKSON
p7318
sg10
(lp7319
(dp7320
g13
I9781428250246
sg14
VLong* (Sw2)
p7321
sg16
VRequired
p7322
sg18
F125.6
sg19
VKit/Set/Package
p7323
sg21
g447
sa(dp7324
g13
I9781111006990
sg14
VLong*
p7325
sg16
VPart of Set
p7326
sg18
F80.0
sg19
VPaperback
p7327
sg21
g447
sasg33
V367880
p7328
sg35
VE-01
p7329
sa(dp7330
g8
VVogel
p7331
sg10
(lp7332
(dp7333
g13
I9781428250246
sg14
VLong* (Sw2)
p7334
sg16
VRequired
p7335
sg18
F125.6
sg19
VKit/Set/Package
p7336
sg21
g447
sa(dp7337
g13
I9781111006990
sg14
VLong*
p7338
sg16
VPart of Set
p7339
sg18
F80.0
sg19
VPaperback
p7340
sg21
g447
sasg33
V367881
p7341
sg35
VE-02
p7342
sasg33
V98051
p7343
sg35
VSPN151
p7344
sasg406
VSPN
p7345
sg33
V4736
p7346
sg35
VSPANISH
p7347
sa(dp7348
g2
(lp7349
(dp7350
g5
(lp7351
(dp7352
g8
VKIM
p7353
sg10
(lp7354
(dp7355
g13
I9781118299876
sg14
VMann
p7356
sg16
VRequired
p7357
sg18
F105.35
sg19
VPaperback
p7358
sg21
g66
sasg33
V367882
p7359
sg35
VE-01
p7360
sa(dp7361
g8
VGILL
p7362
sg10
(lp7363
(dp7364
g13
I9781118299876
sg14
VMann
p7365
sg16
VRequired
p7366
sg18
F105.35
sg19
VPaperback
p7367
sg21
g66
sasg33
V367883
p7368
sg35
VE-02
p7369
sa(dp7370
g8
VGILL
p7371
sg10
(lp7372
(dp7373
g13
I9781118299876
sg14
VMann
p7374
sg16
VRequired
p7375
sg18
F105.35
sg19
VPaperback
p7376
sg21
g66
sasg33
V367884
p7377
sg35
VE-03
p7378
sasg33
V98052
p7379
sg35
VSTA120
p7380
sa(dp7381
g5
(lp7382
(dp7383
g8
VGILL
p7384
sg10
(lp7385
(dp7386
g13
I9780321640772
sg14
VJohnson
p7387
sg16
VRequired
p7388
sg18
F150.0
sg19
VHardback
p7389
sg21
g22
sa(dp7390
g13
I9780321641724
sg14
VJohnson (Db*)
p7391
sg16
VOptional
p7392
sg18
F64.0
sg19
VEbook
p7393
sg21
g22
sasg33
V367885
p7394
sg35
VE-01
p7395
sasg33
V98053
p7396
sg35
VSTA309
p7397
sasg406
VSTA
p7398
sg33
V4739
p7399
sg35
VSTATISTICS
p7400
sa(dp7401
g2
(lp7402
(dp7403
g5
(lp7404
(dp7405
g8
VDjonne
p7406
sg10
(lp7407
(dp7408
g13
I9780534274252
sg14
VWiseman
p7409
sg16
VRequired
p7410
sg18
F118.65
sg19
VPaperback
p7411
sg21
g100
sa(dp7412
g13
I9780805880502
sg14
VZeichner
p7413
sg16
VRequired
p7414
sg18
F22.95
sg19
Nsg21
Nsasg33
V367886
p7415
sg35
VE-01
p7416
sasg33
V98054
p7417
sg35
VTED405
p7418
sa(dp7419
g5
(lp7420
(dp7421
g8
VFINE
p7422
sg10
(lp7423
(dp7424
g13
I9780205459469
sg14
VWoolfolk
p7425
sg16
VRequired
p7426
sg18
F152.5
sg19
VPaperback
p7427
sg21
V10
p7428
sa(dp7429
g13
I9780137144549
sg14
VWoolfolk
p7430
sg16
VRequired
p7431
sg18
F148.75
sg19
VPaperback
p7432
sg21
V11
p7433
sa(dp7434
g13
I9780136064138
sg14
VWoolfolk (Db*)
p7435
sg16
VOptional
p7436
sg18
F100.0
sg19
VEbook
p7437
sg21
V11
p7438
sa(dp7439
g13
I9780137034666
sg14
VCharles (Db*)
p7440
sg16
VOptional
p7441
sg18
F35.0
sg19
VEbook
p7442
sg21
V10
p7443
sa(dp7444
g13
I9780137034055
sg14
VCharles
p7445
sg16
VOptional
p7446
sg18
F86.65
sg19
VPaperback
p7447
sg21
V10
p7448
sasg33
V367887
p7449
sg35
VE-01
p7450
sasg33
V98055
p7451
sg35
VTED406
p7452
sa(dp7453
g5
(lp7454
(dp7455
g8
VNAVARRO
p7456
sg10
(lp7457
sg33
V367888
p7458
sg35
VE-01
p7459
sasg33
V98056
p7460
sg35
VTED407
p7461
sa(dp7462
g5
(lp7463
(dp7464
g8
VSTAFF
p7465
sg10
(lp7466
sg33
V380207
p7467
sg35
V01
p7468
sasg33
V100649
p7469
sg35
VTED441
p7470
sasg406
VTED
p7471
sg33
V4831
p7472
sg35
VTEACHER EDUCATION
p7473
sa(dp7474
g2
(lp7475
(dp7476
g5
(lp7477
(dp7478
g8
VBISESTI
p7479
sg10
(lp7480
sg33
V379982
p7481
sg35
VE-01
p7482
sasg33
V99424
p7483
sg35
VTH441L
p7484
sasg406
VTH
p7485
sg33
V4742
p7486
sg35
VTHEATRE
p7487
sa(dp7488
g2
(lp7489
(dp7490
g5
(lp7491
(dp7492
g8
VXU
p7493
sg10
(lp7494
(dp7495
g13
I9780538479134
sg14
VCollier
p7496
sg16
VRequired
p7497
sg18
F59.95
sg19
VPaperback
p7498
sg21
g100
sa(dp7499
g13
I9781133148678
sg14
VCollier (Db*)
p7500
sg16
VOptional
p7501
sg18
F60.0
sg19
VEbook
p7502
sg21
g100
sasg33
V367889
p7503
sg35
VE-01
p7504
sa(dp7505
g8
VXU
p7506
sg10
(lp7507
(dp7508
g13
I9780538479134
sg14
VCollier
p7509
sg16
VRequired
p7510
sg18
F59.95
sg19
VPaperback
p7511
sg21
g100
sa(dp7512
g13
I9781133148678
sg14
VCollier (Db*)
p7513
sg16
VOptional
p7514
sg18
F60.0
sg19
VEbook
p7515
sg21
g100
sasg33
V367890
p7516
sg35
VE-02
p7517
sa(dp7518
g8
VSTAFF
p7519
sg10
(lp7520
sg33
V380208
p7521
sg35
VE-03
p7522
sasg33
V98057
p7523
sg35
VTOM301
p7524
sa(dp7525
g5
(lp7526
(dp7527
g8
VHE
p7528
sg10
(lp7529
(dp7530
g13
I9781111634261
sg14
VWeiers* (Cp)
p7531
sg16
VRequired
p7532
sg18
F150.0
sg19
VLooseleaf
p7533
sg21
g66
sasg33
V367891
p7534
sg35
VE-01
p7535
sa(dp7536
g8
VCO
p7537
sg10
(lp7538
(dp7539
g13
I9781111634261
sg14
VWeiers* (Cp)
p7540
sg16
VRequired
p7541
sg18
F150.0
sg19
VLooseleaf
p7542
sg21
g66
sasg33
V367892
p7543
sg35
VE-02
p7544
sa(dp7545
g8
VCO
p7546
sg10
(lp7547
(dp7548
g13
I9781111634261
sg14
VWeiers* (Cp)
p7549
sg16
VRequired
p7550
sg18
F150.0
sg19
VLooseleaf
p7551
sg21
g66
sasg33
V367893
p7552
sg35
VE-03
p7553
sa(dp7554
g8
VHALATI
p7555
sg10
(lp7556
(dp7557
g13
I9781111634261
sg14
VWeiers* (Cp)
p7558
sg16
VRequired
p7559
sg18
F150.0
sg19
VLooseleaf
p7560
sg21
g66
sasg33
V367894
p7561
sg35
VE-04
p7562
sasg33
V98058
p7563
sg35
VTOM302
p7564
sa(dp7565
g5
(lp7566
(dp7567
g8
VHE
p7568
sg10
(lp7569
(dp7570
g13
I9780131076594
sg14
VBallou
p7571
sg16
VRequired
p7572
sg18
F178.15
sg19
VHardback
p7573
sg21
g355
sasg33
V367895
p7574
sg35
VE-01
p7575
sasg33
V98059
p7576
sg35
VTOM309
p7577
sa(dp7578
g5
(lp7579
(dp7580
g8
VHALATI
p7581
sg10
(lp7582
(dp7583
g13
I9781439043271
sg14
VAnderson
p7584
sg16
VRequired
p7585
sg18
F220.65
sg19
VHardback
p7586
sg21
V13
p7587
sa(dp7588
g13
I9781111278526
sg14
VAnderson (Db*)
p7589
sg16
VOptional
p7590
sg18
F102.0
sg19
VEbook
p7591
sg21
V13
p7592
sasg33
V367896
p7593
sg35
VE-01
p7594
sasg33
V98060
p7595
sg35
VTOM315
p7596
sa(dp7597
g5
(lp7598
(dp7599
g8
VSTAFF
p7600
sg10
(lp7601
(dp7602
g13
I9780077284091
sg14
VStevenson*
p7603
sg16
VRequired
p7604
sg18
F195.95
sg19
VHardback
p7605
sg21
V10
p7606
sa(dp7607
g13
I9780077271459
sg14
VStevenson (Db*)
p7608
sg16
VOptional
p7609
sg18
F113.5
sg19
VEbook
p7610
sg21
V10
p7611
sa(dp7612
g13
I9780073377841
sg14
VStevenson
p7613
sg16
VPart of Set
p7614
sg18
F156.75
sg19
VHardback
p7615
sg21
V10
p7616
sasg33
V367897
p7617
sg35
VE-01
p7618
sasg33
V98061
p7619
sg35
VTOM332
p7620
sa(dp7621
g5
(lp7622
(dp7623
g8
VRHODES
p7624
sg10
(lp7625
(dp7626
g13
I9781450068925
sg14
VRhodes
p7627
sg16
VRequired
p7628
sg18
F16.0
sg19
Nsg21
Nsa(dp7629
g13
I9780136006695
sg14
VHunger
p7630
sg16
VRequired
p7631
sg18
F104.0
sg19
VPaperback
p7632
sg21
g355
sa(dp7633
g13
I9780135100004
sg14
VHunger (Db*)
p7634
sg16
VOptional
p7635
sg18
F42.0
sg19
VEbook
p7636
sg21
g355
sasg33
V367898
p7637
sg35
VE-01
p7638
sasg33
V98062
p7639
sg35
VTOM411
p7640
sasg406
VTOM
p7641
sg33
V4809
p7642
sg35
VTECH & OPER MGMT
p7643
sa(dp7644
g2
(lp7645
(dp7646
g5
(lp7647
(dp7648
g8
VDELGADO
p7649
sg10
(lp7650
sg33
V367899
p7651
sg35
VE-01
p7652
sasg33
V98063
p7653
sg35
VURP104
p7654
sa(dp7655
g5
(lp7656
(dp7657
g8
VZIMMER
p7658
sg10
(lp7659
sg33
V367900
p7660
sg35
VE-01
p7661
sasg33
V98064
p7662
sg35
VURP466
p7663
sa(dp7664
g5
(lp7665
(dp7666
g8
VDELGADO
p7667
sg10
(lp7668
sg33
V367901
p7669
sg35
VE-01
p7670
sasg33
V98072
p7671
sg35
VURP475
p7672
sa(dp7673
g5
(lp7674
(dp7675
g8
VDELGADO
p7676
sg10
(lp7677
sg33
V367902
p7678
sg35
VE-01
p7679
sa(dp7680
g8
VZIMMER
p7681
sg10
(lp7682
sg33
V367903
p7683
sg35
VE-02
p7684
sasg33
V98065
p7685
sg35
VURP499
p7686
sasg406
VURP
p7687
sg33
V4744
p7688
sg35
VURBAN & REG PLANNING
p7689
sa(dp7690
g2
(lp7691
(dp7692
g5
(lp7693
(dp7694
g8
VKIDD
p7695
sg10
(lp7696
(dp7697
g13
I9780073378091
sg14
VMckinley
p7698
sg16
VRequired
p7699
sg18
F227.2
sg19
VHardback
p7700
sg21
g100
sa(dp7701
g13
I9780077308919
sg14
VMckinley (Db*)
p7702
sg16
VOptional
p7703
sg18
F121.25
sg19
VEbook
p7704
sg21
g100
sasg33
V367904
p7705
sg35
VE-01
p7706
sasg33
V98066
p7707
sg35
VZOO234
p7708
sa(dp7709
g5
(lp7710
(dp7711
g8
VSPENCER
p7712
sg10
(lp7713
(dp7714
g13
I9780077350062
sg14
VFox
p7715
sg16
VRequired
p7716
sg18
F193.75
sg19
VHardback
p7717
sg21
V12
p7718
sasg33
V367909
p7719
sg35
VE-01
p7720
sasg33
V98068
p7721
sg35
VZOO235
p7722
sa(dp7723
g5
(lp7724
(dp7725
g8
VSTAFF
p7726
sg10
(lp7727
sg33
V367905
p7728
sg35
VE-01
p7729
sa(dp7730
g8
VSTAFF
p7731
sg10
(lp7732
sg33
V367906
p7733
sg35
VE-02
p7734
sa(dp7735
g8
VSTAFF
p7736
sg10
(lp7737
sg33
V367907
p7738
sg35
VE-03
p7739
sa(dp7740
g8
VSTAFF
p7741
sg10
(lp7742
sg33
V367908
p7743
sg35
VE-04
p7744
sasg33
V98067
p7745
sg35
VZOO234L
p7746
sa(dp7747
g5
(lp7748
(dp7749
g8
VSTAFF
p7750
sg10
(lp7751
sg33
V367910
p7752
sg35
VE-01
p7753
sa(dp7754
g8
VSTAFF
p7755
sg10
(lp7756
sg33
V367911
p7757
sg35
VE-02
p7758
sa(dp7759
g8
VSTAFF
p7760
sg10
(lp7761
sg33
V367912
p7762
sg35
VE-03
p7763
sa(dp7764
g8
VSTAFF
p7765
sg10
(lp7766
sg33
V367913
p7767
sg35
VE-04
p7768
sasg33
V98069
p7769
sg35
VZOO235L
p7770
sasg406
VZOO
p7771
sg33
V4745
p7772
sg35
VZOOLOGY
p7773
sa.