(lp0
(dp1
S'courses'
p2
(lp3
(dp4
S'sections'
p5
(lp6
(dp7
S'instructor'
p8
VSTAFF
p9
sS'books'
p10
(lp11
(dp12
S'ISBN'
p13
I9781256729952
sS'author'
p14
VHarrison*
p15
sS'isRequired'
p16
VRequired
p17
sS'title'
p18
VFinancial Accounting W/Quickbooks Pro & Myaccountinglab
p19
sS'binding'
p20
VKit/Set/Package
p21
sS'edition'
p22
V8
p23
sS'broncoListPrice'
p24
F136.25
sa(dp25
g13
I9780137024315
sg14
VHarrison
p26
sg16
VPart of Set
p27
sg18
VFinancial Accounting Sve
p28
sg20
VLooseleaf
p29
sg22
g23
sg24
F126.25
sa(dp30
g13
I9780132970907
sg14
VPearson
p31
sg16
VPart of Set
p32
sg18
VMyacctglab W/Ebook
p33
sg20
Nsg22
Nsg24
F123.55
sa(dp34
g13
I9780132166638
sg14
VHorne
p35
sg16
VPart of Set
p36
sg18
VQuickbooks Pro 2010 Comp Crs (W/Cd Only)
p37
sg20
Nsg22
Nsg24
F146.65
sasS'id'
p38
V379834
p39
sS'name'
p40
VE-01
p41
sasg38
V97931
p42
sg40
VACC207
p43
sa(dp44
g5
(lp45
(dp46
g8
VSTAFF
p47
sg10
(lp48
(dp49
g13
I9781256432364
sg14
VBraun*
p50
sg16
VRequired
p51
sg18
VManagerial Accounting W/Myaccountinglab (Custom)
p52
sg20
Nsg22
Nsg24
F130.4
sa(dp53
g13
I9781256366133
sg14
VBraun
p54
sg16
VPart of Set
p55
sg18
VManagerial Accounting (Custom)
p56
sg20
Nsg22
Nsg24
F124.8
sa(dp57
g13
I9780132920230
sg14
VPearson
p58
sg16
VPart of Set
p59
sg18
VMyaccountinglab T/A Managerial Accounting (New)
p60
sg20
Nsg22
Nsg24
F117.65
sasg38
V379836
p61
sg40
VE-01
p62
sasg38
V97770
p63
sg40
VACC208
p64
sa(dp65
g5
(lp66
(dp67
g8
VMARTIN
p68
sg10
(lp69
(dp70
g13
I9780912503271
sg14
VArens
p71
sg16
VRequired
p72
sg18
VSystems Understanding Aid
p73
sg20
VPaperback
p74
sg22
V7
p75
sg24
F57.0
sa(dp76
g13
I9780132552622
sg14
VRomney
p77
sg16
VRequired
p78
sg18
VAccounting Information Systems
p79
sg20
VHardback
p80
sg22
V12
p81
sg24
F218.75
sa(dp82
g13
I9781439079010
sg14
VShelly
p83
sg16
VRequired
p84
sg18
VMicrosoft Excel 2010 Comprehensive
p85
sg20
Nsg22
Nsg24
F128.35
sa(dp86
g13
I9780136068600
sg14
VMay (Db*)
p87
sg16
VOptional
p88
sg18
VEffective Writing: Handbook For Accountants (Coursesmart Digital)
p89
sg20
VEbook
p90
sg22
g23
sg24
F24.0
sa(dp91
g13
I9780132552639
sg14
VRomney (Db*)
p92
sg16
VOptional
p93
sg18
VAccounting Information Systems (Coursesmart)
p94
sg20
VEbook
p95
sg22
V12
p96
sg24
F93.0
sa(dp97
g13
I9781111548216
sg14
VShelly (Db*)
p98
sg16
VOptional
p99
sg18
VMicrosoft Excel 2010 (Coursesmart)
p100
sg20
Nsg22
Nsg24
F52.0
sasg38
V379838
p101
sg40
VE-01
p102
sasg38
V97772
p103
sg40
VACC304
p104
sa(dp105
g5
(lp106
(dp107
g8
VMARTIN
p108
sg10
(lp109
(dp110
g13
I9780072404296
sg14
VDunn
p111
sg16
VRequired
p112
sg18
VEnterprise Information Systems
p113
sg20
VHardback
p114
sg22
V3
p115
sg24
F184.7
sa(dp116
g13
I9781439079027
sg14
VShelly
p117
sg16
VRequired
p118
sg18
VMicrosoft Access 2010 Comprehensive
p119
sg20
Nsg22
Nsg24
F122.35
sa(dp120
g13
I9781111548643
sg14
VShelly (Db*)
p121
sg16
VOptional
p122
sg18
VMicrosoft Access 2010 (Coursesmart)
p123
sg20
Nsg22
Nsg24
F52.0
sasg38
V379839
p124
sg40
VE-01
p125
sasg38
V97773
p126
sg40
VACC305
p127
sa(dp128
g5
(lp129
(dp130
g8
VAHADIAT
p131
sg10
(lp132
(dp133
g13
I9780132960649
sg14
VHorngren*
p134
sg16
VRequired
p135
sg18
VCost Accounting W/Myaccountinglab & Etext Access Code
p136
sg20
VKit/Set/Package
p137
sg22
V14
p138
sg24
F225.0
sa(dp139
g13
I9780132109949
sg14
VHorngren (Db*)
p140
sg16
VOptional
p141
sg18
VCost Accounting (Coursesmart)
p142
sg20
VEbook
p143
sg22
V14
p144
sg24
F93.0
sa(dp145
g13
I9780132109178
sg14
VHorngren
p146
sg16
VPart of Set
p147
sg18
VCost Accounting
p148
sg20
VHardback
p149
sg22
V14
p150
sg24
F200.0
sa(dp151
g13
I9780132914451
sg14
VPearson
p152
sg16
VPart of Set
p153
sg18
VMyaccountinglab W/Etext
p154
sg20
Nsg22
Nsg24
F117.65
sasg38
V379840
p155
sg40
VE-01
p156
sasg38
V97774
p157
sg40
VACC307
p158
sa(dp159
g5
(lp160
(dp161
g8
VHEFZI
p162
sg10
(lp163
(dp164
g13
I9780077585402
sg14
VSpiceland*
p165
sg16
VRequired
p166
sg18
VIntermediate Accounting (Custom) W/Connect Plus & Annual Report
p167
sg20
VKit/Set/Package
p168
sg22
V6
p169
sg24
F145.35
sa(dp170
g13
I9780077328962
sg14
VSpiceland (Db*)
p171
sg16
VOptional
p172
sg18
VIntermediate Accounting (Coursesmart)
p173
sg20
VEbook
p174
sg22
g169
sg24
F137.25
sa(dp175
g13
I9780077585389
sg14
VSpiceland
p176
sg16
VPart of Set
p177
sg18
VIntermediate Accounting (Custom)
p178
sg20
VHardback
p179
sg22
g169
sg24
F121.0
sa(dp180
g13
I9780077585396
sg14
VSpiceland
p181
sg16
VPart of Set
p182
sg18
VConnect Code T/A Intermediate Accounting
p183
sg20
Nsg22
Nsg24
F99.55
sasg38
V367421
p184
sg40
V02
p185
sa(dp186
g8
VHEFZI
p187
sg10
(lp188
(dp189
g13
I9780077585402
sg14
VSpiceland*
p190
sg16
VRequired
p191
sg18
VIntermediate Accounting (Custom) W/Connect Plus & Annual Report
p192
sg20
VKit/Set/Package
p193
sg22
g169
sg24
F145.35
sa(dp194
g13
I9780077328962
sg14
VSpiceland (Db*)
p195
sg16
VOptional
p196
sg18
VIntermediate Accounting (Coursesmart)
p197
sg20
VEbook
p198
sg22
g169
sg24
F137.25
sa(dp199
g13
I9780077585389
sg14
VSpiceland
p200
sg16
VPart of Set
p201
sg18
VIntermediate Accounting (Custom)
p202
sg20
VHardback
p203
sg22
g169
sg24
F121.0
sa(dp204
g13
I9780077585396
sg14
VSpiceland
p205
sg16
VPart of Set
p206
sg18
VConnect Code T/A Intermediate Accounting
p207
sg20
Nsg22
Nsg24
F99.55
sasg38
V379841
p208
sg40
VE-01
p209
sasg38
V97775
p210
sg40
VACC311
p211
sa(dp212
g5
(lp213
(dp214
g8
VPAK
p215
sg10
(lp216
(dp217
g13
I9780077585402
sg14
VSpiceland*
p218
sg16
VRequired
p219
sg18
VIntermediate Accounting (Custom) W/Connect Plus & Annual Report
p220
sg20
VKit/Set/Package
p221
sg22
g169
sg24
F145.35
sa(dp222
g13
I9780077328962
sg14
VSpiceland (Db*)
p223
sg16
VOptional
p224
sg18
VIntermediate Accounting (Coursesmart)
p225
sg20
VEbook
p226
sg22
g169
sg24
F137.25
sa(dp227
g13
I9780077585389
sg14
VSpiceland
p228
sg16
VPart of Set
p229
sg18
VIntermediate Accounting (Custom)
p230
sg20
VHardback
p231
sg22
g169
sg24
F121.0
sa(dp232
g13
I9780077585396
sg14
VSpiceland
p233
sg16
VPart of Set
p234
sg18
VConnect Code T/A Intermediate Accounting
p235
sg20
Nsg22
Nsg24
F99.55
sasg38
V379842
p236
sg40
VE-01
p237
sa(dp238
g8
VHEFZI
p239
sg10
(lp240
(dp241
g13
I9780077585402
sg14
VSpiceland*
p242
sg16
VRequired
p243
sg18
VIntermediate Accounting (Custom) W/Connect Plus & Annual Report
p244
sg20
VKit/Set/Package
p245
sg22
g169
sg24
F145.35
sa(dp246
g13
I9780077328962
sg14
VSpiceland (Db*)
p247
sg16
VOptional
p248
sg18
VIntermediate Accounting (Coursesmart)
p249
sg20
VEbook
p250
sg22
g169
sg24
F137.25
sa(dp251
g13
I9780077585389
sg14
VSpiceland
p252
sg16
VPart of Set
p253
sg18
VIntermediate Accounting (Custom)
p254
sg20
VHardback
p255
sg22
g169
sg24
F121.0
sa(dp256
g13
I9780077585396
sg14
VSpiceland
p257
sg16
VPart of Set
p258
sg18
VConnect Code T/A Intermediate Accounting
p259
sg20
Nsg22
Nsg24
F99.55
sasg38
V379843
p260
sg40
VE-02
p261
sasg38
V97776
p262
sg40
VACC312
p263
sa(dp264
g5
(lp265
(dp266
g8
VPAK
p267
sg10
(lp268
(dp269
g13
I9780077585402
sg14
VSpiceland*
p270
sg16
VRequired
p271
sg18
VIntermediate Accounting (Custom) W/Connect Plus & Annual Report
p272
sg20
VKit/Set/Package
p273
sg22
g169
sg24
F145.35
sa(dp274
g13
I9780077328962
sg14
VSpiceland (Db*)
p275
sg16
VOptional
p276
sg18
VIntermediate Accounting (Coursesmart)
p277
sg20
VEbook
p278
sg22
g169
sg24
F137.25
sa(dp279
g13
I9780077585389
sg14
VSpiceland
p280
sg16
VPart of Set
p281
sg18
VIntermediate Accounting (Custom)
p282
sg20
VHardback
p283
sg22
g169
sg24
F121.0
sa(dp284
g13
I9780077585396
sg14
VSpiceland
p285
sg16
VPart of Set
p286
sg18
VConnect Code T/A Intermediate Accounting
p287
sg20
Nsg22
Nsg24
F99.55
sasg38
V379844
p288
sg40
VE-01
p289
sa(dp290
g8
VPAK
p291
sg10
(lp292
(dp293
g13
I9780077585402
sg14
VSpiceland*
p294
sg16
VRequired
p295
sg18
VIntermediate Accounting (Custom) W/Connect Plus & Annual Report
p296
sg20
VKit/Set/Package
p297
sg22
g169
sg24
F145.35
sa(dp298
g13
I9780077328962
sg14
VSpiceland (Db*)
p299
sg16
VOptional
p300
sg18
VIntermediate Accounting (Coursesmart)
p301
sg20
VEbook
p302
sg22
g169
sg24
F137.25
sa(dp303
g13
I9780077585389
sg14
VSpiceland
p304
sg16
VPart of Set
p305
sg18
VIntermediate Accounting (Custom)
p306
sg20
VHardback
p307
sg22
g169
sg24
F121.0
sa(dp308
g13
I9780077585396
sg14
VSpiceland
p309
sg16
VPart of Set
p310
sg18
VConnect Code T/A Intermediate Accounting
p311
sg20
Nsg22
Nsg24
F99.55
sasg38
V379845
p312
sg40
VE-02
p313
sasg38
V97777
p314
sg40
VACC313
p315
sa(dp316
g5
(lp317
(dp318
g8
VSALIMI
p319
sg10
(lp320
(dp321
g13
I9780138018818
sg14
VLaudon
p322
sg16
VRequired
p323
sg18
VE-Commerce Business, Technology, Society 2012
p324
sg20
Nsg22
Nsg24
F181.25
sa(dp325
g13
I9780132146142
sg14
VLaudon (Db*)
p326
sg16
VOptional
p327
sg18
VE-Commerce: Business, Technology, Society (Coursesmart)
p328
sg20
VEbook
p329
sg22
g23
sg24
F78.0
sasg38
V379846
p330
sg40
VE-01
p331
sa(dp332
g8
VSALIMI
p333
sg10
(lp334
(dp335
g13
I9780138018818
sg14
VLaudon
p336
sg16
VRequired
p337
sg18
VE-Commerce Business, Technology, Society 2012
p338
sg20
Nsg22
Nsg24
F181.25
sa(dp339
g13
I9780132146142
sg14
VLaudon (Db*)
p340
sg16
VOptional
p341
sg18
VE-Commerce: Business, Technology, Society (Coursesmart)
p342
sg20
VEbook
p343
sg22
g23
sg24
F78.0
sasg38
V379847
p344
sg40
VE-02
p345
sasg38
V97778
p346
sg40
VACC405
p347
sa(dp348
g5
(lp349
(dp350
g8
VAHADIAT
p351
sg10
(lp352
(dp353
g13
I9780132960649
sg14
VHorngren*
p354
sg16
VRequired
p355
sg18
VCost Accounting W/Myaccountinglab & Etext Access Code
p356
sg20
VKit/Set/Package
p357
sg22
V14
p358
sg24
F225.0
sa(dp359
g13
I9780132109949
sg14
VHorngren (Db*)
p360
sg16
VOptional
p361
sg18
VCost Accounting (Coursesmart)
p362
sg20
VEbook
p363
sg22
V14
p364
sg24
F93.0
sa(dp365
g13
I9780132109178
sg14
VHorngren
p366
sg16
VPart of Set
p367
sg18
VCost Accounting
p368
sg20
VHardback
p369
sg22
V14
p370
sg24
F200.0
sa(dp371
g13
I9780132914451
sg14
VPearson
p372
sg16
VPart of Set
p373
sg18
VMyaccountinglab W/Etext
p374
sg20
Nsg22
Nsg24
F117.65
sasg38
V379848
p375
sg40
VE-01
p376
sasg38
V97779
p377
sg40
VACC412
p378
sa(dp379
g5
(lp380
(dp381
g8
VSALIMI
p382
sg10
(lp383
(dp384
g13
I9780137024971
sg14
VAtkinson
p385
sg16
VRequired
p386
sg18
VManagement Accounting
p387
sg20
VHardback
p388
sg22
g169
sg24
F221.9
sa(dp389
g13
I9780137024988
sg14
VAtkinson (Db*)
p390
sg16
VOptional
p391
sg18
VManagement Accounting (Coursesmart)
p392
sg20
VEbook
p393
sg22
g169
sg24
F93.0
sasg38
V379849
p394
sg40
VE-01
p395
sasg38
V97780
p396
sg40
VACC413
p397
sa(dp398
g5
(lp399
(dp400
g8
VSTAFF
p401
sg10
(lp402
(dp403
g13
I9781256430735
sg14
VBeasley*
p404
sg16
VRequired
p405
sg18
VAuditing & Assurance Services W/Auditing Cases(5Th)
p406
sg20
Nsg22
Nsg24
F168.65
sa(dp407
g13
I9780132556743
sg14
VBeasley (Db*)
p408
sg16
VOptional
p409
sg18
VAuditing Cases (Coursesmart)
p410
sg20
VEbook
p411
sg22
V5
p412
sg24
F24.0
sa(dp413
g13
I9781256349808
sg14
VArens
p414
sg16
VPart of Set
p415
sg18
VAuditing And Assurance Services
p416
sg20
Nsg22
Nsg24
F135.4
sa(dp417
g13
I9780132567237
sg14
VBeasley
p418
sg16
VPart of Set
p419
sg18
VAuditing Cases
p420
sg20
VPaperback
p421
sg22
g412
sg24
F60.0
sasg38
V379850
p422
sg40
VE-01
p423
sasg38
V97781
p424
sg40
VACC419
p425
sa(dp426
g5
(lp427
(dp428
g8
VSTAFF
p429
sg10
(lp430
(dp431
g13
I9781133160571
sg14
VHoffman*
p432
sg16
VRequired
p433
sg18
VSouth-Western Federal Taxation 2012 W/Software, Ria, Cpa Excel, & Aplia (35Th)
p434
sg20
Nsg22
Nsg24
F281.25
sa(dp435
g13
I9781111546854
sg14
VHoffman (Db*)
p436
sg16
VOptional
p437
sg18
VSouth Western Federal Taxation 2012 (Coursesmart)
p438
sg20
Nsg22
Nsg24
F126.5
sa(dp439
g13
I9781111221706
sg14
VHoffman
p440
sg16
VPart of Set
p441
sg18
VSouth-Western Federal Taxation 2012, 35Th Ed.
p442
sg20
Nsg22
Nsg24
F234.05
sa(dp443
g13
I9781133049197
sg14
VCengage
p444
sg16
VPart of Set
p445
sg18
VAplia Two-Semester Access Code T/A South-Western Federal Taxation 2012
p446
sg20
Nsg22
Nsg24
F120.0
sasg38
V379851
p447
sg40
VE-01
p448
sasg38
V97782
p449
sg40
VACC431
p450
sa(dp451
g5
(lp452
(dp453
g8
VAHADIAT
p454
sg10
(lp455
sg38
V379835
p456
sg40
VE-01
p457
sasg38
V97769
p458
sg40
VACC207A
p459
sa(dp460
g5
(lp461
(dp462
g8
VAHADIAT
p463
sg10
(lp464
sg38
V379837
p465
sg40
VE-01
p466
sasg38
V97771
p467
sg40
VACC208A
p468
sasS'abrev'
p469
VACC
p470
sg38
V4815
p471
sg40
VACCOUNTING
p472
sa(dp473
g2
(lp474
(dp475
g5
(lp476
(dp477
g8
VPHILLIPS
p478
sg10
(lp479
sg38
V367432
p480
sg40
VE-21
p481
sasg38
V97783
p482
sg40
VAG101
p483
sa(dp484
g5
(lp485
(dp486
g8
VMATHIAS
p487
sg10
(lp488
(dp489
g13
I9780195306200
sg14
VWeston
p490
sg16
VRequired
p491
sg18
VCreative Problem-Solving In Ethics
p492
sg20
Nsg22
Nsg24
F19.95
sa(dp493
g13
I9781405111546
sg14
VDriver
p494
sg16
VRequired
p495
sg18
VEthics
p496
sg20
Nsg22
Nsg24
F29.95
sasg38
V367433
p497
sg40
VE-01
p498
sa(dp499
g8
VMERLINO
p500
sg10
(lp501
(dp502
g13
I9780195306200
sg14
VWeston
p503
sg16
VRequired
p504
sg18
VCreative Problem-Solving In Ethics
p505
sg20
Nsg22
Nsg24
F19.95
sa(dp506
g13
I9781405111546
sg14
VDriver
p507
sg16
VRequired
p508
sg18
VEthics
p509
sg20
Nsg22
Nsg24
F29.95
sa(dp510
g13
I9780923568962
sg14
VHoughton
p511
sg16
VRequired
p512
sg18
VApa: The Easy Way!
p513
sg20
VPaperback
p514
sg22
V2
p515
sg24
F10.95
sasg38
V367434
p516
sg40
VE-11
p517
sa(dp518
g8
VMERLINO
p519
sg10
(lp520
(dp521
g13
I9780195306200
sg14
VWeston
p522
sg16
VRequired
p523
sg18
VCreative Problem-Solving In Ethics
p524
sg20
Nsg22
Nsg24
F19.95
sa(dp525
g13
I9781405111546
sg14
VDriver
p526
sg16
VRequired
p527
sg18
VEthics
p528
sg20
Nsg22
Nsg24
F29.95
sa(dp529
g13
I9780923568962
sg14
VHoughton
p530
sg16
VRequired
p531
sg18
VApa: The Easy Way!
p532
sg20
VPaperback
p533
sg22
g515
sg24
F10.95
sasg38
V367435
p534
sg40
VE-12
p535
sa(dp536
g8
VPHILLIPS
p537
sg10
(lp538
(dp539
g13
I9780073386713
sg14
VRachels
p540
sg16
VRequired
p541
sg18
VElements Of Moral Philosophy
p542
sg20
VPaperback
p543
sg22
g169
sg24
F55.0
sa(dp544
g13
I9780787985387
sg14
VUkens
p545
sg16
VRequired
p546
sg18
VWhat Would You Do? Workbook
p547
sg20
Nsg22
Nsg24
F15.0
sa(dp548
g13
I9780077318499
sg14
VRachels (Db*)
p549
sg16
VOptional
p550
sg18
VElements Of Moral Philosophy (Coursesmart)
p551
sg20
VEbook
p552
sg22
g169
sg24
F29.0
sasg38
V367436
p553
sg40
VE-22
p554
sasg38
V97784
p555
sg40
VAG401
p556
sasg469
VAG
p557
sg38
V4748
p558
sg40
VAGRICULTURAL SCIENCE
p559
sa(dp560
g2
(lp561
(dp562
g5
(lp563
(dp564
g8
VTUCKER
p565
sg10
(lp566
sg38
V367437
p567
sg40
VE-01
p568
sasg38
V97785
p569
sg40
VAMM101
p570
sa(dp571
g5
(lp572
(dp573
g8
VTUCKER
p574
sg10
(lp575
sg38
V379881
p576
sg40
VE-01
p577
sasg38
V99381
p578
sg40
VAMM108
p579
sa(dp580
g5
(lp581
(dp582
g8
VDabas
p583
sg10
(lp584
sg38
V367439
p585
sg40
VE-01
p586
sasg38
V97787
p587
sg40
VAMM250
p588
sa(dp589
g5
(lp590
(dp591
g8
VPARISE
p592
sg10
(lp593
(dp594
g13
I9781609011536
sg14
VBell
p595
sg16
VRequired
p596
sg18
VSilent Selling
p597
sg20
VPaperback
p598
sg22
V4
p599
sg24
F88.5
sasg38
V367440
p600
sg40
VE-01
p601
sasg38
V97788
p602
sg40
VAMM270
p603
sa(dp604
g5
(lp605
(dp606
g8
VTUCKER
p607
sg10
(lp608
sg38
V367442
p609
sg40
VE-01
p610
sasg38
V97790
p611
sg40
VAMM357
p612
sa(dp613
g5
(lp614
(dp615
g8
VTUCKER
p616
sg10
(lp617
sg38
V367443
p618
sg40
VE-01
p619
sasg38
V97791
p620
sg40
VAMM380
p621
sa(dp622
g5
(lp623
(dp624
g8
VTUCKER
p625
sg10
(lp626
sg38
V367445
p627
sg40
VE-01
p628
sasg38
V97793
p629
sg40
VAMM496
p630
sa(dp631
g5
(lp632
(dp633
g8
VPARISE
p634
sg10
(lp635
sg38
V367438
p636
sg40
VE-01
p637
sasg38
V97786
p638
sg40
VAMM112L
p639
sa(dp640
g5
(lp641
(dp642
g8
VPARISE
p643
sg10
(lp644
sg38
V367441
p645
sg40
VE-01
p646
sasg38
V97789
p647
sg40
VAMM270A
p648
sa(dp649
g5
(lp650
(dp651
g8
VTUCKER
p652
sg10
(lp653
sg38
V367444
p654
sg40
VE-01
p655
sasg38
V97792
p656
sg40
VAMM380L
p657
sa(dp658
g5
(lp659
(dp660
g8
VTUCKER
p661
sg10
(lp662
sg38
V367446
p663
sg40
VE-01
p664
sasg38
V97794
p665
sg40
VAMM497A
p666
sasg469
VAMM
p667
sg38
V4807
p668
sg40
VAPPAREL MERCH & MGMT
p669
sa(dp670
g2
(lp671
(dp672
g5
(lp673
(dp674
g8
VRACHELE
p675
sg10
(lp676
(dp677
g13
I9781111830007
sg14
VAndreatta
p678
sg16
VRequired
p679
sg18
VElements Of Culture
p680
sg20
Nsg22
Nsg24
F72.65
sa(dp681
g13
I9780078051012
sg14
VAnnual Edition
p682
sg16
VRequired
p683
sg18
VAnthropology 12/13 (Ed: Angeloni)
p684
sg20
VPaperback
p685
sg22
V35
p686
sg24
F44.0
sa(dp687
g13
I9780077477769
sg14
VAngeloni (Db*)
p688
sg16
VOptional
p689
sg18
VAnthropology: Annual Editions 12/13 (Coursesmart)
p690
sg20
VEbook
p691
sg22
g412
sg24
F31.0
sa(dp692
g13
I9781133470953
sg14
VAndreatta (Db*)
p693
sg16
VOptional
p694
sg18
VElements Of Culture (Coursesmart)
p695
sg20
Nsg22
Nsg24
F37.0
sasg38
V367447
p696
sg40
VE-01
p697
sasg38
V97795
p698
sg40
VANT102
p699
sa(dp700
g5
(lp701
(dp702
g8
VGRAY
p703
sg10
(lp704
(dp705
g13
I9780073530932
sg14
VPodolefsky
p706
sg16
VRequired
p707
sg18
VApplying Anthropology
p708
sg20
VPaperback
p709
sg22
g23
sg24
F61.05
sasg38
V379852
p710
sg40
VE-01
p711
sasg38
V99366
p712
sg40
VANT201
p713
sa(dp714
g5
(lp715
(dp716
g8
VRACHELE
p717
sg10
(lp718
(dp719
g13
I9780813343679
sg14
VMoran
p720
sg16
VRequired
p721
sg18
VHuman Adaptability
p722
sg20
VPaperback
p723
sg22
g115
sg24
F45.0
sasg38
V367448
p724
sg40
VE-01
p725
sasg38
V97796
p726
sg40
VANT350
p727
sa(dp728
g5
(lp729
(dp730
g8
VRACHELE
p731
sg10
(lp732
(dp733
g13
I9780078140013
sg14
VMoro
p734
sg16
VRequired
p735
sg18
VMagic, Witchcraft & Religion
p736
sg20
VPaperback
p737
sg22
g23
sg24
F67.2
sasg38
V367449
p738
sg40
VE-01
p739
sasg38
V97797
p740
sg40
VANT360
p741
sasg469
VANT
p742
sg38
V4754
p743
sg40
VANTHROPOLOGY
p744
sa(dp745
g2
(lp746
(dp747
g5
(lp748
(dp749
g8
VSTAFF
p750
sg10
(lp751
sg38
V367450
p752
sg40
VE-01
p753
sa(dp754
g8
VSTAFF
p755
sg10
(lp756
sg38
V367451
p757
sg40
VE-02
p758
sasg38
V97932
p759
sg40
VARC401
p760
sa(dp761
g5
(lp762
(dp763
g8
VRAMIREZ
p764
sg10
(lp765
sg38
V367454
p766
sg40
VE-01
p767
sa(dp768
g8
VSTAFF
p769
sg10
(lp770
sg38
V367455
p771
sg40
VE-02
p772
sasg38
V97799
p773
sg40
VARC402
p774
sa(dp775
g5
(lp776
(dp777
g8
VRAMIREZ
p778
sg10
(lp779
sg38
V367458
p780
sg40
VE-01
p781
sa(dp782
g8
VSTAFF
p783
sg10
(lp784
sg38
V367459
p785
sg40
VE-02
p786
sasg38
V97933
p787
sg40
VARC405
p788
sa(dp789
g5
(lp790
(dp791
g8
VSTAFF
p792
sg10
(lp793
sg38
V367462
p794
sg40
VE-01
p795
sa(dp796
g8
VSHEINE
p797
sg10
(lp798
sg38
V367463
p799
sg40
VE-02
p800
sasg38
V97801
p801
sg40
VARC406
p802
sa(dp803
g5
(lp804
(dp805
g8
VSTAFF
p806
sg10
(lp807
sg38
V367466
p808
sg40
VE-01
p809
sa(dp810
g8
VRAMIREZ
p811
sg10
(lp812
sg38
V367467
p813
sg40
VE-02
p814
sa(dp815
g8
VAMOURGIS
p816
sg10
(lp817
sg38
V367468
p818
sg40
VE-03
p819
sa(dp820
g8
VAMOURGIS
p821
sg10
(lp822
sg38
V367469
p823
sg40
VE-04
p824
sasg38
V97803
p825
sg40
VARC499
p826
sa(dp827
g5
(lp828
(dp829
g8
VSHEINE
p830
sg10
(lp831
sg38
V367470
p832
sg40
VE-01
p833
sasg38
V97935
p834
sg40
VARC601
p835
sa(dp836
g5
(lp837
(dp838
g8
VSHEINE
p839
sg10
(lp840
sg38
V367472
p841
sg40
VE-01
p842
sa(dp843
g8
VRAMIREZ
p844
sg10
(lp845
sg38
V380336
p846
sg40
VE-02
p847
sasg38
V97804
p848
sg40
VARC602
p849
sa(dp850
g5
(lp851
(dp852
g8
VRAMIREZ
p853
sg10
(lp854
sg38
V367452
p855
sg40
VE-01
p856
sa(dp857
g8
VSTAFF
p858
sg10
(lp859
sg38
V367453
p860
sg40
VE-02
p861
sasg38
V97798
p862
sg40
VARC401L
p863
sa(dp864
g5
(lp865
(dp866
g8
VRAMIREZ
p867
sg10
(lp868
sg38
V367456
p869
sg40
VE-01
p870
sa(dp871
g8
VSTAFF
p872
sg10
(lp873
sg38
V367457
p874
sg40
VE-02
p875
sasg38
V97800
p876
sg40
VARC402L
p877
sa(dp878
g5
(lp879
(dp880
g8
VRAMIREZ
p881
sg10
(lp882
sg38
V367460
p883
sg40
VE-01
p884
sa(dp885
g8
VSTAFF
p886
sg10
(lp887
sg38
V367461
p888
sg40
VE-02
p889
sasg38
V97934
p890
sg40
VARC405L
p891
sa(dp892
g5
(lp893
(dp894
g8
VRAMIREZ
p895
sg10
(lp896
sg38
V367464
p897
sg40
VE-01
p898
sa(dp899
g8
VSHEINE
p900
sg10
(lp901
sg38
V367465
p902
sg40
VE-02
p903
sasg38
V97802
p904
sg40
VARC406L
p905
sa(dp906
g5
(lp907
(dp908
g8
VSHEINE
p909
sg10
(lp910
sg38
V367471
p911
sg40
VE-01
p912
sasg38
V97936
p913
sg40
VARC601L
p914
sa(dp915
g5
(lp916
(dp917
g8
VSHEINE
p918
sg10
(lp919
sg38
V367473
p920
sg40
VE-01
p921
sa(dp922
g8
VRAMIREZ
p923
sg10
(lp924
sg38
V380337
p925
sg40
VE-02
p926
sasg38
V97805
p927
sg40
VARC602L
p928
sasg469
VARC
p929
sg38
V4755
p930
sg40
VARCHITECTURE
p931
sa(dp932
g2
(lp933
(dp934
g5
(lp935
(dp936
g8
VBHANDARI
p937
sg10
(lp938
(dp939
g13
I9780131866140
sg14
VPhillips
p940
sg16
VRequired
p941
sg18
VFeedback Control Systems
p942
sg20
VHardback
p943
sg22
g412
sg24
F171.55
sa(dp944
g13
I9780131393028
sg14
VPhillips (Db*)
p945
sg16
VOptional
p946
sg18
VFeedback Control Systems (Coursesmart)
p947
sg20
VEbook
p948
sg22
g412
sg24
F73.0
sasg38
V379811
p949
sg40
V01
p950
sasg38
V99351
p951
sg40
VARO499
p952
sasg469
VARO
p953
sg38
V4756
p954
sg40
VAEROSPACE ENGR
p955
sa(dp956
g2
(lp957
(dp958
g5
(lp959
(dp960
g8
VSTAFF
p961
sg10
(lp962
sg38
V367474
p963
sg40
VE-01
p964
sasg38
V97806
p965
sg40
VAVS101
p966
sa(dp967
g5
(lp968
(dp969
g8
VFONDA
p970
sg10
(lp971
(dp972
g13
I9780132624053
sg14
VDamron (Db*)
p973
sg16
VOptional
p974
sg18
VIntro To Animal Science Global (Coursesmart)
p975
sg20
VEbook
p976
sg22
g412
sg24
F56.0
sa(dp977
g13
I9780132623896
sg14
VDamron
p978
sg16
VOptional
p979
sg18
VIntro To Animal Science
p980
sg20
VHardback
p981
sg22
g412
sg24
F130.5
sasg38
V367475
p982
sg40
VE-01
p983
sasg38
V97807
p984
sg40
VAVS112
p985
sa(dp986
g5
(lp987
(dp988
g8
VREICHARDT
p989
sg10
(lp990
sg38
V367476
p991
sg40
VE-01
p992
sasg38
V97937
p993
sg40
VAVS201
p994
sa(dp995
g5
(lp996
(dp997
g8
VHaag
p998
sg10
(lp999
(dp1000
g13
I9780073380902
sg14
VHart
p1001
sg16
VRequired
p1002
sg18
VDrugs, Society & Human Behavior
p1003
sg20
VPaperback
p1004
sg22
V14
p1005
sg24
F132.7
sa(dp1006
g13
I9780077325886
sg14
VHart (Db*)
p1007
sg16
VOptional
p1008
sg18
VDrugs, Society, & Human Behavior (Coursesmart)
p1009
sg20
VEbook
p1010
sg22
g599
sg24
F69.75
sasg38
V367477
p1011
sg40
VE-01
p1012
sasg38
V97808
p1013
sg40
VAVS211
p1014
sa(dp1015
g5
(lp1016
(dp1017
g8
VNout
p1018
sg10
(lp1019
(dp1020
g13
I9780131125865
sg14
VCheeke
p1021
sg16
VRequired
p1022
sg18
VContemporary Issues In Animal Agriculture
p1023
sg20
VPaperback
p1024
sg22
g115
sg24
F80.8
sasg38
V367478
p1025
sg40
VE-01
p1026
sasg38
V97809
p1027
sg40
VAVS311
p1028
sa(dp1029
g5
(lp1030
(dp1031
g8
VPettey
p1032
sg10
(lp1033
sg38
V367479
p1034
sg40
VE-01
p1035
sasg38
V97810
p1036
sg40
VAVS402
p1037
sa(dp1038
g5
(lp1039
(dp1040
g8
VSANDELIN
p1041
sg10
(lp1042
sg38
V367480
p1043
sg40
VE-01
p1044
sasg38
V97938
p1045
sg40
VAVS404
p1046
sa(dp1047
g5
(lp1048
(dp1049
g8
VSANDELIN
p1050
sg10
(lp1051
sg38
V367481
p1052
sg40
VE-01
p1053
sasg38
V97939
p1054
sg40
VAVS404A
p1055
sa(dp1056
g5
(lp1057
(dp1058
g8
V,
p1059
sg10
(lp1060
sg38
V380163
p1061
sg40
V01
p1062
sa(dp1063
g8
g1059
sg10
(lp1064
sg38
V380164
p1065
sg40
V02
p1066
sa(dp1067
g8
VRASH
p1068
sg10
(lp1069
sg38
V380186
p1070
sg40
VE-01
p1071
sa(dp1072
g8
VRASH
p1073
sg10
(lp1074
sg38
V380187
p1075
sg40
VE-02
p1076
sasg38
V100635
p1077
sg40
VAVS499A
p1078
sasg469
VAVS
p1079
sg38
V4758
p1080
sg40
VANIMAL & VET SCIENCE
p1081
sa(dp1082
g2
(lp1083
(dp1084
g5
(lp1085
(dp1086
g8
VCLARK
p1087
sg10
(lp1088
(dp1089
g13
I9780321649546
sg14
VSimon
p1090
sg16
VRequired
p1091
sg18
VCampbell Essential Biology With Physiology
p1092
sg20
VPaperback
p1093
sg22
g115
sg24
F140.15
sasg38
V367482
p1094
sg40
VE-01
p1095
sasg38
V97811
p1096
sg40
VBIO110
p1097
sa(dp1098
g5
(lp1099
(dp1100
g8
VHERRERA
p1101
sg10
(lp1102
(dp1103
g13
I9781429219624
sg14
VSadava
p1104
sg16
VRequired
p1105
sg18
VLife
p1106
sg20
VHardback
p1107
sg22
V9
p1108
sg24
F180.65
sa(dp1109
g13
I9781429254205
sg14
VSadava (Db*)
p1110
sg16
VOptional
p1111
sg18
VLife (Coursesmart Digital)
p1112
sg20
VEbook
p1113
sg22
g1108
sg24
F103.0
sasg38
V367487
p1114
sg40
VE-01
p1115
sasg38
V97813
p1116
sg40
VBIO115
p1117
sa(dp1118
g5
(lp1119
(dp1120
g8
VKING
p1121
sg10
(lp1122
(dp1123
g13
I9780131008465
sg14
VZar
p1124
sg16
VRequired
p1125
sg18
VBiostatistical Analysis
p1126
sg20
VHardback
p1127
sg22
g412
sg24
F135.3
sa(dp1128
g13
I9780135024713
sg14
VZar (Db*)
p1129
sg16
VOptional
p1130
sg18
VBiostatistical Analysis (Coursesmart Digital)
p1131
sg20
VEbook
p1132
sg22
g412
sg24
F61.0
sasg38
V367496
p1133
sg40
VE-01
p1134
sasg38
V97816
p1135
sg40
VBIO211
p1136
sa(dp1137
g5
(lp1138
(dp1139
g8
VKIDD
p1140
sg10
(lp1141
(dp1142
g13
I9780878935703
sg14
VLevay
p1143
sg16
VRequired
p1144
sg18
VHuman Sexuality
p1145
sg20
VHardback
p1146
sg22
g599
sg24
F115.95
sa(dp1147
g13
I9780878936311
sg14
VLevay (Db*)
p1148
sg16
VOptional
p1149
sg18
VHuman Sexuality (Coursesmart)
p1150
sg20
VEbook
p1151
sg22
g599
sg24
F55.95
sasg38
V367502
p1152
sg40
VE-01
p1153
sasg38
V97818
p1154
sg40
VBIO301
p1155
sa(dp1156
g5
(lp1157
(dp1158
g8
VDIXON
p1159
sg10
(lp1160
(dp1161
g13
I9780077474904
sg14
VBrooker*
p1162
sg16
VRequired
p1163
sg18
VGenetics W/Connect Card
p1164
sg20
VCloth
p1165
sg22
g599
sg24
F196.9
sasg38
V367503
p1166
sg40
VE-01
p1167
sasg38
V97819
p1168
sg40
VBIO303
p1169
sa(dp1170
g5
(lp1171
(dp1172
g8
VALAS
p1173
sg10
(lp1174
sg38
V367504
p1175
sg40
VE-01
p1176
sasg38
V97820
p1177
sg40
VBIO310
p1178
sa(dp1179
g5
(lp1180
(dp1181
g8
VSTAFF
p1182
sg10
(lp1183
(dp1184
g13
I9780738022048
sg14
VHartney
p1185
sg16
VRequired
p1186
sg18
VConnecting To Biology
p1187
sg20
VPaperback
p1188
sg22
g515
sg24
F17.5
sasg38
V367483
p1189
sg40
VE-01
p1190
sa(dp1191
g8
VSTAFF
p1192
sg10
(lp1193
(dp1194
g13
I9780738022048
sg14
VHartney
p1195
sg16
VRequired
p1196
sg18
VConnecting To Biology
p1197
sg20
VPaperback
p1198
sg22
g515
sg24
F17.5
sasg38
V367484
p1199
sg40
VE-02
p1200
sa(dp1201
g8
VSTAFF
p1202
sg10
(lp1203
(dp1204
g13
I9780738022048
sg14
VHartney
p1205
sg16
VRequired
p1206
sg18
VConnecting To Biology
p1207
sg20
VPaperback
p1208
sg22
g515
sg24
F17.5
sasg38
V367485
p1209
sg40
VE-03
p1210
sa(dp1211
g8
VSTAFF
p1212
sg10
(lp1213
(dp1214
g13
I9780738022048
sg14
VHartney
p1215
sg16
VRequired
p1216
sg18
VConnecting To Biology
p1217
sg20
VPaperback
p1218
sg22
g515
sg24
F17.5
sasg38
V367486
p1219
sg40
VE-04
p1220
sasg38
V97812
p1221
sg40
VBIO111L
p1222
sa(dp1223
g5
(lp1224
(dp1225
g8
VSTAFF
p1226
sg10
(lp1227
sg38
V367488
p1228
sg40
VE-01
p1229
sa(dp1230
g8
VSTAFF,
p1231
sg10
(lp1232
sg38
V367489
p1233
sg40
VE-02
p1234
sa(dp1235
g8
VSTAFF
p1236
sg10
(lp1237
sg38
V367490
p1238
sg40
VE-03
p1239
sa(dp1240
g8
VSTAFF
p1241
sg10
(lp1242
sg38
V367491
p1243
sg40
VE-04
p1244
sasg38
V97814
p1245
sg40
VBIO115A
p1246
sa(dp1247
g5
(lp1248
(dp1249
g8
VSTAFF
p1250
sg10
(lp1251
sg38
V367492
p1252
sg40
VE-01
p1253
sa(dp1254
g8
VSTAFF
p1255
sg10
(lp1256
sg38
V367493
p1257
sg40
VE-02
p1258
sa(dp1259
g8
VSTAFF
p1260
sg10
(lp1261
sg38
V367494
p1262
sg40
VE-03
p1263
sa(dp1264
g8
VSTAFF
p1265
sg10
(lp1266
sg38
V367495
p1267
sg40
VE-04
p1268
sasg38
V97815
p1269
sg40
VBIO115L
p1270
sa(dp1271
g5
(lp1272
(dp1273
g8
VSTAFF
p1274
sg10
(lp1275
sg38
V367497
p1276
sg40
VE-01
p1277
sa(dp1278
g8
VSTAFF
p1279
sg10
(lp1280
sg38
V367498
p1281
sg40
VE-02
p1282
sa(dp1283
g8
VSTAFF
p1284
sg10
(lp1285
sg38
V367499
p1286
sg40
VE-03
p1287
sa(dp1288
g8
VSTAFF,
p1289
sg10
(lp1290
sg38
V367500
p1291
sg40
VE-04
p1292
sasg38
V97817
p1293
sg40
VBIO211L
p1294
sa(dp1295
g5
(lp1296
(dp1297
g8
VQuestad
p1298
sg10
(lp1299
sg38
V367501
p1300
sg40
VE-01
p1301
sasg38
V97940
p1302
sg40
VBIO299A
p1303
sa(dp1304
g5
(lp1305
(dp1306
g8
VSTAFF
p1307
sg10
(lp1308
sg38
V367505
p1309
sg40
VE-01
p1310
sasg38
V97821
p1311
sg40
VBIO488S
p1312
sasg469
VBIO
p1313
sg38
V4760
p1314
sg40
VBIOLOGY
p1315
sa(dp1316
g2
(lp1317
(dp1318
g5
(lp1319
(dp1320
g8
VNG
p1321
sg10
(lp1322
(dp1323
g13
I9780132554343
sg14
VGhilani
p1324
sg16
VRequired
p1325
sg18
VElementary Surveying
p1326
sg20
VHardback
p1327
sg22
V13
p1328
sg24
F173.45
sa(dp1329
g13
I9780132555104
sg14
VGhilani (Db*)
p1330
sg16
VOptional
p1331
sg18
VElementary Surveying (Coursesmart)
p1332
sg20
VEbook
p1333
sg22
V13
p1334
sg24
F74.0
sasg38
V367510
p1335
sg40
VE-01
p1336
sasg38
V97824
p1337
sg40
VCE220
p1338
sa(dp1339
g5
(lp1340
(dp1341
g8
VYe
p1342
sg10
(lp1343
(dp1344
g13
I9780471173960
sg14
VWright
p1345
sg16
VRequired
p1346
sg18
VTransportation Engineering
p1347
sg20
VCloth
p1348
sg22
g599
sg24
F171.75
sasg38
V367513
p1349
sg40
VE-01
p1350
sa(dp1351
g8
VYe,
p1352
sg10
(lp1353
(dp1354
g13
I9780471173960
sg14
VWright
p1355
sg16
VRequired
p1356
sg18
VTransportation Engineering
p1357
sg20
VCloth
p1358
sg22
g599
sg24
F171.75
sasg38
V367514
p1359
sg40
VE-02
p1360
sa(dp1361
g8
VWU
p1362
sg10
(lp1363
(dp1364
g13
I9780471173960
sg14
VWright
p1365
sg16
VRequired
p1366
sg18
VTransportation Engineering
p1367
sg20
VCloth
p1368
sg22
g599
sg24
F171.75
sasg38
V367515
p1369
sg40
VE-03
p1370
sasg38
V97826
p1371
sg40
VCE223
p1372
sa(dp1373
g5
(lp1374
(dp1375
g8
VCHIANG
p1376
sg10
(lp1377
(dp1378
g13
I9780073376301
sg14
VBlank
p1379
sg16
VRequired
p1380
sg18
VEngineering Economy
p1381
sg20
VHardback
p1382
sg22
g75
sg24
F171.25
sa(dp1383
g13
I9780077352967
sg14
VBlank (Db*)
p1384
sg16
VOptional
p1385
sg18
VEngineering Economy (Coursesmart)
p1386
sg20
VEbook
p1387
sg22
g75
sg24
F96.0
sasg38
V367519
p1388
sg40
VE-01
p1389
sasg38
V97828
p1390
sg40
VCE301
p1391
sa(dp1392
g5
(lp1393
(dp1394
g8
VPEREZ
p1395
sg10
(lp1396
(dp1397
g13
I9780073401096
sg14
VLeet
p1398
sg16
VRequired
p1399
sg18
VFundamentals Of Structural Analysis
p1400
sg20
VHardback
p1401
sg22
g599
sg24
F175.65
sa(dp1402
g13
I9780077305987
sg14
VLeet (Db*)
p1403
sg16
VOptional
p1404
sg18
VFundamentals Of Structural Analysis (Coursesmart)
p1405
sg20
VEbook
p1406
sg22
g599
sg24
F98.5
sasg38
V367520
p1407
sg40
VE-01
p1408
sa(dp1409
g8
VPEREZ
p1410
sg10
(lp1411
(dp1412
g13
I9780073401096
sg14
VLeet
p1413
sg16
VRequired
p1414
sg18
VFundamentals Of Structural Analysis
p1415
sg20
VHardback
p1416
sg22
g599
sg24
F175.65
sa(dp1417
g13
I9780077305987
sg14
VLeet (Db*)
p1418
sg16
VOptional
p1419
sg18
VFundamentals Of Structural Analysis (Coursesmart)
p1420
sg20
VEbook
p1421
sg22
g599
sg24
F98.5
sasg38
V367521
p1422
sg40
VE-02
p1423
sa(dp1424
g8
VWANG
p1425
sg10
(lp1426
(dp1427
g13
I9780073401096
sg14
VLeet
p1428
sg16
VRequired
p1429
sg18
VFundamentals Of Structural Analysis
p1430
sg20
VHardback
p1431
sg22
g599
sg24
F175.65
sa(dp1432
g13
I9780077305987
sg14
VLeet (Db*)
p1433
sg16
VOptional
p1434
sg18
VFundamentals Of Structural Analysis (Coursesmart)
p1435
sg20
VEbook
p1436
sg22
g599
sg24
F98.5
sasg38
V367522
p1437
sg40
VE-03
p1438
sasg38
V97829
p1439
sg40
VCE305
p1440
sa(dp1441
g5
(lp1442
(dp1443
g8
VANDREI
p1444
sg10
(lp1445
(dp1446
g13
I9780132368681
sg14
VCoduto
p1447
sg16
VRequired
p1448
sg18
VGeotechnical Engineering
p1449
sg20
VHardback
p1450
sg22
g515
sg24
F179.05
sa(dp1451
g13
I9780136081418
sg14
VCoduto (Db*)
p1452
sg16
VOptional
p1453
sg18
VGeotechnical Engineering (Coursesmart)
p1454
sg20
VEbook
p1455
sg22
g515
sg24
F76.0
sasg38
V367523
p1456
sg40
VE-01
p1457
sa(dp1458
g8
VANDREI
p1459
sg10
(lp1460
(dp1461
g13
I9780132368681
sg14
VCoduto
p1462
sg16
VRequired
p1463
sg18
VGeotechnical Engineering
p1464
sg20
VHardback
p1465
sg22
g515
sg24
F179.05
sa(dp1466
g13
I9780136081418
sg14
VCoduto (Db*)
p1467
sg16
VOptional
p1468
sg18
VGeotechnical Engineering (Coursesmart)
p1469
sg20
VEbook
p1470
sg22
g515
sg24
F76.0
sasg38
V367524
p1471
sg40
VE-02
p1472
sasg38
V97830
p1473
sg40
VCE325
p1474
sa(dp1475
g5
(lp1476
(dp1477
g8
VLamb
p1478
sg10
(lp1479
(dp1480
g13
I9780534494834
sg14
VCruise
p1481
sg16
VRequired
p1482
sg18
VElementary Hydraulics
p1483
sg20
Nsg22
Nsg24
F172.5
sasg38
V367527
p1484
sg40
VE-01
p1485
sa(dp1486
g8
VPalomo Martinez
p1487
sg10
(lp1488
(dp1489
g13
I9780534494834
sg14
VCruise
p1490
sg16
VRequired
p1491
sg18
VElementary Hydraulics
p1492
sg20
Nsg22
Nsg24
F172.5
sasg38
V367528
p1493
sg40
VE-02
p1494
sa(dp1495
g8
VMartinez, Palomo
p1496
sg10
(lp1497
(dp1498
g13
I9780534494834
sg14
VCruise
p1499
sg16
VRequired
p1500
sg18
VElementary Hydraulics
p1501
sg20
Nsg22
Nsg24
F172.5
sasg38
V367529
p1502
sg40
VE-03
p1503
sasg38
V97832
p1504
sg40
VCE332
p1505
sa(dp1506
g5
(lp1507
(dp1508
g8
VBERK
p1509
sg10
(lp1510
sg38
V367536
p1511
sg40
VE-01
p1512
sasg38
V97834
p1513
sg40
VCE362
p1514
sa(dp1515
g5
(lp1516
(dp1517
g8
VWANG
p1518
sg10
(lp1519
(dp1520
g13
I9781111576004
sg14
VSegui
p1521
sg16
VRequired
p1522
sg18
VSteel Design
p1523
sg20
VHardback
p1524
sg22
g412
sg24
F209.7
sa(dp1525
g13
I9781133348184
sg14
VSegui (Db*)
p1526
sg16
VOptional
p1527
sg18
VSteel Design (Coursesmart)
p1528
sg20
Nsg22
Nsg24
F113.5
sasg38
V367538
p1529
sg40
VE-01
p1530
sasg38
V97836
p1531
sg40
VCE406
p1532
sa(dp1533
g5
(lp1534
(dp1535
g8
VWANG
p1536
sg10
(lp1537
(dp1538
g13
I9780470279274
sg14
VMccormac
p1539
sg16
VRequired
p1540
sg18
VDesign Of Reinforced Concrete Aci 318-08 Code Ed
p1541
sg20
VHardback
p1542
sg22
g23
sg24
F190.0
sa(dp1543
g13
I9780870312649
sg14
VAmer Concrete
p1544
sg16
VRequired
p1545
sg18
VBuilding Code Require Struct Concrete & Comm
p1546
sg20
Nsg22
Nsg24
F80.0
sa(dp1547
g13
I9780470416204
sg14
VMccormac (Db*)
p1548
sg16
VOptional
p1549
sg18
VDesign Of Reinforced Concrete (Coursesmart Digital)
p1550
sg20
VEbook
p1551
sg22
g23
sg24
F105.5
sasg38
V367539
p1552
sg40
VE-01
p1553
sasg38
V97837
p1554
sg40
VCE421
p1555
sa(dp1556
g5
(lp1557
(dp1558
g8
VWU
p1559
sg10
(lp1560
sg38
V379882
p1561
sg40
VE-01
p1562
sasg38
V99382
p1563
sg40
VCE429
p1564
sa(dp1565
g5
(lp1566
(dp1567
g8
VYadegari
p1568
sg10
(lp1569
(dp1570
g13
I9780071455398
sg14
VBreyer
p1571
sg16
VRequired
p1572
sg18
VDesign Of Wood Structures Asd/Lrfd
p1573
sg20
VHardback
p1574
sg22
g169
sg24
F99.95
sa(dp1575
g13
I9780784410851
sg14
VAmer Soc Civil
p1576
sg16
VRequired
p1577
sg18
VMinimum Design Loads For Buildings & Other Structures (Rev)
p1578
sg20
Nsg22
Nsg24
F165.0
sasg38
V379884
p1579
sg40
VE-01
p1580
sasg38
V99384
p1581
sg40
VCE433
p1582
sa(dp1583
g5
(lp1584
(dp1585
g8
VLamb
p1586
sg10
(lp1587
(dp1588
g13
I9780131424241
sg14
VMccuen
p1589
sg16
VRequired
p1590
sg18
VHydrologic Analysis & Design
p1591
sg20
VPaperback
p1592
sg22
g115
sg24
F139.7
sasg38
V379886
p1593
sg40
VE-01
p1594
sasg38
V99386
p1595
sg40
VCE451
p1596
sa(dp1597
g5
(lp1598
(dp1599
g8
VANDREI
p1600
sg10
(lp1601
sg38
V367542
p1602
sg40
VE-01
p1603
sa(dp1604
g8
VCHENG
p1605
sg10
(lp1606
sg38
V367543
p1607
sg40
VE-02
p1608
sa(dp1609
g8
VJIA
p1610
sg10
(lp1611
sg38
V367544
p1612
sg40
VE-03
p1613
sa(dp1614
g8
VHERNANDEZ
p1615
sg10
(lp1616
sg38
V367545
p1617
sg40
VE-04
p1618
sa(dp1619
g8
VYadegari
p1620
sg10
(lp1621
sg38
V367546
p1622
sg40
VE-05
p1623
sa(dp1624
g8
VMARCIUSKA
p1625
sg10
(lp1626
sg38
V367547
p1627
sg40
VE-06
p1628
sa(dp1629
g8
VLamb
p1630
sg10
(lp1631
sg38
V367548
p1632
sg40
VE-07
p1633
sa(dp1634
g8
VLamb
p1635
sg10
(lp1636
sg38
V380188
p1637
sg40
VE-08
p1638
sa(dp1639
g8
VCHENG
p1640
sg10
(lp1641
sg38
V380189
p1642
sg40
VE-09
p1643
sasg38
V97839
p1644
sg40
VCE492
p1645
sa(dp1646
g5
(lp1647
(dp1648
g8
VJIA,
p1649
sg10
(lp1650
sg38
V367549
p1651
sg40
VE-01
p1652
sa(dp1653
g8
VYEUNG,
p1654
sg10
(lp1655
sg38
V379887
p1656
sg40
VE-02
p1657
sasg38
V97840
p1658
sg40
VCE499
p1659
sa(dp1660
g5
(lp1661
(dp1662
g8
VNG
p1663
sg10
(lp1664
sg38
V367511
p1665
sg40
VE-01
p1666
sasg38
V97825
p1667
sg40
VCE220L
p1668
sa(dp1669
g5
(lp1670
(dp1671
g8
VYe
p1672
sg10
(lp1673
sg38
V367516
p1674
sg40
VE-01
p1675
sa(dp1676
g8
VYe,
p1677
sg10
(lp1678
sg38
V367517
p1679
sg40
VE-02
p1680
sa(dp1681
g8
VWU
p1682
sg10
(lp1683
sg38
V367518
p1684
sg40
VE-03
p1685
sasg38
V97827
p1686
sg40
VCE223L
p1687
sa(dp1688
g5
(lp1689
(dp1690
g8
VANDREI
p1691
sg10
(lp1692
(dp1693
g13
I9780757595332
sg14
VKitch
p1694
sg16
VRequired
p1695
sg18
VGeotechnical Engineering Laboratory(Revised Prtg)
p1696
sg20
Nsg22
Nsg24
F44.0
sasg38
V367525
p1697
sg40
VE-01
p1698
sa(dp1699
g8
VANDREI
p1700
sg10
(lp1701
(dp1702
g13
I9780757595332
sg14
VKitch
p1703
sg16
VRequired
p1704
sg18
VGeotechnical Engineering Laboratory(Revised Prtg)
p1705
sg20
Nsg22
Nsg24
F44.0
sasg38
V367526
p1706
sg40
VE-02
p1707
sasg38
V97831
p1708
sg40
VCE327L
p1709
sa(dp1710
g5
(lp1711
(dp1712
g8
VLamb
p1713
sg10
(lp1714
sg38
V367530
p1715
sg40
VE-01
p1716
sa(dp1717
g8
VLamb
p1718
sg10
(lp1719
sg38
V367531
p1720
sg40
VE-02
p1721
sa(dp1722
g8
VMartinez, Palomo
p1723
sg10
(lp1724
sg38
V367532
p1725
sg40
VE-03
p1726
sa(dp1727
g8
VPalomo Martinez
p1728
sg10
(lp1729
sg38
V367533
p1730
sg40
VE-04
p1731
sa(dp1732
g8
VMartinez, Palomo
p1733
sg10
(lp1734
sg38
V367534
p1735
sg40
VE-05
p1736
sa(dp1737
g8
VMartinez, Palomo
p1738
sg10
(lp1739
sg38
V367535
p1740
sg40
VE-06
p1741
sasg38
V97833
p1742
sg40
VCE332L
p1743
sa(dp1744
g5
(lp1745
(dp1746
g8
VBERK
p1747
sg10
(lp1748
sg38
V367537
p1749
sg40
VE-01
p1750
sasg38
V97835
p1751
sg40
VCE362A
p1752
sa(dp1753
g5
(lp1754
(dp1755
g8
VANDREI
p1756
sg10
(lp1757
(dp1758
g13
I9780136110583
sg14
VMamlouk
p1759
sg16
VRequired
p1760
sg18
VMaterials For Civil Construction Engineering
p1761
sg20
VHardback
p1762
sg22
g115
sg24
F143.45
sa(dp1763
g13
I9780136110330
sg14
VMamlouk (Db*)
p1764
sg16
VOptional
p1765
sg18
VMaterials For Civil & Construction Engineers (Coursesmart)
p1766
sg20
VEbook
p1767
sg22
g115
sg24
F61.0
sasg38
V367540
p1768
sg40
VE-01
p1769
sa(dp1770
g8
VANDREI
p1771
sg10
(lp1772
(dp1773
g13
I9780136110583
sg14
VMamlouk
p1774
sg16
VRequired
p1775
sg18
VMaterials For Civil Construction Engineering
p1776
sg20
VHardback
p1777
sg22
g115
sg24
F143.45
sa(dp1778
g13
I9780136110330
sg14
VMamlouk (Db*)
p1779
sg16
VOptional
p1780
sg18
VMaterials For Civil & Construction Engineers (Coursesmart)
p1781
sg20
VEbook
p1782
sg22
g115
sg24
F61.0
sasg38
V367541
p1783
sg40
VE-02
p1784
sasg38
V97838
p1785
sg40
VCE422L
p1786
sa(dp1787
g5
(lp1788
(dp1789
g8
VWU
p1790
sg10
(lp1791
sg38
V379883
p1792
sg40
VE-01
p1793
sasg38
V99383
p1794
sg40
VCE429L
p1795
sa(dp1796
g5
(lp1797
(dp1798
g8
VYadegari
p1799
sg10
(lp1800
sg38
V379885
p1801
sg40
VE-01
p1802
sasg38
V99385
p1803
sg40
VCE433L
p1804
sasg469
VCE
p1805
sg38
V4763
p1806
sg40
VCIVIL ENGINEERING
p1807
sa(dp1808
g2
(lp1809
(dp1810
g5
(lp1811
(dp1812
g8
VLI
p1813
sg10
(lp1814
sg38
V380190
p1815
sg40
V01
p1816
sasg38
V100644
p1817
sg40
VCHE299
p1818
sasg469
VCHE
p1819
sg38
V4764
p1820
sg40
VCHEM & MATRLS ENGR
p1821
sa(dp1822
g2
(lp1823
(dp1824
g5
(lp1825
(dp1826
g8
VPAGE
p1827
sg10
(lp1828
(dp1829
g13
I9781256287018
sg14
VMcmurry*
p1830
sg16
VRequired
p1831
sg18
VChemistry W/Masteringchemistry, Solutions Manual, & Iclicker Rebate
p1832
sg20
Nsg22
Nsg24
F201.15
sa(dp1833
g13
I9780321723437
sg14
VPearson
p1834
sg16
VPart of Set
p1835
sg18
VMasteringchemistry Access Code (W/E-Book)
p1836
sg20
Nsg22
Nsg24
F111.75
sa(dp1837
g13
I9781256363552
sg14
VMcmurry
p1838
sg16
VPart of Set
p1839
sg18
VChemistry (Custom)
p1840
sg20
Nsg22
Nsg24
F164.4
sa(dp1841
g13
I9780321727268
sg14
VMcmurry
p1842
sg16
VPart of Set
p1843
sg18
VChemistry Students Solutions Manual
p1844
sg20
VPaperback
p1845
sg22
g169
sg24
F78.65
sa(dp1846
g13
I9780321729903
sg14
VPearson
p1847
sg16
VPart of Set
p1848
sg18
VMastering Chemistry Sac (No Ebook) T/A Mcmurry
p1849
sg20
VAccess Code
p1850
sg22
g169
sg24
F64.7
sasg38
V379853
p1851
sg40
VE-0I
p1852
sa(dp1853
g8
VPAGE,
p1854
sg10
(lp1855
(dp1856
g13
I9781256287018
sg14
VMcmurry*
p1857
sg16
VRequired
p1858
sg18
VChemistry W/Masteringchemistry, Solutions Manual, & Iclicker Rebate
p1859
sg20
Nsg22
Nsg24
F201.15
sa(dp1860
g13
I9780321723437
sg14
VPearson
p1861
sg16
VPart of Set
p1862
sg18
VMasteringchemistry Access Code (W/E-Book)
p1863
sg20
Nsg22
Nsg24
F111.75
sa(dp1864
g13
I9781256363552
sg14
VMcmurry
p1865
sg16
VPart of Set
p1866
sg18
VChemistry (Custom)
p1867
sg20
Nsg22
Nsg24
F164.4
sa(dp1868
g13
I9780321727268
sg14
VMcmurry
p1869
sg16
VPart of Set
p1870
sg18
VChemistry Students Solutions Manual
p1871
sg20
VPaperback
p1872
sg22
g169
sg24
F78.65
sa(dp1873
g13
I9780321729903
sg14
VPearson
p1874
sg16
VPart of Set
p1875
sg18
VMastering Chemistry Sac (No Ebook) T/A Mcmurry
p1876
sg20
VAccess Code
p1877
sg22
g169
sg24
F64.7
sasg38
V367550
p1878
sg40
VE-OI
p1879
sasg38
V97841
p1880
sg40
VCHM121
p1881
sa(dp1882
g5
(lp1883
(dp1884
g8
VLabadzhyan
p1885
sg10
(lp1886
(dp1887
g13
I9781256287018
sg14
VMcmurry*
p1888
sg16
VRequired
p1889
sg18
VChemistry W/Masteringchemistry, Solutions Manual, & Iclicker Rebate
p1890
sg20
Nsg22
Nsg24
F201.15
sa(dp1891
g13
I9780321723437
sg14
VPearson
p1892
sg16
VPart of Set
p1893
sg18
VMasteringchemistry Access Code (W/E-Book)
p1894
sg20
Nsg22
Nsg24
F111.75
sa(dp1895
g13
I9781256363552
sg14
VMcmurry
p1896
sg16
VPart of Set
p1897
sg18
VChemistry (Custom)
p1898
sg20
Nsg22
Nsg24
F164.4
sa(dp1899
g13
I9780321727268
sg14
VMcmurry
p1900
sg16
VPart of Set
p1901
sg18
VChemistry Students Solutions Manual
p1902
sg20
VPaperback
p1903
sg22
g169
sg24
F78.65
sa(dp1904
g13
I9780321729903
sg14
VPearson
p1905
sg16
VPart of Set
p1906
sg18
VMastering Chemistry Sac (No Ebook) T/A Mcmurry
p1907
sg20
VAccess Code
p1908
sg22
g169
sg24
F64.7
sasg38
V367555
p1909
sg40
VE-01
p1910
sa(dp1911
g8
VMargolese
p1912
sg10
(lp1913
(dp1914
g13
I9781256287018
sg14
VMcmurry*
p1915
sg16
VRequired
p1916
sg18
VChemistry W/Masteringchemistry, Solutions Manual, & Iclicker Rebate
p1917
sg20
Nsg22
Nsg24
F201.15
sa(dp1918
g13
I9780321723437
sg14
VPearson
p1919
sg16
VPart of Set
p1920
sg18
VMasteringchemistry Access Code (W/E-Book)
p1921
sg20
Nsg22
Nsg24
F111.75
sa(dp1922
g13
I9781256363552
sg14
VMcmurry
p1923
sg16
VPart of Set
p1924
sg18
VChemistry (Custom)
p1925
sg20
Nsg22
Nsg24
F164.4
sa(dp1926
g13
I9780321727268
sg14
VMcmurry
p1927
sg16
VPart of Set
p1928
sg18
VChemistry Students Solutions Manual
p1929
sg20
VPaperback
p1930
sg22
g169
sg24
F78.65
sa(dp1931
g13
I9780321729903
sg14
VPearson
p1932
sg16
VPart of Set
p1933
sg18
VMastering Chemistry Sac (No Ebook) T/A Mcmurry
p1934
sg20
VAccess Code
p1935
sg22
g169
sg24
F64.7
sasg38
V367556
p1936
sg40
VE-02
p1937
sasg38
V97843
p1938
sg40
VCHM122
p1939
sa(dp1940
g5
(lp1941
(dp1942
g8
VTERRAZAS
p1943
sg10
(lp1944
(dp1945
g13
I9781256287018
sg14
VMcmurry*
p1946
sg16
VRequired
p1947
sg18
VChemistry W/Masteringchemistry, Solutions Manual, & Iclicker Rebate
p1948
sg20
Nsg22
Nsg24
F201.15
sa(dp1949
g13
I9780321723437
sg14
VPearson
p1950
sg16
VPart of Set
p1951
sg18
VMasteringchemistry Access Code (W/E-Book)
p1952
sg20
Nsg22
Nsg24
F111.75
sa(dp1953
g13
I9781256363552
sg14
VMcmurry
p1954
sg16
VPart of Set
p1955
sg18
VChemistry (Custom)
p1956
sg20
Nsg22
Nsg24
F164.4
sa(dp1957
g13
I9780321727268
sg14
VMcmurry
p1958
sg16
VPart of Set
p1959
sg18
VChemistry Students Solutions Manual
p1960
sg20
VPaperback
p1961
sg22
g169
sg24
F78.65
sa(dp1962
g13
I9780321729903
sg14
VPearson
p1963
sg16
VPart of Set
p1964
sg18
VMastering Chemistry Sac (No Ebook) T/A Mcmurry
p1965
sg20
VAccess Code
p1966
sg22
g169
sg24
F64.7
sasg38
V367561
p1967
sg40
VE-01
p1968
sa(dp1969
g8
VLabadzhyan
p1970
sg10
(lp1971
(dp1972
g13
I9781256287018
sg14
VMcmurry*
p1973
sg16
VRequired
p1974
sg18
VChemistry W/Masteringchemistry, Solutions Manual, & Iclicker Rebate
p1975
sg20
Nsg22
Nsg24
F201.15
sa(dp1976
g13
I9780321723437
sg14
VPearson
p1977
sg16
VPart of Set
p1978
sg18
VMasteringchemistry Access Code (W/E-Book)
p1979
sg20
Nsg22
Nsg24
F111.75
sa(dp1980
g13
I9781256363552
sg14
VMcmurry
p1981
sg16
VPart of Set
p1982
sg18
VChemistry (Custom)
p1983
sg20
Nsg22
Nsg24
F164.4
sa(dp1984
g13
I9780321727268
sg14
VMcmurry
p1985
sg16
VPart of Set
p1986
sg18
VChemistry Students Solutions Manual
p1987
sg20
VPaperback
p1988
sg22
g169
sg24
F78.65
sa(dp1989
g13
I9780321729903
sg14
VPearson
p1990
sg16
VPart of Set
p1991
sg18
VMastering Chemistry Sac (No Ebook) T/A Mcmurry
p1992
sg20
VAccess Code
p1993
sg22
g169
sg24
F64.7
sasg38
V367562
p1994
sg40
VE-02
p1995
sasg38
V97845
p1996
sg40
VCHM123
p1997
sa(dp1998
g5
(lp1999
(dp2000
g8
VPAGE
p2001
sg10
(lp2002
(dp2003
g13
I9780321633859
sg14
VBruice*
p2004
sg16
VRequired
p2005
sg18
VEssential Organic Chemistry W/S.G & Sol Man
p2006
sg20
VKit/Set/Package
p2007
sg22
g515
sg24
F173.05
sa(dp2008
g13
I9780321677013
sg14
VBruice (Db*)
p2009
sg16
VOptional
p2010
sg18
VEssential Organic Chemistry (Coursesmart Digital)
p2011
sg20
VEbook
p2012
sg22
g515
sg24
F99.0
sa(dp2013
g13
I9780321592583
sg14
VBruice
p2014
sg16
VPart of Set
p2015
sg18
VEssential Organic Chemistry S.G.  & Sol Man
p2016
sg20
VPaperback
p2017
sg22
g515
sg24
F74.35
sa(dp2018
g13
I9780321596956
sg14
VBruice
p2019
sg16
VPart of Set
p2020
sg18
VEssential Organic Chemistry
p2021
sg20
VHardback
p2022
sg22
g515
sg24
F173.05
sasg38
V367567
p2023
sg40
VE-01
p2024
sasg38
V97847
p2025
sg40
VCHM201
p2026
sa(dp2027
g5
(lp2028
(dp2029
g8
VSTRENG
p2030
sg10
(lp2031
(dp2032
g13
I9781429275033
sg14
VHarris
p2033
sg16
VRequired
p2034
sg18
VExploring Chemical Analysis
p2035
sg20
VPaperback
p2036
sg22
g412
sg24
F146.65
sa(dp2037
g13
I9781464106422
sg14
VHarris (Db*)
p2038
sg16
VOptional
p2039
sg18
VExploring Chemical Analysis (Coursesmart)
p2040
sg20
VEbook
p2041
sg22
g412
sg24
F56.0
sasg38
V367568
p2042
sg40
VE-01
p2043
sasg38
V97848
p2044
sg40
VCHM221
p2045
sa(dp2046
g5
(lp2047
(dp2048
g8
VFLORES
p2049
sg10
(lp2050
(dp2051
g13
I9780321647139
sg14
VWade*
p2052
sg16
VRequired
p2053
sg18
VOrganic Chemistry W/Ssm & Ace
p2054
sg20
VKit/Set/Package
p2055
sg22
g75
sg24
F270.25
sa(dp2056
g13
I9780321598745
sg14
VWade (Db*)
p2057
sg16
VOptional
p2058
sg18
VOrganic Chemistry (Coursesmart Digital)
p2059
sg20
VEbook
p2060
sg22
g75
sg24
F129.0
sa(dp2061
g13
I9780321592316
sg14
VWade
p2062
sg16
VPart of Set
p2063
sg18
VOrganic Chemistry
p2064
sg20
VHardback
p2065
sg22
g75
sg24
F216.2
sa(dp2066
g13
I9780321598714
sg14
VWade
p2067
sg16
VPart of Set
p2068
sg18
VOrganic Chemistry Sol Man
p2069
sg20
VPaperback
p2070
sg22
g75
sg24
F121.0
sa(dp2071
g13
I9780321616173
sg14
VWade
p2072
sg16
VPart of Set
p2073
sg18
VAce Acces Kit Organic Chemistry
p2074
sg20
VAccess Code
p2075
sg22
g75
sg24
F35.3
sasg38
V367576
p2076
sg40
VE-01
p2077
sasg38
V97851
p2078
sg40
VCHM314
p2079
sa(dp2080
g5
(lp2081
(dp2082
g8
VFLORES
p2083
sg10
(lp2084
(dp2085
g13
I9780321647139
sg14
VWade*
p2086
sg16
VRequired
p2087
sg18
VOrganic Chemistry W/Ssm & Ace
p2088
sg20
VKit/Set/Package
p2089
sg22
g75
sg24
F270.25
sa(dp2090
g13
I9780321598745
sg14
VWade (Db*)
p2091
sg16
VOptional
p2092
sg18
VOrganic Chemistry (Coursesmart Digital)
p2093
sg20
VEbook
p2094
sg22
g75
sg24
F129.0
sa(dp2095
g13
I9780321592316
sg14
VWade
p2096
sg16
VPart of Set
p2097
sg18
VOrganic Chemistry
p2098
sg20
VHardback
p2099
sg22
g75
sg24
F216.2
sa(dp2100
g13
I9780321598714
sg14
VWade
p2101
sg16
VPart of Set
p2102
sg18
VOrganic Chemistry Sol Man
p2103
sg20
VPaperback
p2104
sg22
g75
sg24
F121.0
sa(dp2105
g13
I9780321616173
sg14
VWade
p2106
sg16
VPart of Set
p2107
sg18
VAce Acces Kit Organic Chemistry
p2108
sg20
VAccess Code
p2109
sg22
g75
sg24
F35.3
sasg38
V367577
p2110
sg40
VE-01
p2111
sasg38
V97852
p2112
sg40
VCHM315
p2113
sa(dp2114
g5
(lp2115
(dp2116
g8
VKLAVETTER
p2117
sg10
(lp2118
(dp2119
g13
I9780321647139
sg14
VWade*
p2120
sg16
VRequired
p2121
sg18
VOrganic Chemistry W/Ssm & Ace
p2122
sg20
VKit/Set/Package
p2123
sg22
g75
sg24
F270.25
sa(dp2124
g13
I9780321598745
sg14
VWade (Db*)
p2125
sg16
VOptional
p2126
sg18
VOrganic Chemistry (Coursesmart Digital)
p2127
sg20
VEbook
p2128
sg22
g75
sg24
F129.0
sa(dp2129
g13
I9780321592316
sg14
VWade
p2130
sg16
VPart of Set
p2131
sg18
VOrganic Chemistry
p2132
sg20
VHardback
p2133
sg22
g75
sg24
F216.2
sa(dp2134
g13
I9780321598714
sg14
VWade
p2135
sg16
VPart of Set
p2136
sg18
VOrganic Chemistry Sol Man
p2137
sg20
VPaperback
p2138
sg22
g75
sg24
F121.0
sa(dp2139
g13
I9780321616173
sg14
VWade
p2140
sg16
VPart of Set
p2141
sg18
VAce Acces Kit Organic Chemistry
p2142
sg20
VAccess Code
p2143
sg22
g75
sg24
F35.3
sasg38
V367578
p2144
sg40
VE-01
p2145
sasg38
V97853
p2146
sg40
VCHM316
p2147
sa(dp2148
g5
(lp2149
(dp2150
g8
VOPOTOWSKY
p2151
sg10
(lp2152
(dp2153
g13
I9780199730841
sg14
VMckee
p2154
sg16
VRequired
p2155
sg18
VBiochemistry
p2156
sg20
VHardback
p2157
sg22
g412
sg24
F149.0
sa(dp2158
g13
I9780199730971
sg14
VMckee
p2159
sg16
VOptional
p2160
sg18
VBiochemistry St S.G/Sol Man
p2161
sg20
VPaperback
p2162
sg22
g412
sg24
F44.95
sasg38
V367583
p2163
sg40
VE-01
p2164
sasg38
V97857
p2165
sg40
VCHM321
p2166
sa(dp2167
g5
(lp2168
(dp2169
g8
VSTAFF
p2170
sg10
(lp2171
(dp2172
g13
I9781429224161
sg14
VNelson*
p2173
sg16
VRequired
p2174
sg18
VLehninger Principles Of Biochemistry W/E-Book Access Card
p2175
sg20
VKit/Set/Package
p2176
sg22
g412
sg24
F218.75
sa(dp2177
g13
I9781429225649
sg14
VNelson*
p2178
sg16
VRequired
p2179
sg18
VLehninger Principles Of Biochemistry (Loose-Leaf) W/E-Book Access Card
p2180
sg20
VKit/Set/Package
p2181
sg22
g412
sg24
F142.25
sa(dp2182
g13
I9781429228824
sg14
VNelson (Db*)
p2183
sg16
VOptional
p2184
sg18
VLehninger Principles Of Biochemistry  (Coursesmart Digital)
p2185
sg20
VEbook
p2186
sg22
g412
sg24
F120.0
sa(dp2187
g13
I9781429212410
sg14
VNelson
p2188
sg16
VOptional
p2189
sg18
VLehninger Principles Of Biochemistry S.G. & Sol Man
p2190
sg20
VPaperback
p2191
sg22
g412
sg24
F74.95
sa(dp2192
g13
I9780716771081
sg14
VNelson
p2193
sg16
VPart of Set
p2194
sg18
VLehninger Principles Of Biochemistry
p2195
sg20
VHardback
p2196
sg22
g412
sg24
F218.75
sa(dp2197
g13
I9781429212427
sg14
VNelson
p2198
sg16
VPart of Set
p2199
sg18
VLehninger Principles Of Biochemistry E-Book Access Card
p2200
sg20
Nsg22
Nsg24
F100.25
sasg38
V367590
p2201
sg40
VE-01
p2202
sasg38
V97859
p2203
sg40
VCHM329
p2204
sa(dp2205
g5
(lp2206
(dp2207
g8
VANZ
p2208
sg10
(lp2209
(dp2210
g13
I9780738045016
sg14
VCasalnuovo
p2211
sg16
VRequired
p2212
sg18
VChemistry 121L Lab Manual 2011-2012
p2213
sg20
Nsg22
Nsg24
F17.95
sasg38
V367551
p2214
sg40
VE-01
p2215
sa(dp2216
g8
VBogonko
p2217
sg10
(lp2218
(dp2219
g13
I9780738045016
sg14
VCasalnuovo
p2220
sg16
VRequired
p2221
sg18
VChemistry 121L Lab Manual 2011-2012
p2222
sg20
Nsg22
Nsg24
F17.95
sasg38
V367552
p2223
sg40
VE-02
p2224
sa(dp2225
g8
VLy
p2226
sg10
(lp2227
(dp2228
g13
I9780738045016
sg14
VCasalnuovo
p2229
sg16
VRequired
p2230
sg18
VChemistry 121L Lab Manual 2011-2012
p2231
sg20
Nsg22
Nsg24
F17.95
sasg38
V367553
p2232
sg40
VE-03
p2233
sa(dp2234
g8
VSTAFF,
p2235
sg10
(lp2236
(dp2237
g13
I9780738045016
sg14
VCasalnuovo
p2238
sg16
VRequired
p2239
sg18
VChemistry 121L Lab Manual 2011-2012
p2240
sg20
Nsg22
Nsg24
F17.95
sasg38
V367554
p2241
sg40
VE-04
p2242
sasg38
V97842
p2243
sg40
VCHM121L
p2244
sa(dp2245
g5
(lp2246
(dp2247
g8
VBERRY
p2248
sg10
(lp2249
(dp2250
g13
I9780738045009
sg14
VCasalnuovo
p2251
sg16
VRequired
p2252
sg18
VChemistry 122L Lab Manual 2011-2012
p2253
sg20
Nsg22
Nsg24
F17.95
sasg38
V367557
p2254
sg40
VE-01
p2255
sa(dp2256
g8
VANZ
p2257
sg10
(lp2258
(dp2259
g13
I9780738045009
sg14
VCasalnuovo
p2260
sg16
VRequired
p2261
sg18
VChemistry 122L Lab Manual 2011-2012
p2262
sg20
Nsg22
Nsg24
F17.95
sasg38
V367558
p2263
sg40
VE-02
p2264
sa(dp2265
g8
VSTAFF,
p2266
sg10
(lp2267
(dp2268
g13
I9780738045009
sg14
VCasalnuovo
p2269
sg16
VRequired
p2270
sg18
VChemistry 122L Lab Manual 2011-2012
p2271
sg20
Nsg22
Nsg24
F17.95
sasg38
V367559
p2272
sg40
VE-03
p2273
sa(dp2274
g8
VLy
p2275
sg10
(lp2276
(dp2277
g13
I9780738045009
sg14
VCasalnuovo
p2278
sg16
VRequired
p2279
sg18
VChemistry 122L Lab Manual 2011-2012
p2280
sg20
Nsg22
Nsg24
F17.95
sasg38
V367560
p2281
sg40
VE-04
p2282
sasg38
V97844
p2283
sg40
VCHM122L
p2284
sa(dp2285
g5
(lp2286
(dp2287
g8
VDANG
p2288
sg10
(lp2289
(dp2290
g13
I9780738044996
sg14
VCasalnuovo
p2291
sg16
VRequired
p2292
sg18
VChemistry 123L Lab Manual 2011-2012
p2293
sg20
Nsg22
Nsg24
F17.95
sasg38
V367563
p2294
sg40
VE-01
p2295
sa(dp2296
g8
VMargolese
p2297
sg10
(lp2298
(dp2299
g13
I9780738044996
sg14
VCasalnuovo
p2300
sg16
VRequired
p2301
sg18
VChemistry 123L Lab Manual 2011-2012
p2302
sg20
Nsg22
Nsg24
F17.95
sasg38
V367564
p2303
sg40
VE-02
p2304
sa(dp2305
g8
VMargolese
p2306
sg10
(lp2307
(dp2308
g13
I9780738044996
sg14
VCasalnuovo
p2309
sg16
VRequired
p2310
sg18
VChemistry 123L Lab Manual 2011-2012
p2311
sg20
Nsg22
Nsg24
F17.95
sasg38
V367565
p2312
sg40
VE-03
p2313
sa(dp2314
g8
VTERRAZAS
p2315
sg10
(lp2316
(dp2317
g13
I9780738044996
sg14
VCasalnuovo
p2318
sg16
VRequired
p2319
sg18
VChemistry 123L Lab Manual 2011-2012
p2320
sg20
Nsg22
Nsg24
F17.95
sasg38
V367566
p2321
sg40
VE-04
p2322
sasg38
V97846
p2323
sg40
VCHM123L
p2324
sa(dp2325
g5
(lp2326
(dp2327
g8
VTERRAZAS
p2328
sg10
(lp2329
sg38
V367569
p2330
sg40
VE-01
p2331
sa(dp2332
g8
VTERRAZAS
p2333
sg10
(lp2334
sg38
V367570
p2335
sg40
VE-02
p2336
sa(dp2337
g8
VSTRENG
p2338
sg10
(lp2339
sg38
V367571
p2340
sg40
VE-03
p2341
sasg38
V97849
p2342
sg40
VCHM221L
p2343
sa(dp2344
g5
(lp2345
(dp2346
g8
VDANG
p2347
sg10
(lp2348
sg38
V367572
p2349
sg40
VE-01
p2350
sa(dp2351
g8
VDANG
p2352
sg10
(lp2353
sg38
V367573
p2354
sg40
VE-02
p2355
sa(dp2356
g8
VSTAFF,
p2357
sg10
(lp2358
sg38
V367574
p2359
sg40
VE-03
p2360
sa(dp2361
g8
VSTAFF,
p2362
sg10
(lp2363
sg38
V367575
p2364
sg40
VE-04
p2365
sasg38
V97850
p2366
sg40
VCHM250L
p2367
sa(dp2368
g5
(lp2369
(dp2370
g8
VROBLEDO
p2371
sg10
(lp2372
(dp2373
g13
I9780470494370
sg14
VZubrick
p2374
sg16
VRequired
p2375
sg18
VOrganic Chem Lab Survival Manual
p2376
sg20
VPaperback
p2377
sg22
g23
sg24
F76.0
sa(dp2378
g13
I9780470565926
sg14
VZubrick (Db*)
p2379
sg16
VOptional
p2380
sg18
VOrganic Chem Lab Survival Manual (Coursesmart)
p2381
sg20
VEbook
p2382
sg22
g23
sg24
F37.5
sasg38
V367579
p2383
sg40
VE-01
p2384
sa(dp2385
g8
VSTAFF,
p2386
sg10
(lp2387
(dp2388
g13
I9780470494370
sg14
VZubrick
p2389
sg16
VRequired
p2390
sg18
VOrganic Chem Lab Survival Manual
p2391
sg20
VPaperback
p2392
sg22
g23
sg24
F76.0
sa(dp2393
g13
I9780470565926
sg14
VZubrick (Db*)
p2394
sg16
VOptional
p2395
sg18
VOrganic Chem Lab Survival Manual (Coursesmart)
p2396
sg20
VEbook
p2397
sg22
g23
sg24
F37.5
sasg38
V367580
p2398
sg40
VE-02
p2399
sasg38
V97854
p2400
sg40
VCHM317L
p2401
sa(dp2402
g5
(lp2403
(dp2404
g8
VFLORES
p2405
sg10
(lp2406
(dp2407
g13
I9780618824281
sg14
VWilliamson
p2408
sg16
VRequired
p2409
sg18
VMacroscale And Microscale--Selected Organic Experiments (Custom)
p2410
sg20
VNone
p2411
sg22
g599
sg24
F61.35
sa(dp2412
g13
I9780470494370
sg14
VZubrick
p2413
sg16
VRequired
p2414
sg18
VOrganic Chem Lab Survival Manual
p2415
sg20
VPaperback
p2416
sg22
g23
sg24
F76.0
sa(dp2417
g13
I9780470565926
sg14
VZubrick (Db*)
p2418
sg16
VOptional
p2419
sg18
VOrganic Chem Lab Survival Manual (Coursesmart)
p2420
sg20
VEbook
p2421
sg22
g23
sg24
F37.5
sasg38
V367581
p2422
sg40
VE-01
p2423
sasg38
V97855
p2424
sg40
VCHM318L
p2425
sa(dp2426
g5
(lp2427
(dp2428
g8
VFLORES
p2429
sg10
(lp2430
(dp2431
g13
I9780618824281
sg14
VWilliamson
p2432
sg16
VRequired
p2433
sg18
VMacroscale And Microscale--Selected Organic Experiments (Custom)
p2434
sg20
VNone
p2435
sg22
g599
sg24
F61.35
sa(dp2436
g13
I9780470494370
sg14
VZubrick
p2437
sg16
VRequired
p2438
sg18
VOrganic Chem Lab Survival Manual
p2439
sg20
VPaperback
p2440
sg22
g23
sg24
F76.0
sa(dp2441
g13
I9780470565926
sg14
VZubrick (Db*)
p2442
sg16
VOptional
p2443
sg18
VOrganic Chem Lab Survival Manual (Coursesmart)
p2444
sg20
VEbook
p2445
sg22
g23
sg24
F37.5
sasg38
V367582
p2446
sg40
VE-01
p2447
sasg38
V97856
p2448
sg40
VCHM319L
p2449
sa(dp2450
g5
(lp2451
(dp2452
g8
VOPOTOWSKY
p2453
sg10
(lp2454
sg38
V367584
p2455
sg40
VE-01
p2456
sa(dp2457
g8
VMCCOY
p2458
sg10
(lp2459
sg38
V367585
p2460
sg40
VE-02
p2461
sa(dp2462
g8
VOPOTOWSKY
p2463
sg10
(lp2464
sg38
V367586
p2465
sg40
VE-03
p2466
sa(dp2467
g8
VMCCOY
p2468
sg10
(lp2469
sg38
V367587
p2470
sg40
VE-04
p2471
sa(dp2472
g8
VSTAFF,
p2473
sg10
(lp2474
sg38
V367588
p2475
sg40
VE-05
p2476
sa(dp2477
g8
VSTAFF,
p2478
sg10
(lp2479
sg38
V367589
p2480
sg40
VE-06
p2481
sasg38
V97858
p2482
sg40
VCHM321L
p2483
sa(dp2484
g5
(lp2485
(dp2486
g8
VOPOTOWSKY
p2487
sg10
(lp2488
sg38
V367591
p2489
sg40
VE-01
p2490
sa(dp2491
g8
VOPOTOWSKY
p2492
sg10
(lp2493
sg38
V367592
p2494
sg40
VE-02
p2495
sasg38
V97860
p2496
sg40
VCHM329L
p2497
sasg469
VCHM
p2498
sg38
V4803
p2499
sg40
VCHEMISTRY
p2500
sa(dp2501
g2
(lp2502
(dp2503
g5
(lp2504
(dp2505
g8
VGUTHRIE
p2506
sg10
(lp2507
sg38
V379856
p2508
sg40
VE-01
p2509
sasg38
V97862
p2510
sg40
VCIS231
p2511
sa(dp2512
g5
(lp2513
(dp2514
g8
VGUTHRIE
p2515
sg10
(lp2516
(dp2517
g13
I9780077546779
sg14
VBaltzan*
p2518
sg16
VRequired
p2519
sg18
VBusiness-Driven Information Systems W/Connect (Custom)
p2520
sg20
Nsg22
Nsg24
F125.0
sa(dp2521
g13
I9780077546786
sg14
VBaltzan*
p2522
sg16
VRequired
p2523
sg18
VBusiness-Driven Information Systems (Looseleaf) W/Connect (Custom)
p2524
sg20
Nsg22
Nsg24
F119.0
sa(dp2525
g13
I9780077338350
sg14
VBaltzan/Mcgraw-Hill
p2526
sg16
VPart of Set
p2527
sg18
VConnect Access Code T/A Business Driven System Book
p2528
sg20
Nsg22
Nsg24
F47.05
sasg38
V379860
p2529
sg40
VE-02
p2530
sasg38
V97866
p2531
sg40
VCIS310
p2532
sa(dp2533
g5
(lp2534
(dp2535
g8
VHWANG
p2536
sg10
(lp2537
(dp2538
g13
I9780735627406
sg14
VNorthrup
p2539
sg16
VRequired
p2540
sg18
VWeb Applications Development With Microsoft.Net Framework 4
p2541
sg20
Nsg22
Nsg24
F70.0
sasg38
V379861
p2542
sg40
VE-01
p2543
sasg38
V97867
p2544
sg40
VCIS311
p2545
sasg469
VCIS
p2546
sg38
V4766
p2547
sg40
VCOMPUTER INFO SYST
p2548
sa(dp2549
g2
(lp2550
(dp2551
g5
(lp2552
(dp2553
g8
VSTAFF,
p2554
sg10
(lp2555
(dp2556
g13
I9781256518112
sg14
VFord-Brown*
p2557
sg16
VRequired
p2558
sg18
VDk Guide To Public Speaking W/Making The Grade, Myspeechlab, & Ren Your Writing
p2559
sg20
Nsg22
Nsg24
F78.55
sa(dp2560
g13
I9780205828067
sg14
VFord-Brown (Db*)
p2561
sg16
VOptional
p2562
sg18
VDk Guide To Public Speaking (Coursesmart)
p2563
sg20
Nsg22
Nsg24
F31.0
sa(dp2564
g13
I9780205750115
sg14
VFord-Brown
p2565
sg16
VPart of Set
p2566
sg18
VDk Guide To Public Speaking
p2567
sg20
Nsg22
Nsg24
F77.35
sa(dp2568
g13
I9780205890064
sg14
VPearson
p2569
sg16
VPart of Set
p2570
sg18
VMy Speechlab For Dk Guide To Public Speaking W/O Etext
p2571
sg20
Nsg22
Nsg24
F41.2
sa(dp2572
g13
I9780205254392
sg14
VKallan
p2573
sg16
VPart of Set
p2574
sg18
VRenovating Your Writing
p2575
sg20
Nsg22
Nsg24
F16.65
sasg38
V379866
p2576
sg40
V01
p2577
sa(dp2578
g8
VSTAFF
p2579
sg10
(lp2580
(dp2581
g13
I9781256518112
sg14
VFord-Brown*
p2582
sg16
VRequired
p2583
sg18
VDk Guide To Public Speaking W/Making The Grade, Myspeechlab, & Ren Your Writing
p2584
sg20
Nsg22
Nsg24
F78.55
sa(dp2585
g13
I9780205828067
sg14
VFord-Brown (Db*)
p2586
sg16
VOptional
p2587
sg18
VDk Guide To Public Speaking (Coursesmart)
p2588
sg20
Nsg22
Nsg24
F31.0
sa(dp2589
g13
I9780205750115
sg14
VFord-Brown
p2590
sg16
VPart of Set
p2591
sg18
VDk Guide To Public Speaking
p2592
sg20
Nsg22
Nsg24
F77.35
sa(dp2593
g13
I9780205890064
sg14
VPearson
p2594
sg16
VPart of Set
p2595
sg18
VMy Speechlab For Dk Guide To Public Speaking W/O Etext
p2596
sg20
Nsg22
Nsg24
F41.2
sa(dp2597
g13
I9780205254392
sg14
VKallan
p2598
sg16
VPart of Set
p2599
sg18
VRenovating Your Writing
p2600
sg20
Nsg22
Nsg24
F16.65
sasg38
V379867
p2601
sg40
V02
p2602
sa(dp2603
g8
VSTAFF
p2604
sg10
(lp2605
(dp2606
g13
I9781256518112
sg14
VFord-Brown*
p2607
sg16
VRequired
p2608
sg18
VDk Guide To Public Speaking W/Making The Grade, Myspeechlab, & Ren Your Writing
p2609
sg20
Nsg22
Nsg24
F78.55
sa(dp2610
g13
I9780205828067
sg14
VFord-Brown (Db*)
p2611
sg16
VOptional
p2612
sg18
VDk Guide To Public Speaking (Coursesmart)
p2613
sg20
Nsg22
Nsg24
F31.0
sa(dp2614
g13
I9780205750115
sg14
VFord-Brown
p2615
sg16
VPart of Set
p2616
sg18
VDk Guide To Public Speaking
p2617
sg20
Nsg22
Nsg24
F77.35
sa(dp2618
g13
I9780205890064
sg14
VPearson
p2619
sg16
VPart of Set
p2620
sg18
VMy Speechlab For Dk Guide To Public Speaking W/O Etext
p2621
sg20
Nsg22
Nsg24
F41.2
sa(dp2622
g13
I9780205254392
sg14
VKallan
p2623
sg16
VPart of Set
p2624
sg18
VRenovating Your Writing
p2625
sg20
Nsg22
Nsg24
F16.65
sasg38
V380104
p2626
sg40
V03
p2627
sasg38
V99367
p2628
sg40
VCOM100
p2629
sa(dp2630
g5
(lp2631
(dp2632
g8
VSTAFF,
p2633
sg10
(lp2634
(dp2635
g13
I9781256519089
sg14
VRybacki*
p2636
sg16
VRequired
p2637
sg18
VAdvocacy & Opposition W/Myspeechlab & Renovating Your Writing
p2638
sg20
Nsg22
Nsg24
F92.4
sa(dp2639
g13
I9780205781195
sg14
VRybacki (Db*)
p2640
sg16
VOptional
p2641
sg18
VAdvocacy & Opposition (Coursesmart)
p2642
sg20
VEbook
p2643
sg22
g75
sg24
F37.0
sa(dp2644
g13
I9780205781188
sg14
VRybacki
p2645
sg16
VPart of Set
p2646
sg18
VAdvocacy & Opposition
p2647
sg20
VPaperback
p2648
sg22
g75
sg24
F93.0
sa(dp2649
g13
I9780205254392
sg14
VKallan
p2650
sg16
VPart of Set
p2651
sg18
VRenovating Your Writing
p2652
sg20
Nsg22
Nsg24
F16.65
sasg38
V379868
p2653
sg40
V01
p2654
sa(dp2655
g8
VSTAFF
p2656
sg10
(lp2657
(dp2658
g13
I9781256519089
sg14
VRybacki*
p2659
sg16
VRequired
p2660
sg18
VAdvocacy & Opposition W/Myspeechlab & Renovating Your Writing
p2661
sg20
Nsg22
Nsg24
F92.4
sa(dp2662
g13
I9780205781195
sg14
VRybacki (Db*)
p2663
sg16
VOptional
p2664
sg18
VAdvocacy & Opposition (Coursesmart)
p2665
sg20
VEbook
p2666
sg22
g75
sg24
F37.0
sa(dp2667
g13
I9780205781188
sg14
VRybacki
p2668
sg16
VPart of Set
p2669
sg18
VAdvocacy & Opposition
p2670
sg20
VPaperback
p2671
sg22
g75
sg24
F93.0
sa(dp2672
g13
I9780205254392
sg14
VKallan
p2673
sg16
VPart of Set
p2674
sg18
VRenovating Your Writing
p2675
sg20
Nsg22
Nsg24
F16.65
sasg38
V379869
p2676
sg40
V02
p2677
sa(dp2678
g8
VSTAFF
p2679
sg10
(lp2680
(dp2681
g13
I9781256519089
sg14
VRybacki*
p2682
sg16
VRequired
p2683
sg18
VAdvocacy & Opposition W/Myspeechlab & Renovating Your Writing
p2684
sg20
Nsg22
Nsg24
F92.4
sa(dp2685
g13
I9780205781195
sg14
VRybacki (Db*)
p2686
sg16
VOptional
p2687
sg18
VAdvocacy & Opposition (Coursesmart)
p2688
sg20
VEbook
p2689
sg22
g75
sg24
F37.0
sa(dp2690
g13
I9780205781188
sg14
VRybacki
p2691
sg16
VPart of Set
p2692
sg18
VAdvocacy & Opposition
p2693
sg20
VPaperback
p2694
sg22
g75
sg24
F93.0
sa(dp2695
g13
I9780205254392
sg14
VKallan
p2696
sg16
VPart of Set
p2697
sg18
VRenovating Your Writing
p2698
sg20
Nsg22
Nsg24
F16.65
sasg38
V380105
p2699
sg40
V03
p2700
sasg38
V99368
p2701
sg40
VCOM204
p2702
sa(dp2703
g5
(lp2704
(dp2705
g8
VSTAFF
p2706
sg10
(lp2707
sg38
V379870
p2708
sg40
V01
p2709
sasg38
V99369
p2710
sg40
VCOM314
p2711
sa(dp2712
g5
(lp2713
(dp2714
g8
VSTAFF
p2715
sg10
(lp2716
(dp2717
g13
I9781412977821
sg14
VJowett
p2718
sg16
VRequired
p2719
sg18
VPropaganda & Persuasion
p2720
sg20
VPaperback
p2721
sg22
g412
sg24
F64.0
sasg38
V379871
p2722
sg40
V01
p2723
sasg38
V99370
p2724
sg40
VCOM413
p2725
sasg469
VCOM
p2726
sg38
V4808
p2727
sg40
VCOMMUNICATION
p2728
sa(dp2729
g2
(lp2730
(dp2731
g5
(lp2732
(dp2733
g8
VMunnerlyn
p2734
sg10
(lp2735
sg38
V370478
p2736
sg40
VE-01
p2737
sa(dp2738
g8
VMunnerlyn
p2739
sg10
(lp2740
sg38
V370479
p2741
sg40
VE-02
p2742
sasg38
V99343
p2743
sg40
VCPU100
p2744
sasg469
VCPU
p2745
sg38
V4769
p2746
sg40
VCAL POLY UNIVERSITY
p2747
sa(dp2748
g2
(lp2749
(dp2750
g5
(lp2751
(dp2752
g8
VRAHEJA
p2753
sg10
(lp2754
(dp2755
g13
I9780132576253
sg14
VGaddis
p2756
sg16
VRequired
p2757
sg18
VStarting Out With C++: From Control Struct Through Objects
p2758
sg20
VPaperback
p2759
sg22
g75
sg24
F126.55
sa(dp2760
g13
I9780132664837
sg14
VGaddis (Db*)
p2761
sg16
VOptional
p2762
sg18
VStarting Out With C++ From Control Structures Through Objects (Coursesmart)
p2763
sg20
VEbook
p2764
sg22
g75
sg24
F54.0
sasg38
V367604
p2765
sg40
VE-01
p2766
sasg38
V97871
p2767
sg40
VCS128
p2768
sa(dp2769
g5
(lp2770
(dp2771
g8
VYOUNG
p2772
sg10
(lp2773
(dp2774
g13
I9780716768647
sg14
VGersting
p2775
sg16
VRequired
p2776
sg18
VMathematical Structures For Computer Science
p2777
sg20
VHardback
p2778
sg22
g169
sg24
F155.0
sasg38
V367605
p2779
sg40
VE-01
p2780
sasg38
V97872
p2781
sg40
VCS130
p2782
sa(dp2783
g5
(lp2784
(dp2785
g8
VSTAFF
p2786
sg10
(lp2787
(dp2788
g13
I9780132855839
sg14
VGaddis
p2789
sg16
VRequired
p2790
sg18
VStarting Out W/Java: From Cont Struct Through Objects (W/Cd Only)
p2791
sg20
VPaperback
p2792
sg22
g412
sg24
F115.0
sa(dp2793
g13
I9780132855914
sg14
VGaddis (Db*)
p2794
sg16
VOptional
p2795
sg18
VJava Starting Out With Java C (Coursesmart)
p2796
sg20
VEbook
p2797
sg22
g412
sg24
F58.0
sasg38
V367606
p2798
sg40
VE-01
p2799
sasg38
V97873
p2800
sg40
VCS140
p2801
sa(dp2802
g5
(lp2803
(dp2804
g8
VSALLOUM
p2805
sg10
(lp2806
(dp2807
g13
I9780495471691
sg14
VRoth
p2808
sg16
VRequired
p2809
sg18
VFundamentals Of Logic Design (W/Cd)
p2810
sg20
VHardback
p2811
sg22
g169
sg24
F180.3
sa(dp2812
g13
I9780495873624
sg14
VRoth (Db*)
p2813
sg16
VOptional
p2814
sg18
VFundamentals Of Logic Design (Coursesmart Digital)
p2815
sg20
VEbook
p2816
sg22
g169
sg24
F102.5
sasg38
V367607
p2817
sg40
VE-01
p2818
sasg38
V97874
p2819
sg40
VCS210
p2820
sa(dp2821
g5
(lp2822
(dp2823
g8
VSALLOUM
p2824
sg10
(lp2825
(dp2826
g13
I9780132576246
sg14
VMain
p2827
sg16
VRequired
p2828
sg18
VData Structures & Other Objects Using Java
p2829
sg20
VPaperback
p2830
sg22
g599
sg24
F125.0
sa(dp2831
g13
I9780132576475
sg14
VMain (Db*)
p2832
sg16
VOptional
p2833
sg18
VData Structures & Other Objects Using Java (Coursesmart)
p2834
sg20
VEbook
p2835
sg22
g599
sg24
F50.0
sasg38
V367608
p2836
sg40
VE-01
p2837
sasg38
V97875
p2838
sg40
VCS240
p2839
sa(dp2840
g5
(lp2841
(dp2842
g8
VSTAFF
p2843
sg10
(lp2844
(dp2845
g13
I9780132576246
sg14
VMain
p2846
sg16
VRequired
p2847
sg18
VData Structures & Other Objects Using Java
p2848
sg20
VPaperback
p2849
sg22
g599
sg24
F125.0
sa(dp2850
g13
I9780132576475
sg14
VMain (Db*)
p2851
sg16
VOptional
p2852
sg18
VData Structures & Other Objects Using Java (Coursesmart)
p2853
sg20
VEbook
p2854
sg22
g599
sg24
F50.0
sasg38
V367609
p2855
sg40
VE-01
p2856
sasg38
V97876
p2857
sg40
VCS241
p2858
sa(dp2859
g5
(lp2860
(dp2861
g8
VYOUNG
p2862
sg10
(lp2863
sg38
V367610
p2864
sg40
VE-01
p2865
sasg38
V97877
p2866
sg40
VCS375
p2867
sasg469
VCS
p2868
sg38
V4770
p2869
sg40
VCOMPUTER SCIENCE
p2870
sa(dp2871
g2
(lp2872
(dp2873
g5
(lp2874
(dp2875
g8
VXU
p2876
sg10
(lp2877
(dp2878
g13
I9780132145381
sg14
VTurban
p2879
sg16
VRequired
p2880
sg18
VElectronic Commerce 2012
p2881
sg20
Nsg22
Nsg24
F195.0
sa(dp2882
g13
I9780132146371
sg14
VTurban (Db*)
p2883
sg16
VOptional
p2884
sg18
VElectronic Commerce 2012 (Coursesmart)
p2885
sg20
Nsg22
Nsg24
F77.0
sasg38
V367611
p2886
sg40
VE-01
p2887
sasg38
V97878
p2888
sg40
VEBZ301
p2889
sasg469
VEBZ
p2890
sg38
V4772
p2891
sg40
VELECTRONIC BUSINESS
p2892
sa(dp2893
g2
(lp2894
(dp2895
g5
(lp2896
(dp2897
g8
VRUSH
p2898
sg10
(lp2899
(dp2900
g13
I9781429283427
sg14
VKrugman
p2901
sg16
VRequired
p2902
sg18
VMicroeconomics
p2903
sg20
VPaperback
p2904
sg22
g115
sg24
F168.75
sasg38
V367612
p2905
sg40
VE-01
p2906
sasg38
V97879
p2907
sg40
VEC201
p2908
sa(dp2909
g5
(lp2910
(dp2911
g8
VBROWN
p2912
sg10
(lp2913
(dp2914
g13
I9781429266598
sg14
VKrugman*
p2915
sg16
VRequired
p2916
sg18
VMacroeconomics California (Looseleaf) W/Econportal
p2917
sg20
VLooseleaf
p2918
sg22
g515
sg24
F94.7
sasg38
V367613
p2919
sg40
VE-01
p2920
sasg38
V97880
p2921
sg40
VEC202
p2922
sa(dp2923
g5
(lp2924
(dp2925
g8
VLANGE
p2926
sg10
(lp2927
sg38
V367614
p2928
sg40
VE-01
p2929
sasg38
V97944
p2930
sg40
VEC406
p2931
sa(dp2932
g5
(lp2933
(dp2934
g8
VBROWN
p2935
sg10
(lp2936
(dp2937
g13
I9780321533739
sg14
VEhrenberg
p2938
sg16
VRequired
p2939
sg18
VModern Labor Economics
p2940
sg20
VHardback
p2941
sg22
V10
p2942
sg24
F193.75
sa(dp2943
g13
I9780321550941
sg14
VEhrenberg (Db*)
p2944
sg16
VOptional
p2945
sg18
VModern Labor Economics (Coursesmart)
p2946
sg20
VEbook
p2947
sg22
V10
p2948
sg24
F83.0
sasg38
V367615
p2949
sg40
VE-01
p2950
sasg38
V97945
p2951
sg40
VEC414
p2952
sa(dp2953
g5
(lp2954
(dp2955
g8
VBRESNOCK
p2956
sg10
(lp2957
(dp2958
g13
I9780470393741
sg14
VEsty
p2959
sg16
VRequired
p2960
sg18
VGreen To Gold
p2961
sg20
Nsg22
Nsg24
F21.95
sasg38
V367616
p2962
sg40
VE-01
p2963
sasg38
V97881
p2964
sg40
VEC441
p2965
sasg469
VEC
p2966
sg38
V4819
p2967
sg40
VECONOMICS
p2968
sa(dp2969
g2
(lp2970
(dp2971
g5
(lp2972
(dp2973
g8
VFERGUSON  JR
p2974
sg10
(lp2975
(dp2976
g13
I9780077263195
sg14
VAlexander
p2977
sg16
VRequired
p2978
sg18
VFundamentals Of Electric Circuits
p2979
sg20
VHardback
p2980
sg22
g599
sg24
F196.25
sasg38
V367618
p2981
sg40
VE-01
p2982
sasg38
V97882
p2983
sg40
VECE109
p2984
sa(dp2985
g5
(lp2986
(dp2987
g8
VMONEMI
p2988
sg10
(lp2989
(dp2990
g13
I9780132165419
sg14
VDeitel
p2991
sg16
VRequired
p2992
sg18
VC++: How To Program: Late Objects Vers (W/Cd Only)
p2993
sg20
VPaperback
p2994
sg22
g75
sg24
F124.0
sa(dp2995
g13
I9780132177412
sg14
VDeitel (Db*)
p2996
sg16
VOptional
p2997
sg18
VC++ How To Program (Coursesmart)
p2998
sg20
VEbook
p2999
sg22
g75
sg24
F50.0
sasg38
V367620
p3000
sg40
VE-01
p3001
sasg38
V97884
p3002
sg40
VECE114
p3003
sa(dp3004
g5
(lp3005
(dp3006
g8
VCHANDRA
p3007
sg10
(lp3008
sg38
V367622
p3009
sg40
VE-01
p3010
sasg38
V97886
p3011
sg40
VECE130
p3012
sa(dp3013
g5
(lp3014
(dp3015
g8
VSACCO
p3016
sg10
(lp3017
(dp3018
g13
I9780077211646
sg14
VBrown
p3019
sg16
VRequired
p3020
sg18
VFundamentals Of Digital Logic W/Verilog Design (W/Cd)
p3021
sg20
VCloth
p3022
sg22
g515
sg24
F180.95
sasg38
V367623
p3023
sg40
VE-01
p3024
sasg38
V97887
p3025
sg40
VECE205
p3026
sa(dp3027
g5
(lp3028
(dp3029
g8
VKANG
p3030
sg10
(lp3031
(dp3032
g13
I9780077263195
sg14
VAlexander
p3033
sg16
VRequired
p3034
sg18
VFundamentals Of Electric Circuits
p3035
sg20
VHardback
p3036
sg22
g599
sg24
F196.25
sasg38
V367625
p3037
sg40
VE-01
p3038
sasg38
V97889
p3039
sg40
VECE207
p3040
sa(dp3041
g5
(lp3042
(dp3043
g8
VCHANDRA
p3044
sg10
(lp3045
(dp3046
g13
I9780077263195
sg14
VAlexander
p3047
sg16
VRequired
p3048
sg18
VFundamentals Of Electric Circuits
p3049
sg20
VHardback
p3050
sg22
g599
sg24
F196.25
sasg38
V367627
p3051
sg40
VE-01
p3052
sasg38
V97891
p3053
sg40
VECE209
p3054
sa(dp3055
g5
(lp3056
(dp3057
g8
VOLSON
p3058
sg10
(lp3059
(dp3060
g13
I9780073380452
sg14
VJaeger
p3061
sg16
VRequired
p3062
sg18
VMicroelectronic Circuit Design
p3063
sg20
VHardback
p3064
sg22
g599
sg24
F188.15
sa(dp3065
g13
I9780077330040
sg14
VJaeger (Db*)
p3066
sg16
VOptional
p3067
sg18
VMicroelectronic Circuit Design (Coursesmart)
p3068
sg20
VEbook
p3069
sg22
g599
sg24
F105.5
sasg38
V367629
p3070
sg40
VE-01
p3071
sasg38
V97893
p3072
sg40
VECE220
p3073
sa(dp3074
g5
(lp3075
(dp3076
g8
VMONEMI
p3077
sg10
(lp3078
(dp3079
g13
I9780073380377
sg14
VRizzoni
p3080
sg16
VRequired
p3081
sg18
VFundamentals Of Electrical Engineering
p3082
sg20
Nsg22
Nsg24
F137.35
sa(dp3083
g13
I9780077272722
sg14
VRizzoni (Db*)
p3084
sg16
VOptional
p3085
sg18
VFundamentals Of Electrical Engineering (Coursesmart Digital)
p3086
sg20
Nsg22
Nsg24
F77.0
sasg38
V367632
p3087
sg40
VE-01
p3088
sasg38
V97895
p3089
sg40
VECE231
p3090
sa(dp3091
g5
(lp3092
(dp3093
g8
VLIN
p3094
sg10
(lp3095
(dp3096
g13
I9780132165419
sg14
VDeitel
p3097
sg16
VRequired
p3098
sg18
VC++: How To Program: Late Objects Vers (W/Cd Only)
p3099
sg20
VPaperback
p3100
sg22
g75
sg24
F124.0
sa(dp3101
g13
I9780132177412
sg14
VDeitel (Db*)
p3102
sg16
VOptional
p3103
sg18
VC++ How To Program (Coursesmart)
p3104
sg20
VEbook
p3105
sg22
g75
sg24
F50.0
sasg38
V367634
p3106
sg40
VE-01
p3107
sasg38
V97897
p3108
sg40
VECE256
p3109
sa(dp3110
g5
(lp3111
(dp3112
g8
VCHANDRA
p3113
sg10
(lp3114
(dp3115
g13
I9780470108772
sg14
VGilat
p3116
sg16
VRequired
p3117
sg18
VMatlab
p3118
sg20
VPaperback
p3119
sg22
g115
sg24
F88.0
sa(dp3120
g13
I9780470283059
sg14
VGilat (Db*)
p3121
sg16
VOptional
p3122
sg18
VMatlab (Coursesmart)
p3123
sg20
VEbook
p3124
sg22
g115
sg24
F44.5
sasg38
V367635
p3125
sg40
VE-01
p3126
sasg38
V97898
p3127
sg40
VECE257
p3128
sa(dp3129
g5
(lp3130
(dp3131
g8
VSACCO,
p3132
sg10
(lp3133
(dp3134
g13
I9780201566116
sg14
VCheng
p3135
sg16
VRequired
p3136
sg18
VFundamentals Of Engineering Electromagnetics
p3137
sg20
Nsg22
Nsg24
F174.4
sasg38
V367636
p3138
sg40
VE-01
p3139
sa(dp3140
g8
VKETSEOGLOU
p3141
sg10
(lp3142
(dp3143
g13
I9780201566116
sg14
VCheng
p3144
sg16
VRequired
p3145
sg18
VFundamentals Of Engineering Electromagnetics
p3146
sg20
Nsg22
Nsg24
F174.4
sasg38
V367637
p3147
sg40
VE-02
p3148
sasg38
V97899
p3149
sg40
VECE302
p3150
sa(dp3151
g5
(lp3152
(dp3153
g8
VLIN
p3154
sg10
(lp3155
sg38
V367638
p3156
sg40
VE-01
p3157
sasg38
V97947
p3158
sg40
VECE304
p3159
sa(dp3160
g5
(lp3161
(dp3162
g8
VCHENG
p3163
sg10
(lp3164
(dp3165
g13
I9780131873742
sg14
VProakis
p3166
sg16
VRequired
p3167
sg18
VDigital Signal Processing
p3168
sg20
VHardback
p3169
sg22
g599
sg24
F165.0
sasg38
V367639
p3170
sg40
VE-01
p3171
sa(dp3172
g8
VKETSEOGLOU
p3173
sg10
(lp3174
(dp3175
g13
I9780131873742
sg14
VProakis
p3176
sg16
VRequired
p3177
sg18
VDigital Signal Processing
p3178
sg20
VHardback
p3179
sg22
g599
sg24
F165.0
sasg38
V367640
p3180
sg40
VE-02
p3181
sasg38
V97900
p3182
sg40
VECE306
p3183
sa(dp3184
g5
(lp3185
(dp3186
g8
VALIYAZICIOGLU
p3187
sg10
(lp3188
(dp3189
g13
I9780077263195
sg14
VAlexander
p3190
sg16
VRequired
p3191
sg18
VFundamentals Of Electric Circuits
p3192
sg20
VHardback
p3193
sg22
g599
sg24
F196.25
sasg38
V367643
p3194
sg40
VE-01
p3195
sasg38
V97902
p3196
sg40
VECE307
p3197
sa(dp3198
g5
(lp3199
(dp3200
g8
VCHENG
p3201
sg10
(lp3202
(dp3203
g13
I9780470547564
sg14
VNise
p3204
sg16
VRequired
p3205
sg18
VControl Systems Engineering
p3206
sg20
VHardback
p3207
sg22
g169
sg24
F191.25
sa(dp3208
g13
I9780470926024
sg14
VNise (Db*)
p3209
sg16
VOptional
p3210
sg18
VControl Systems Engineering (Coursesmart)
p3211
sg20
VEbook
p3212
sg22
g169
sg24
F102.5
sasg38
V367644
p3213
sg40
VE-01
p3214
sasg38
V97903
p3215
sg40
VECE309
p3216
sa(dp3217
g5
(lp3218
(dp3219
g8
VFERGUSON  JR
p3220
sg10
(lp3221
(dp3222
g13
I9780471272144
sg14
VYates
p3223
sg16
VRequired
p3224
sg18
VProbability & Stochastic Processes
p3225
sg20
VCloth
p3226
sg22
g515
sg24
F167.5
sa(dp3227
g13
I9780470592526
sg14
VYates (Db*)
p3228
sg16
VOptional
p3229
sg18
VProbability & Stochastic Processes (Coursesmart Digital)
p3230
sg20
VEbook
p3231
sg22
g515
sg24
F93.5
sasg38
V367646
p3232
sg40
VE-01
p3233
sa(dp3234
g8
VKETSEOGLOU
p3235
sg10
(lp3236
(dp3237
g13
I9780471272144
sg14
VYates
p3238
sg16
VRequired
p3239
sg18
VProbability & Stochastic Processes
p3240
sg20
VCloth
p3241
sg22
g515
sg24
F167.5
sa(dp3242
g13
I9780470592526
sg14
VYates (Db*)
p3243
sg16
VOptional
p3244
sg18
VProbability & Stochastic Processes (Coursesmart Digital)
p3245
sg20
VEbook
p3246
sg22
g515
sg24
F93.5
sasg38
V367647
p3247
sg40
VE-02
p3248
sasg38
V97905
p3249
sg40
VECE315
p3250
sa(dp3251
g5
(lp3252
(dp3253
g8
VCOCKRUM
p3254
sg10
(lp3255
(dp3256
g13
I9780073380452
sg14
VJaeger
p3257
sg16
VRequired
p3258
sg18
VMicroelectronic Circuit Design
p3259
sg20
VHardback
p3260
sg22
g599
sg24
F188.15
sa(dp3261
g13
I9780077330040
sg14
VJaeger (Db*)
p3262
sg16
VOptional
p3263
sg18
VMicroelectronic Circuit Design (Coursesmart)
p3264
sg20
VEbook
p3265
sg22
g599
sg24
F105.5
sasg38
V367648
p3266
sg40
VE-01
p3267
sasg38
V97906
p3268
sg40
VECE320
p3269
sa(dp3270
g5
(lp3271
(dp3272
g8
VOLSON
p3273
sg10
(lp3274
(dp3275
g13
I9780072283655
sg14
VHodges
p3276
sg16
VRequired
p3277
sg18
VAnalysis & Design Of Digital Integrated Circuits
p3278
sg20
VHardback
p3279
sg22
g115
sg24
F213.15
sasg38
V367651
p3280
sg40
VE-01
p3281
sasg38
V97908
p3282
sg40
VECE325
p3283
sa(dp3284
g5
(lp3285
(dp3286
g8
VOLSON
p3287
sg10
(lp3288
(dp3289
g13
I9780201543933
sg14
VPierret
p3290
sg16
VRequired
p3291
sg18
VSemiconductor Device Fundamentals
p3292
sg20
Nsg22
Nsg24
F149.0
sasg38
V367653
p3293
sg40
VE-01
p3294
sasg38
V97910
p3295
sg40
VECE330
p3296
sa(dp3297
g5
(lp3298
(dp3299
g8
VRAFIQUZZAMAN
p3300
sg10
(lp3301
sg38
V367654
p3302
sg40
VE-01
p3303
sasg38
V97911
p3304
sg40
VECE341
p3305
sa(dp3306
g5
(lp3307
(dp3308
g8
VRAFIQUZZAMAN,
p3309
sg10
(lp3310
(dp3311
g13
I9780470380314
sg14
VRafiquzzaman
p3312
sg16
VRequired
p3313
sg18
VMicroprocessor Theory And Applications W/68000/68020 & Pentium
p3314
sg20
Nsg22
Nsg24
F144.0
sasg38
V367656
p3315
sg40
VE-01
p3316
sasg38
V97913
p3317
sg40
VECE343
p3318
sa(dp3319
g5
(lp3320
(dp3321
g8
VMASSOUDI
p3322
sg10
(lp3323
sg38
V367658
p3324
sg40
VE-01
p3325
sasg38
V97948
p3326
sg40
VECE403
p3327
sa(dp3328
g5
(lp3329
(dp3330
g8
VALIYAZICIOGLU
p3331
sg10
(lp3332
sg38
V367659
p3333
sg40
VE-01
p3334
sasg38
V97915
p3335
sg40
VECE405
p3336
sa(dp3337
g5
(lp3338
(dp3339
g8
VKANG
p3340
sg10
(lp3341
(dp3342
g13
I9780131873742
sg14
VProakis
p3343
sg16
VRequired
p3344
sg18
VDigital Signal Processing
p3345
sg20
VHardback
p3346
sg22
g599
sg24
F165.0
sasg38
V367661
p3347
sg40
VE-01
p3348
sasg38
V97917
p3349
sg40
VECE408
p3350
sa(dp3351
g5
(lp3352
(dp3353
g8
VLIN
p3354
sg10
(lp3355
(dp3356
g13
I9780132575669
sg14
VDeitel
p3357
sg16
VRequired
p3358
sg18
VJava: How To Program (W/Cd)
p3359
sg20
VPaperback
p3360
sg22
g1108
sg24
F126.55
sa(dp3361
g13
I9780132625043
sg14
VDeitel (Db*)
p3362
sg16
VOptional
p3363
sg18
VJava How To Program (Coursesmart)
p3364
sg20
VEbook
p3365
sg22
g1108
sg24
F54.0
sasg38
V367662
p3366
sg40
VE-01
p3367
sasg38
V97918
p3368
sg40
VECE429
p3369
sa(dp3370
g5
(lp3371
(dp3372
g8
VCOCKRUM
p3373
sg10
(lp3374
sg38
V367663
p3375
sg40
VE-01
p3376
sa(dp3377
g8
VALIYAZICIOGLU
p3378
sg10
(lp3379
sg38
V367664
p3380
sg40
VE-02
p3381
sasg38
V97919
p3382
sg40
VECE464
p3383
sa(dp3384
g5
(lp3385
(dp3386
g8
VMONEMI
p3387
sg10
(lp3388
sg38
V380106
p3389
sg40
V01
p3390
sasg38
V99499
p3391
sg40
VECE480
p3392
sa(dp3393
g5
(lp3394
(dp3395
g8
VFERGUSON  JR
p3396
sg10
(lp3397
sg38
V367619
p3398
sg40
VE-01
p3399
sasg38
V97883
p3400
sg40
VECE109L
p3401
sa(dp3402
g5
(lp3403
(dp3404
g8
VMONEMI
p3405
sg10
(lp3406
sg38
V367621
p3407
sg40
VE-01
p3408
sasg38
V97885
p3409
sg40
VECE114L
p3410
sa(dp3411
g5
(lp3412
(dp3413
g8
VSACCO
p3414
sg10
(lp3415
sg38
V367624
p3416
sg40
VE-01
p3417
sasg38
V97888
p3418
sg40
VECE205L
p3419
sa(dp3420
g5
(lp3421
(dp3422
g8
VALIYAZICIOGLU
p3423
sg10
(lp3424
sg38
V367626
p3425
sg40
VE-01
p3426
sasg38
V97890
p3427
sg40
VECE207L
p3428
sa(dp3429
g5
(lp3430
(dp3431
g8
VKANG
p3432
sg10
(lp3433
sg38
V367628
p3434
sg40
VE-01
p3435
sasg38
V97892
p3436
sg40
VECE209L
p3437
sa(dp3438
g5
(lp3439
(dp3440
g8
VMASSOUDI
p3441
sg10
(lp3442
sg38
V367630
p3443
sg40
VE-01
p3444
sa(dp3445
g8
VMASSOUDI,
p3446
sg10
(lp3447
sg38
V367631
p3448
sg40
VE-02
p3449
sasg38
V97894
p3450
sg40
VECE220L
p3451
sa(dp3452
g5
(lp3453
(dp3454
g8
VMONEMI
p3455
sg10
(lp3456
sg38
V367633
p3457
sg40
VE-01
p3458
sasg38
V97896
p3459
sg40
VECE231L
p3460
sa(dp3461
g5
(lp3462
(dp3463
g8
VCHENG
p3464
sg10
(lp3465
sg38
V367641
p3466
sg40
VE-01
p3467
sa(dp3468
g8
VALIYAZICIOGLU
p3469
sg10
(lp3470
sg38
V367642
p3471
sg40
VE-02
p3472
sasg38
V97901
p3473
sg40
VECE306L
p3474
sa(dp3475
g5
(lp3476
(dp3477
g8
VKANG
p3478
sg10
(lp3479
sg38
V367645
p3480
sg40
VE-01
p3481
sasg38
V97904
p3482
sg40
VECE309L
p3483
sa(dp3484
g5
(lp3485
(dp3486
g8
VMASSOUDI
p3487
sg10
(lp3488
sg38
V367649
p3489
sg40
VE-01
p3490
sa(dp3491
g8
VMASSOUDI,
p3492
sg10
(lp3493
sg38
V367650
p3494
sg40
VE-02
p3495
sasg38
V97907
p3496
sg40
VECE320L
p3497
sa(dp3498
g5
(lp3499
(dp3500
g8
VOLSON
p3501
sg10
(lp3502
sg38
V367652
p3503
sg40
VE-01
p3504
sasg38
V97909
p3505
sg40
VECE325L
p3506
sa(dp3507
g5
(lp3508
(dp3509
g8
VRAFIQUZZAMAN
p3510
sg10
(lp3511
sg38
V367655
p3512
sg40
VE-01
p3513
sasg38
V97912
p3514
sg40
VECE341L
p3515
sa(dp3516
g5
(lp3517
(dp3518
g8
VRAFIQUZZAMAN,
p3519
sg10
(lp3520
sg38
V367657
p3521
sg40
VE-01
p3522
sasg38
V97914
p3523
sg40
VECE343L
p3524
sa(dp3525
g5
(lp3526
(dp3527
g8
VKETSEOGLOU
p3528
sg10
(lp3529
sg38
V367660
p3530
sg40
VE-01
p3531
sasg38
V97916
p3532
sg40
VECE405L
p3533
sasg469
VECE
p3534
sg38
V4774
p3535
sg40
VELEC & COMP ENGR
p3536
sa(dp3537
g2
(lp3538
(dp3539
g5
(lp3540
(dp3541
g8
VLaubie
p3542
sg10
(lp3543
(dp3544
g13
I9780072866377
sg14
VTaylor
p3545
sg16
VRequired
p3546
sg18
VExceptional Students
p3547
sg20
Nsg22
Nsg24
F141.25
sa(dp3548
g13
I9780077267322
sg14
VTaylor (Db*)
p3549
sg16
VOptional
p3550
sg18
VExceptional Students (Coursesmart Digital)
p3551
sg20
Nsg22
Nsg24
F79.25
sasg38
V367665
p3552
sg40
VE-01
p3553
sasg38
V97930
p3554
sg40
VEDS403
p3555
sasg469
VEDS
p3556
sg38
V4834
p3557
sg40
VEDUCATION SPECIALIST
p3558
sa(dp3559
g2
(lp3560
(dp3561
g5
(lp3562
(dp3563
g8
VSTAFF
p3564
sg10
(lp3565
sg38
V367666
p3566
sg40
VE-01
p3567
sasg38
V97949
p3568
sg40
VEDU510
p3569
sa(dp3570
g5
(lp3571
(dp3572
g8
VSTAFF
p3573
sg10
(lp3574
sg38
V367668
p3575
sg40
VE-01
p3576
sasg38
V97920
p3577
sg40
VEDU520
p3578
sa(dp3579
g5
(lp3580
(dp3581
g8
VSTAFF
p3582
sg10
(lp3583
sg38
V367667
p3584
sg40
VE-01
p3585
sasg38
V97950
p3586
sg40
VEDU510A
p3587
sasg469
VEDU
p3588
sg38
V4812
p3589
sg40
VEDUC LEADERSHIP
p3590
sa(dp3591
g2
(lp3592
(dp3593
g5
(lp3594
(dp3595
g8
VDAVIS JR
p3596
sg10
(lp3597
(dp3598
g13
I9780451191137
sg14
VRand
p3599
sg16
VRequired
p3600
sg18
VAnthem (Centennial Edition)
p3601
sg20
Nsg22
Nsg24
F8.0
sasg38
V367669
p3602
sg40
VE-01
p3603
sa(dp3604
g8
VDAVIS JR
p3605
sg10
(lp3606
(dp3607
g13
I9780451191137
sg14
VRand
p3608
sg16
VRequired
p3609
sg18
VAnthem (Centennial Edition)
p3610
sg20
Nsg22
Nsg24
F8.0
sasg38
V367670
p3611
sg40
VE-02
p3612
sasg38
V97921
p3613
sg40
VEGR402
p3614
sa(dp3615
g5
(lp3616
(dp3617
g8
VABOLFAZLI
p3618
sg10
(lp3619
(dp3620
g13
I9780199836765
sg14
VNewnan*
p3621
sg16
VRequired
p3622
sg18
VEngineering Economic Analysis W/S.G. & Cd
p3623
sg20
VKit/Set/Package
p3624
sg22
V11
p3625
sg24
F120.0
sa(dp3626
g13
I9780199778126
sg14
VNewnan
p3627
sg16
VPart of Set
p3628
sg18
VEngineering Econ Analysis (W/Cd)
p3629
sg20
VHardback
p3630
sg22
V11
p3631
sg24
F120.0
sa(dp3632
g13
I9780199778195
sg14
VNewnan
p3633
sg16
VPart of Set
p3634
sg18
VEngineering Econ Analysis S.G.
p3635
sg20
VPaperback
p3636
sg22
V11
p3637
sg24
F19.95
sasg38
V367671
p3638
sg40
VE-01
p3639
sasg38
V97922
p3640
sg40
VEGR403
p3641
sa(dp3642
g5
(lp3643
(dp3644
g8
VTULACZ
p3645
sg10
(lp3646
(dp3647
g13
I9781888689136
sg14
VJosephson
p3648
sg16
VRequired
p3649
sg18
VMaking Ethical Decisions (Item # 500450)
p3650
sg20
Nsg22
Nsg24
F17.3
sasg38
V379888
p3651
sg40
VE-01
p3652
sasg38
V99387
p3653
sg40
VEGR445
p3654
sasg469
VEGR
p3655
sg38
V4817
p3656
sg40
VENGINEERING
p3657
sa(dp3658
g2
(lp3659
(dp3660
g5
(lp3661
(dp3662
g8
VStaff, Staff
p3663
sg10
(lp3664
(dp3665
g13
I9780132409667
sg14
VAzar
p3666
sg16
VRequired
p3667
sg18
VBasic English Grammar W/Cd W/O Ak
p3668
sg20
VPaperback
p3669
sg22
g115
sg24
F58.35
sa(dp3670
g13
I9780131995574
sg14
VButler
p3671
sg16
VRequired
p3672
sg18
VFundamentals Of Academic Writing Level 1
p3673
sg20
Nsg22
Nsg24
F46.8
sa(dp3674
g13
I9780521858137
sg14
VRichards*
p3675
sg16
VRequired
p3676
sg18
VInterchange Bk 1 W/Cd & Workbook (Value Pack)
p3677
sg20
Nsg22
Nsg24
F40.8
sasg38
V379828
p3678
sg40
VREF
p3679
sasg38
V99360
p3680
sg40
VELI001
p3681
sa(dp3682
g5
(lp3683
(dp3684
g8
VStaff, Staff
p3685
sg10
(lp3686
(dp3687
g13
I9780132414883
sg14
VHogue
p3688
sg16
VRequired
p3689
sg18
VFirst Steps In Academic Writing Level 2
p3690
sg20
VPaperback
p3691
sg22
g515
sg24
F46.8
sa(dp3692
g13
I9780132546485
sg14
VFuchs
p3693
sg16
VRequired
p3694
sg18
VFocus On Grammar 3
p3695
sg20
VPaperback
p3696
sg22
g599
sg24
F58.0
sa(dp3697
g13
I9780194756112
sg14
VBrooks
p3698
sg16
VRequired
p3699
sg18
VQ: Skills For Success-Listening & Speaking 2
p3700
sg20
Nsg22
Nsg24
F59.95
sa(dp3701
g13
I9780138143886
sg14
VJeffries
p3702
sg16
VRequired
p3703
sg18
VReading Power 2
p3704
sg20
VPaperback
p3705
sg22
g599
sg24
F45.0
sasg38
V379829
p3706
sg40
VREF
p3707
sasg38
V99361
p3708
sg40
VELI002
p3709
sa(dp3710
g5
(lp3711
(dp3712
g8
VStaff, Staff
p3713
sg10
(lp3714
(dp3715
g13
I9780132221504
sg14
VDingle
p3716
sg16
VRequired
p3717
sg18
VVocabulary Power 2
p3718
sg20
Nsg22
Nsg24
F25.45
sa(dp3719
g13
I9780132546492
sg14
VFuchs
p3720
sg16
VRequired
p3721
sg18
VFocus On Grammar 4 (W/Cd Only)
p3722
sg20
VPaperback
p3723
sg22
g599
sg24
F58.0
sa(dp3724
g13
I9780131933958
sg14
VOshima
p3725
sg16
VRequired
p3726
sg18
VIntro To Academic Writing Level 3
p3727
sg20
VPaperback
p3728
sg22
g115
sg24
F46.8
sa(dp3729
g13
I9780194756129
sg14
VCraven
p3730
sg16
VRequired
p3731
sg18
VQ: Skills For Success-Listening & Speaking 3
p3732
sg20
Nsg22
Nsg24
F59.95
sa(dp3733
g13
I9780132089036
sg14
VJeffries
p3734
sg16
VRequired
p3735
sg18
VMore Reading Power 3
p3736
sg20
VPaperback
p3737
sg22
g115
sg24
F45.0
sasg38
V379830
p3738
sg40
VREF
p3739
sasg38
V99362
p3740
sg40
VELI003
p3741
sa(dp3742
g5
(lp3743
(dp3744
g8
VStaff, Staff
p3745
sg10
(lp3746
(dp3747
g13
I9780131523593
sg14
VOshima
p3748
sg16
VRequired
p3749
sg18
VWriting Academic English
p3750
sg20
VPaperback
p3751
sg22
g599
sg24
F46.8
sa(dp3752
g13
I9780132431781
sg14
VDingle
p3753
sg16
VRequired
p3754
sg18
VVocabulary Power 3
p3755
sg20
Nsg22
Nsg24
F25.45
sa(dp3756
g13
I9780132546508
sg14
VMaurer
p3757
sg16
VRequired
p3758
sg18
VFocus On Grammar 5 (W/Cd)
p3759
sg20
VPaperback
p3760
sg22
g599
sg24
F58.0
sa(dp3761
g13
I9780131990272
sg14
VMikulecky
p3762
sg16
VRequired
p3763
sg18
VAdvanced Reading Power 4
p3764
sg20
Nsg22
Nsg24
F45.0
sa(dp3765
g13
I9780194756136
sg14
VFreire
p3766
sg16
VRequired
p3767
sg18
VQ: Skills For Success-Listening & Speaking 4
p3768
sg20
Nsg22
Nsg24
F59.95
sasg38
V379831
p3769
sg40
VREF
p3770
sasg38
V99363
p3771
sg40
VELI004
p3772
sa(dp3773
g5
(lp3774
(dp3775
g8
VStaff, Staff
p3776
sg10
(lp3777
(dp3778
g13
I9780472088560
sg14
VSwales
p3779
sg16
VRequired
p3780
sg18
VAcademic Writing For Graduate Students
p3781
sg20
VPaperback
p3782
sg22
g515
sg24
F23.95
sa(dp3783
g13
I9780143114550
sg14
VKidd
p3784
sg16
VRequired
p3785
sg18
VSecret Life Of Bees (Movie Tie-In)
p3786
sg20
Nsg22
Nsg24
F15.0
sasg38
V379832
p3787
sg40
VREF
p3788
sasg38
V99364
p3789
sg40
VELI005
p3790
sa(dp3791
g5
(lp3792
(dp3793
g8
VStaff, Staff
p3794
sg10
(lp3795
(dp3796
g13
I9780062737335
sg14
VRavitch
p3797
sg16
VRequired
p3798
sg18
VAmerican Reader (2Nd)
p3799
sg20
Nsg22
Nsg24
F20.0
sa(dp3800
g13
I9780312650315
sg14
VLunsford
p3801
sg16
VRequired
p3802
sg18
VEasy Writer W/2009 Mla & Apa Updates
p3803
sg20
VSpiral
p3804
sg22
g599
sg24
F28.65
sasg38
V379833
p3805
sg40
VREF
p3806
sasg38
V99365
p3807
sg40
VELIBRIDGE
p3808
sasg469
VELI
p3809
sg38
V4777
p3810
sg40
VENGLISH LANG INST
p3811
sa(dp3812
g2
(lp3813
(dp3814
g5
(lp3815
(dp3816
g8
VSTAFF
p3817
sg10
(lp3818
sg38
V367672
p3819
sg40
VE-01
p3820
sa(dp3821
g8
VSTAFF
p3822
sg10
(lp3823
sg38
V367673
p3824
sg40
VE-02
p3825
sa(dp3826
g8
VSTAFF
p3827
sg10
(lp3828
sg38
V380191
p3829
sg40
VE-03
p3830
sasg38
V97923
p3831
sg40
VENG095
p3832
sa(dp3833
g5
(lp3834
(dp3835
g8
VSTAFF
p3836
sg10
(lp3837
sg38
V367674
p3838
sg40
VE-01
p3839
sa(dp3840
g8
VSTAFF
p3841
sg10
(lp3842
sg38
V367675
p3843
sg40
VE-02
p3844
sa(dp3845
g8
VSTAFF
p3846
sg10
(lp3847
sg38
V367676
p3848
sg40
VE-03
p3849
sa(dp3850
g8
VSTAFF
p3851
sg10
(lp3852
sg38
V367677
p3853
sg40
VE-04
p3854
sasg38
V97924
p3855
sg40
VENG096
p3856
sa(dp3857
g5
(lp3858
(dp3859
g8
VGRISWOLD
p3860
sg10
(lp3861
(dp3862
g13
I9781405820295
sg14
VLongman
p3863
sg16
VRequired
p3864
sg18
VLongman Advanced American Dictionary New Ed
p3865
sg20
Nsg22
Nsg24
F51.75
sa(dp3866
g13
I9781413008456
sg14
VHouck
p3867
sg16
VRequired
p3868
sg18
VGrammar Connection 4
p3869
sg20
Nsg22
Nsg24
F52.0
sasg38
V367678
p3870
sg40
VE-01
p3871
sa(dp3872
g8
VRUSSIKOFF
p3873
sg10
(lp3874
sg38
V367679
p3875
sg40
VE-02
p3876
sasg38
V97925
p3877
sg40
VENG098
p3878
sa(dp3879
g5
(lp3880
(dp3881
g8
VGRISWOLD
p3882
sg10
(lp3883
(dp3884
g13
I9781405820295
sg14
VLongman
p3885
sg16
VRequired
p3886
sg18
VLongman Advanced American Dictionary New Ed
p3887
sg20
Nsg22
Nsg24
F51.75
sasg38
V367680
p3888
sg40
VE-01
p3889
sa(dp3890
g8
VRUSSIKOFF
p3891
sg10
(lp3892
sg38
V367681
p3893
sg40
VE-02
p3894
sasg38
V97926
p3895
sg40
VENG099
p3896
sa(dp3897
g5
(lp3898
(dp3899
g8
VSTAFF
p3900
sg10
(lp3901
sg38
V367682
p3902
sg40
VE-01
p3903
sa(dp3904
g8
VSTAFF
p3905
sg10
(lp3906
sg38
V367683
p3907
sg40
VE-02
p3908
sa(dp3909
g8
VSTAFF
p3910
sg10
(lp3911
sg38
V367684
p3912
sg40
VE-03
p3913
sasg38
V97927
p3914
sg40
VENG104
p3915
sa(dp3916
g5
(lp3917
(dp3918
g8
VSTAFF
p3919
sg10
(lp3920
sg38
V367685
p3921
sg40
VE-01
p3922
sa(dp3923
g8
VSTAFF
p3924
sg10
(lp3925
sg38
V367686
p3926
sg40
VE-02
p3927
sasg38
V97928
p3928
sg40
VENG105
p3929
sa(dp3930
g5
(lp3931
(dp3932
g8
VSTAFF
p3933
sg10
(lp3934
sg38
V367687
p3935
sg40
VE-01
p3936
sasg38
V97929
p3937
sg40
VENG201
p3938
sasg469
VENG
p3939
sg38
V4832
p3940
sg40
VENGLISH
p3941
sa(dp3942
g2
(lp3943
(dp3944
g5
(lp3945
(dp3946
g8
VSTAFF
p3947
sg10
(lp3948
sg38
V379872
p3949
sg40
VE-01
p3950
sa(dp3951
g8
VSTAFF
p3952
sg10
(lp3953
sg38
V379873
p3954
sg40
VE-02
p3955
sasg38
V99376
p3956
sg40
VESE5
p3957
sa(dp3958
g5
(lp3959
(dp3960
g8
VSTAFF
p3961
sg10
(lp3962
sg38
V380192
p3963
sg40
VE-01
p3964
sa(dp3965
g8
VSTAFF
p3966
sg10
(lp3967
sg38
V380193
p3968
sg40
VE-02
p3969
sa(dp3970
g8
VSTAFF
p3971
sg10
(lp3972
sg38
V380194
p3973
sg40
VE-03
p3974
sasg38
V100645
p3975
sg40
VESE095
p3976
sasg469
VESE
p3977
sg38
V4837
p3978
sg40
VESE
p3979
sa(dp3980
g2
(lp3981
(dp3982
g5
(lp3983
(dp3984
g8
VSTAFF
p3985
sg10
(lp3986
sg38
V380195
p3987
sg40
VE-01
p3988
sa(dp3989
g8
VSTAFF
p3990
sg10
(lp3991
sg38
V380196
p3992
sg40
VE-02
p3993
sasg38
V100646
p3994
sg40
VESM010
p3995
sa(dp3996
g5
(lp3997
(dp3998
g8
VSHIRLEY
p3999
sg10
(lp4000
sg38
V380197
p4001
sg40
VE-01
p4002
sa(dp4003
g8
VSHIRLEY
p4004
sg10
(lp4005
sg38
V380198
p4006
sg40
VE-02
p4007
sa(dp4008
g8
VSTAFF
p4009
sg10
(lp4010
sg38
V380199
p4011
sg40
VE-11
p4012
sa(dp4013
g8
VSTAFF
p4014
sg10
(lp4015
sg38
V380200
p4016
sg40
VE-21
p4017
sasg38
V100647
p4018
sg40
VESM011
p4019
sa(dp4020
g5
(lp4021
(dp4022
g8
VSTAFF
p4023
sg10
(lp4024
sg38
V380201
p4025
sg40
VE-01
p4026
sa(dp4027
g8
VGRIFFITH
p4028
sg10
(lp4029
sg38
V380202
p4030
sg40
VE-02
p4031
sa(dp4032
g8
VSTAFF
p4033
sg10
(lp4034
sg38
V380203
p4035
sg40
VE-11
p4036
sa(dp4037
g8
VSTAFF
p4038
sg10
(lp4039
sg38
V380204
p4040
sg40
VE-21
p4041
sasg38
V100648
p4042
sg40
VESM012
p4043
sasg469
VESM
p4044
sg38
V4838
p4045
sg40
VESM
p4046
sa(dp4047
g2
(lp4048
(dp4049
g5
(lp4050
(dp4051
g8
VBABIKIAN
p4052
sg10
(lp4053
sg38
V379874
p4054
sg40
VE-01
p4055
sasg38
V99371
p4056
sg40
VETC130
p4057
sa(dp4058
g5
(lp4059
(dp4060
g8
VBABIKIAN
p4061
sg10
(lp4062
sg38
V379876
p4063
sg40
VE-01
p4064
sasg38
V99373
p4065
sg40
VETC305
p4066
sa(dp4067
g5
(lp4068
(dp4069
g8
VSALEM
p4070
sg10
(lp4071
sg38
V380205
p4072
sg40
VE-01
p4073
sa(dp4074
g8
VSALEM
p4075
sg10
(lp4076
sg38
V379877
p4077
sg40
VE-11
p4078
sasg38
V99377
p4079
sg40
VETC311
p4080
sa(dp4081
g5
(lp4082
(dp4083
g8
VSALEM
p4084
sg10
(lp4085
sg38
V380107
p4086
sg40
VE-01
p4087
sa(dp4088
g8
VSALEM
p4089
sg10
(lp4090
sg38
V379878
p4091
sg40
VE-11
p4092
sasg38
V99374
p4093
sg40
VETC316
p4094
sa(dp4095
g5
(lp4096
(dp4097
g8
VSALEM
p4098
sg10
(lp4099
sg38
V380108
p4100
sg40
VE-01
p4101
sa(dp4102
g8
VSALEM
p4103
sg10
(lp4104
sg38
V379879
p4105
sg40
VE-11
p4106
sasg38
V99378
p4107
sg40
VETC499
p4108
sa(dp4109
g5
(lp4110
(dp4111
g8
VBABIKIAN
p4112
sg10
(lp4113
sg38
V379875
p4114
sg40
VE-01
p4115
sasg38
V99372
p4116
sg40
VETC130L
p4117
sasg469
VETC
p4118
sg38
V4833
p4119
sg40
VENGR TECH/CONSTRUCT
p4120
sa(dp4121
g2
(lp4122
(dp4123
g5
(lp4124
(dp4125
g8
VQAYYUM
p4126
sg10
(lp4127
sg38
V379880
p4128
sg40
VE-01
p4129
sasg38
V99375
p4130
sg40
VETE499
p4131
sa(dp4132
g5
(lp4133
(dp4134
g8
VQAYYUM
p4135
sg10
(lp4136
sg38
V379889
p4137
sg40
VE-01
p4138
sasg38
V99388
p4139
sg40
VETE499L
p4140
sasg469
VETE
p4141
sg38
V4781
p4142
sg40
VENGR TECH/ELECTRONIC
p4143
sa(dp4144
g2
(lp4145
(dp4146
g5
(lp4147
(dp4148
g8
VBABIKIAN
p4149
sg10
(lp4150
sg38
V379890
p4151
sg40
VE-01
p4152
sasg38
V99389
p4153
sg40
VETT210
p4154
sa(dp4155
g5
(lp4156
(dp4157
g8
VQAYYUM
p4158
sg10
(lp4159
sg38
V379891
p4160
sg40
VE-01
p4161
sasg38
V99390
p4162
sg40
VETT215
p4163
sa(dp4164
g5
(lp4165
(dp4166
g8
VSTAFF
p4167
sg10
(lp4168
sg38
V379893
p4169
sg40
VE-21
p4170
sasg38
V99392
p4171
sg40
VETT217
p4172
sa(dp4173
g5
(lp4174
(dp4175
g8
VSTAFF
p4176
sg10
(lp4177
sg38
V379894
p4178
sg40
V1
p4179
sa(dp4180
g8
VSTAFF
p4181
sg10
(lp4182
sg38
V379895
p4183
sg40
VE-21
p4184
sasg38
V99393
p4185
sg40
VETT220
p4186
sa(dp4187
g5
(lp4188
(dp4189
g8
VKAUSER
p4190
sg10
(lp4191
sg38
V379897
p4192
sg40
VE-01
p4193
sa(dp4194
g8
VKAUSER
p4195
sg10
(lp4196
sg38
V379898
p4197
sg40
VE-11
p4198
sasg38
V99395
p4199
sg40
VETT310
p4200
sa(dp4201
g5
(lp4202
(dp4203
g8
VSTAFF
p4204
sg10
(lp4205
sg38
V379900
p4206
sg40
VE-21
p4207
sasg38
V99397
p4208
sg40
VETT499
p4209
sa(dp4210
g5
(lp4211
(dp4212
g8
VQAYYUM
p4213
sg10
(lp4214
sg38
V379892
p4215
sg40
VE-01
p4216
sasg38
V99391
p4217
sg40
VETT215L
p4218
sa(dp4219
g5
(lp4220
(dp4221
g8
VSTAFF
p4222
sg10
(lp4223
sg38
V379896
p4224
sg40
VE-21
p4225
sasg38
V99394
p4226
sg40
VETT220L
p4227
sa(dp4228
g5
(lp4229
(dp4230
g8
VKAUSER
p4231
sg10
(lp4232
sg38
V379899
p4233
sg40
VE-11
p4234
sasg38
V99396
p4235
sg40
VETT310L
p4236
sasg469
VETT
p4237
sg38
V4818
p4238
sg40
VENGINEERING TECH
p4239
sa(dp4240
g2
(lp4241
(dp4242
g5
(lp4243
(dp4244
g8
VSTAFF
p4245
sg10
(lp4246
sg38
V367688
p4247
sg40
VE-01
p4248
sasg38
V97724
p4249
sg40
VEWS140
p4250
sa(dp4251
g5
(lp4252
(dp4253
g8
VSTAFF
p4254
sg10
(lp4255
sg38
V367689
p4256
sg40
VE-04
p4257
sasg38
V97725
p4258
sg40
VEWS375
p4259
sa(dp4260
g5
(lp4261
(dp4262
g8
VSTAFF
p4263
sg10
(lp4264
sg38
V367690
p4265
sg40
VE-O7
p4266
sasg38
V97726
p4267
sg40
VEWS402
p4268
sa(dp4269
g5
(lp4270
(dp4271
g8
VSTAFF
p4272
sg10
(lp4273
sg38
V367691
p4274
sg40
VE-O3
p4275
sasg38
V97951
p4276
sg40
VEWS407
p4277
sa(dp4278
g5
(lp4279
(dp4280
g8
VREESE
p4281
sg10
(lp4282
sg38
V367692
p4283
sg40
VE-O2
p4284
sasg38
V97727
p4285
sg40
VEWS499
p4286
sasg469
VEWS
p4287
sg38
V4695
p4288
sg40
VETHNIC & WOMEN'S ST
p4289
sa(dp4290
g2
(lp4291
(dp4292
g5
(lp4293
(dp4294
g8
VMATHIAS
p4295
sg10
(lp4296
(dp4297
g13
I9780470534786
sg14
VKimmel
p4298
sg16
VRequired
p4299
sg18
VAccounting
p4300
sg20
VHardback
p4301
sg22
g599
sg24
F230.0
sa(dp4302
g13
I9780470919859
sg14
VKimmel (Db*)
p4303
sg16
VOptional
p4304
sg18
VAccounting (Coursesmart)
p4305
sg20
VEbook
p4306
sg22
g599
sg24
F120.5
sasg38
V367693
p4307
sg40
VE-02
p4308
sasg38
V97728
p4309
sg40
VFMA224
p4310
sasg469
VFMA
p4311
sg38
V4697
p4312
sg40
VFOOD MKTNG & AGRIB
p4313
sa(dp4314
g2
(lp4315
(dp4316
g5
(lp4317
(dp4318
g8
VGORDON
p4319
sg10
(lp4320
(dp4321
g13
I9780538736558
sg14
VHales
p4322
sg16
VRequired
p4323
sg18
VInvitation To Health (14Th)
p4324
sg20
Nsg22
Nsg24
F142.2
sa(dp4325
g13
I9781111180300
sg14
VHales (Db*)
p4326
sg16
VOptional
p4327
sg18
VInvitation To Health (Coursesmart Digital)
p4328
sg20
VEbook
p4329
sg22
g599
sg24
F77.0
sasg38
V367694
p4330
sg40
VE-01
p4331
sa(dp4332
g8
VMazhar
p4333
sg10
(lp4334
(dp4335
g13
I9780538736558
sg14
VHales
p4336
sg16
VRequired
p4337
sg18
VInvitation To Health (14Th)
p4338
sg20
Nsg22
Nsg24
F142.2
sa(dp4339
g13
I9781111180300
sg14
VHales (Db*)
p4340
sg16
VOptional
p4341
sg18
VInvitation To Health (Coursesmart Digital)
p4342
sg20
VEbook
p4343
sg22
g599
sg24
F77.0
sasg38
V367695
p4344
sg40
VE-02
p4345
sasg38
V97729
p4346
sg40
VFN203
p4347
sa(dp4348
g5
(lp4349
(dp4350
g8
VWALLACE
p4351
sg10
(lp4352
(dp4353
g13
I9780495115410
sg14
VKittler
p4354
sg16
VRequired
p4355
sg18
VFood & Culture
p4356
sg20
VPaperback
p4357
sg22
g412
sg24
F139.4
sa(dp4358
g13
I9780495588214
sg14
VKittler (Db*)
p4359
sg16
VOptional
p4360
sg18
VFood & Culture  (Coursesmart Digital)
p4361
sg20
VEbook
p4362
sg22
g412
sg24
F75.5
sasg38
V367696
p4363
sg40
VE-01
p4364
sa(dp4365
g8
VSTAFF
p4366
sg10
(lp4367
(dp4368
g13
I9780495115410
sg14
VKittler
p4369
sg16
VRequired
p4370
sg18
VFood & Culture
p4371
sg20
VPaperback
p4372
sg22
g412
sg24
F139.4
sa(dp4373
g13
I9780495588214
sg14
VKittler (Db*)
p4374
sg16
VOptional
p4375
sg18
VFood & Culture  (Coursesmart Digital)
p4376
sg20
VEbook
p4377
sg22
g412
sg24
F75.5
sasg38
V367697
p4378
sg40
VE-02
p4379
sa(dp4380
g8
VIlkay
p4381
sg10
(lp4382
(dp4383
g13
I9780495115410
sg14
VKittler
p4384
sg16
VRequired
p4385
sg18
VFood & Culture
p4386
sg20
VPaperback
p4387
sg22
g412
sg24
F139.4
sa(dp4388
g13
I9780495588214
sg14
VKittler (Db*)
p4389
sg16
VOptional
p4390
sg18
VFood & Culture  (Coursesmart Digital)
p4391
sg20
VEbook
p4392
sg22
g412
sg24
F75.5
sasg38
V367698
p4393
sg40
VE-23
p4394
sasg38
V97730
p4395
sg40
VFN228
p4396
sa(dp4397
g5
(lp4398
(dp4399
g8
VMCCABE
p4400
sg10
(lp4401
(dp4402
g13
I9781449675226
sg14
VInsel
p4403
sg16
VRequired
p4404
sg18
VNutrition Myplate Update
p4405
sg20
VHardback
p4406
sg22
g599
sg24
F149.05
sasg38
V367699
p4407
sg40
VE-01
p4408
sasg38
V97731
p4409
sg40
VFN235
p4410
sa(dp4411
g5
(lp4412
(dp4413
g8
VIlkay
p4414
sg10
(lp4415
(dp4416
g13
I9781133159377
sg14
VSizer*
p4417
sg16
VRequired
p4418
sg18
VNutrition (Looseleaf) W/ Diet Analysis 10.0
p4419
sg20
VKit/Set/Package
p4420
sg22
V12
p4421
sg24
F126.25
sa(dp4422
g13
I9780757594212
sg14
VIlkay
p4423
sg16
VOptional
p4424
sg18
VFinding Your Weigh To A Healthy Lifestyle
p4425
sg20
Nsg22
Nsg24
F38.0
sa(dp4426
g13
I9780538495080
sg14
VEsha Research
p4427
sg16
VPart of Set
p4428
sg18
VDiet Analysis + Version 10.0 (Access Card Only)(New Only)
p4429
sg20
Nsg22
Nsg24
F47.35
sa(dp4430
g13
I9781133153337
sg14
VSizer
p4431
sg16
VPart of Set
p4432
sg18
VNutrition (Custom Looseleaf)
p4433
sg20
VLooseleaf
p4434
sg22
V12
p4435
sg24
F110.6
sasg38
V367700
p4436
sg40
VE-01
p4437
sa(dp4438
g8
VMazhar
p4439
sg10
(lp4440
(dp4441
g13
I9781133159377
sg14
VSizer*
p4442
sg16
VRequired
p4443
sg18
VNutrition (Looseleaf) W/ Diet Analysis 10.0
p4444
sg20
VKit/Set/Package
p4445
sg22
V12
p4446
sg24
F126.25
sa(dp4447
g13
I9780538495080
sg14
VEsha Research
p4448
sg16
VPart of Set
p4449
sg18
VDiet Analysis + Version 10.0 (Access Card Only)(New Only)
p4450
sg20
Nsg22
Nsg24
F47.35
sa(dp4451
g13
I9781133153337
sg14
VSizer
p4452
sg16
VPart of Set
p4453
sg18
VNutrition (Custom Looseleaf)
p4454
sg20
VLooseleaf
p4455
sg22
V12
p4456
sg24
F110.6
sasg38
V367701
p4457
sg40
VE-02
p4458
sa(dp4459
g8
VGORDON
p4460
sg10
(lp4461
(dp4462
g13
I9781133159377
sg14
VSizer*
p4463
sg16
VRequired
p4464
sg18
VNutrition (Looseleaf) W/ Diet Analysis 10.0
p4465
sg20
VKit/Set/Package
p4466
sg22
V12
p4467
sg24
F126.25
sa(dp4468
g13
I9780538495080
sg14
VEsha Research
p4469
sg16
VPart of Set
p4470
sg18
VDiet Analysis + Version 10.0 (Access Card Only)(New Only)
p4471
sg20
Nsg22
Nsg24
F47.35
sa(dp4472
g13
I9781133153337
sg14
VSizer
p4473
sg16
VPart of Set
p4474
sg18
VNutrition (Custom Looseleaf)
p4475
sg20
VLooseleaf
p4476
sg22
V12
p4477
sg24
F110.6
sasg38
V367702
p4478
sg40
VE-23
p4479
sasg38
V97732
p4480
sg40
VFN305
p4481
sa(dp4482
g5
(lp4483
(dp4484
g8
VSTAFF
p4485
sg10
(lp4486
sg38
V379822
p4487
sg40
VE-01
p4488
sa(dp4489
g8
VSTAFF
p4490
sg10
(lp4491
sg38
V379823
p4492
sg40
VE-02
p4493
sa(dp4494
g8
VSTAFF
p4495
sg10
(lp4496
sg38
V379824
p4497
sg40
VE-03
p4498
sasg38
V99354
p4499
sg40
VFN694
p4500
sa(dp4501
g5
(lp4502
(dp4503
g8
VSTAFF
p4504
sg10
(lp4505
sg38
V379825
p4506
sg40
VE-01
p4507
sasg38
V99355
p4508
sg40
VFN696
p4509
sasg469
VFN
p4510
sg38
V4698
p4511
sg40
VFOODS & NUTRITION
p4512
sa(dp4513
g2
(lp4514
(dp4515
g5
(lp4516
(dp4517
g8
VPEREZ
p4518
sg10
(lp4519
(dp4520
g13
I9780538470827
sg14
VClarkson
p4521
sg16
VRequired
p4522
sg18
VBusiness Law
p4523
sg20
VHardback
p4524
sg22
V12
p4525
sg24
F255.65
sa(dp4526
g13
I9780495991649
sg14
VClarkson
p4527
sg16
VRequired
p4528
sg18
VBusiness Law (Custom)
p4529
sg20
VPaperback
p4530
sg22
V12
p4531
sg24
F0.0
sa(dp4532
g13
I9781111547295
sg14
VClarkson (Db*)
p4533
sg16
VOptional
p4534
sg18
VBusiness Law (Coursesmart)
p4535
sg20
VEbook
p4536
sg22
V12
p4537
sg24
F138.0
sasg38
V379901
p4538
sg40
VE-01
p4539
sasg38
V97733
p4540
sg40
VFRL201
p4541
sa(dp4542
g5
(lp4543
(dp4544
g8
VSTAFF
p4545
sg10
(lp4546
(dp4547
g13
I9780077694913
sg14
VRoss*
p4548
sg16
VRequired
p4549
sg18
VFundamentals Of Corporate Finance Vol. 1 Custom Looseleaf W/Connect Access Code
p4550
sg20
VLooseleaf
p4551
sg22
V10
p4552
sg24
F0.0
sa(dp4553
g13
I9780077694968
sg14
VMcgraw
p4554
sg16
VPart of Set
p4555
sg18
VConnect Access Code T/A Fundamentals Of Corp Finance (No E-Book)
p4556
sg20
Nsg22
Nsg24
F52.95
sasg38
V379902
p4557
sg40
VE-01
p4558
sa(dp4559
g8
VSTAFF
p4560
sg10
(lp4561
(dp4562
g13
I9780077694913
sg14
VRoss*
p4563
sg16
VRequired
p4564
sg18
VFundamentals Of Corporate Finance Vol. 1 Custom Looseleaf W/Connect Access Code
p4565
sg20
VLooseleaf
p4566
sg22
V10
p4567
sg24
F0.0
sa(dp4568
g13
I9780077694968
sg14
VMcgraw
p4569
sg16
VPart of Set
p4570
sg18
VConnect Access Code T/A Fundamentals Of Corp Finance (No E-Book)
p4571
sg20
Nsg22
Nsg24
F52.95
sasg38
V379903
p4572
sg40
VE-02
p4573
sasg38
V97734
p4574
sg40
VFRL300
p4575
sa(dp4576
g5
(lp4577
(dp4578
g8
VMCCLURE
p4579
sg10
(lp4580
(dp4581
g13
I9780077954079
sg14
VRoss* (Sw2)
p4582
sg16
VRequired
p4583
sg18
VFundamentals Of Corporate Finance Alt. Ed W/Connect Access Card & Csucpp Supp
p4584
sg20
VKit/Set/Package
p4585
sg22
g1108
sg24
F137.0
sa(dp4586
g13
I9780077296483
sg14
VRoss (Db*)
p4587
sg16
VOptional
p4588
sg18
VFundamentals Of Corporate Finance Alt (Coursesmart Digital)
p4589
sg20
Nsg22
Nsg24
F122.75
sa(dp4590
g13
I9780077246129
sg14
VRoss
p4591
sg16
VPart of Set
p4592
sg18
VFundamentals Of Corporate Finance Alt Ed
p4593
sg20
VHardback
p4594
sg22
g1108
sg24
F176.25
sa(dp4595
g13
I9780077326869
sg14
VRoss
p4596
sg16
VPart of Set
p4597
sg18
VConnect Access T/A Fundamentals Of Corp. Finance
p4598
sg20
VAccess Code
p4599
sg22
g1108
sg24
F58.8
sasg38
V379904
p4600
sg40
VE-01
p4601
sa(dp4602
g8
VKASHEFINEJAD
p4603
sg10
(lp4604
(dp4605
g13
I9780077954079
sg14
VRoss* (Sw2)
p4606
sg16
VRequired
p4607
sg18
VFundamentals Of Corporate Finance Alt. Ed W/Connect Access Card & Csucpp Supp
p4608
sg20
VKit/Set/Package
p4609
sg22
g1108
sg24
F137.0
sa(dp4610
g13
I9780077296483
sg14
VRoss (Db*)
p4611
sg16
VOptional
p4612
sg18
VFundamentals Of Corporate Finance Alt (Coursesmart Digital)
p4613
sg20
Nsg22
Nsg24
F122.75
sa(dp4614
g13
I9780077246129
sg14
VRoss
p4615
sg16
VPart of Set
p4616
sg18
VFundamentals Of Corporate Finance Alt Ed
p4617
sg20
VHardback
p4618
sg22
g1108
sg24
F176.25
sa(dp4619
g13
I9780077326869
sg14
VRoss
p4620
sg16
VPart of Set
p4621
sg18
VConnect Access T/A Fundamentals Of Corp. Finance
p4622
sg20
VAccess Code
p4623
sg22
g1108
sg24
F58.8
sasg38
V379905
p4624
sg40
VE-02
p4625
sasg38
V97735
p4626
sg40
VFRL301
p4627
sa(dp4628
g5
(lp4629
(dp4630
g8
VYOUNG
p4631
sg10
(lp4632
(dp4633
g13
I9780538470827
sg14
VClarkson
p4634
sg16
VRequired
p4635
sg18
VBusiness Law
p4636
sg20
VHardback
p4637
sg22
V12
p4638
sg24
F255.65
sa(dp4639
g13
I9780495991649
sg14
VClarkson
p4640
sg16
VRequired
p4641
sg18
VBusiness Law (Custom)
p4642
sg20
VPaperback
p4643
sg22
V12
p4644
sg24
F0.0
sa(dp4645
g13
I9781111547295
sg14
VClarkson (Db*)
p4646
sg16
VOptional
p4647
sg18
VBusiness Law (Coursesmart)
p4648
sg20
VEbook
p4649
sg22
V12
p4650
sg24
F138.0
sasg38
V379906
p4651
sg40
VE-01
p4652
sasg38
V97736
p4653
sg40
VFRL302
p4654
sa(dp4655
g5
(lp4656
(dp4657
g8
VSTAFF
p4658
sg10
(lp4659
(dp4660
g13
I9780073377322
sg14
VLing
p4661
sg16
VRequired
p4662
sg18
VReal Estate Principles
p4663
sg20
VHardback
p4664
sg22
g115
sg24
F160.0
sa(dp4665
g13
I9780077296353
sg14
VLing (Db*)
p4666
sg16
VOptional
p4667
sg18
VReal Estate Principles (Coursesmart Digital)
p4668
sg20
VEbook
p4669
sg22
g115
sg24
F92.5
sasg38
V379907
p4670
sg40
VE-01
p4671
sasg38
V97737
p4672
sg40
VFRL306
p4673
sa(dp4674
g5
(lp4675
(dp4676
g8
VSARMAS
p4677
sg10
(lp4678
(dp4679
g13
I9780077606794
sg14
VRoss*
p4680
sg16
VRequired
p4681
sg18
VCorporate Finance W/Connect Plus
p4682
sg20
VKit/Set/Package
p4683
sg22
g1108
sg24
F255.0
sa(dp4684
g13
I9780077296384
sg14
VRoss (Db*)
p4685
sg16
VOptional
p4686
sg18
VCorporate Finance (Coursesmart)
p4687
sg20
VEbook
p4688
sg22
g1108
sg24
F127.25
sa(dp4689
g13
I9780077333386
sg14
VRoss
p4690
sg16
VPart of Set
p4691
sg18
VConnect Plus Access Card
p4692
sg20
Nsg22
Nsg24
F94.1
sa(dp4693
g13
I9780073382333
sg14
VRoss
p4694
sg16
VPart of Set
p4695
sg18
VCorporate Finance
p4696
sg20
VHardback
p4697
sg22
g1108
sg24
F228.75
sasg38
V379908
p4698
sg40
VE-01
p4699
sasg38
V97738
p4700
sg40
VFRL367
p4701
sa(dp4702
g5
(lp4703
(dp4704
g8
VWelke
p4705
sg10
(lp4706
(dp4707
g13
I9780073377339
sg14
VBrueggeman
p4708
sg16
VRequired
p4709
sg18
VReal Estate Finance & Investments
p4710
sg20
VHardback
p4711
sg22
V14
p4712
sg24
F185.3
sa(dp4713
g13
I9780077375256
sg14
VBrueggeman (Db*)
p4714
sg16
VOptional
p4715
sg18
VReal Estate Finance & Investments (Coursesmart)
p4716
sg20
VEbook
p4717
sg22
g599
sg24
F107.0
sasg38
V379909
p4718
sg40
VE-01
p4719
sasg38
V99398
p4720
sg40
VFRL383
p4721
sa(dp4722
g5
(lp4723
(dp4724
g8
VKHOLDY -SABETY
p4725
sg10
(lp4726
(dp4727
g13
I9780262026284
sg14
VBenninga
p4728
sg16
VRequired
p4729
sg18
VFinancial Modeling (W/Cd)
p4730
sg20
VHardback
p4731
sg22
g115
sg24
F92.0
sasg38
V379910
p4732
sg40
VE-01
p4733
sasg38
V97739
p4734
sg40
VFRL404
p4735
sa(dp4736
g5
(lp4737
(dp4738
g8
VSOLIS
p4739
sg10
(lp4740
(dp4741
g13
I9780324596168
sg14
VJentz
p4742
sg16
VRequired
p4743
sg18
VBusiness Law Alt Ed
p4744
sg20
VHardback
p4745
sg22
V11
p4746
sg24
F236.9
sa(dp4747
g13
I9781439028421
sg14
VJentz (Db*)
p4748
sg16
VOptional
p4749
sg18
VBusiness Law  Alt(Coursesmart Digital)
p4750
sg20
VEbook
p4751
sg22
VAL
p4752
sg24
F134.5
sasg38
V379911
p4753
sg40
VE-01
p4754
sasg38
V97740
p4755
sg40
VFRL408
p4756
sa(dp4757
g5
(lp4758
(dp4759
g8
VYOUNG
p4760
sg10
(lp4761
(dp4762
g13
I9780538473613
sg14
VSchaffer
p4763
sg16
VRequired
p4764
sg18
VInternational Business Law & Its Environment
p4765
sg20
VHardback
p4766
sg22
g23
sg24
F247.8
sa(dp4767
g13
I9781133835974
sg14
VSchaffer (Db*)
p4768
sg16
VOptional
p4769
sg18
VInternational Business Law & Its Environment (Coursesmart)
p4770
sg20
Nsg22
Nsg24
F140.5
sasg38
V379912
p4771
sg40
VE-01
p4772
sasg38
V97741
p4773
sg40
VFRL426
p4774
sa(dp4775
g5
(lp4776
(dp4777
g8
VSARMAS
p4778
sg10
(lp4779
(dp4780
g13
I9781285217734
sg14
VBrigham/Klein
p4781
sg16
VRequired
p4782
sg18
VEvaluation Of Financial Policy (8 Cases - Directed)
p4783
sg20
Nsg22
Nsg24
F0.0
sasg38
V379913
p4784
sg40
VE-01
p4785
sasg38
V97742
p4786
sg40
VFRL440
p4787
sa(dp4788
g5
(lp4789
(dp4790
g8
VGHAZANFARI
p4791
sg10
(lp4792
(dp4793
g13
I9780078034671
sg14
VRose
p4794
sg16
VRequired
p4795
sg18
VBank Management & Financial Services
p4796
sg20
VHardback
p4797
sg22
g1108
sg24
F201.9
sa(dp4798
g13
I9780077410568
sg14
VRose (Db*)
p4799
sg16
VOptional
p4800
sg18
VBank Management & Financial Services (Coursesmart)
p4801
sg20
VEbook
p4802
sg22
g1108
sg24
F113.25
sasg38
V379914
p4803
sg40
VE-01
p4804
sasg38
V97952
p4805
sg40
VFRL460
p4806
sasg469
VFRL
p4807
sg38
V4805
p4808
sg40
VFIN REAL EST & LAW
p4809
sa(dp4810
g2
(lp4811
(dp4812
g5
(lp4813
(dp4814
g8
VSTAFF
p4815
sg10
(lp4816
(dp4817
g13
I9780073376226
sg14
VForouzan
p4818
sg16
VRequired
p4819
sg18
VData Communications & Networking
p4820
sg20
VHardback
p4821
sg22
g412
sg24
F170.65
sa(dp4822
g13
I9780077445386
sg14
VForouzan (Db*)
p4823
sg16
VOptional
p4824
sg18
VData Communications & Networking (Coursesmart)
p4825
sg20
VEbook
p4826
sg22
g412
sg24
F95.75
sasg38
V380449
p4827
sg40
VE-01
p4828
sasg38
V97743
p4829
sg40
VGBA557
p4830
sa(dp4831
g5
(lp4832
(dp4833
g8
VEdward
p4834
sg10
(lp4835
(dp4836
g13
I9780470740941
sg14
VLocke
p4837
sg16
VRequired
p4838
sg18
VHandbook Of Principles Of Organizational Behavior
p4839
sg20
VPaperback
p4840
sg22
g515
sg24
F75.0
sasg38
V367718
p4841
sg40
VE-01
p4842
sasg38
V97744
p4843
sg40
VGBA615
p4844
sa(dp4845
g5
(lp4846
(dp4847
g8
VEdward
p4848
sg10
(lp4849
sg38
V367719
p4850
sg40
VE-01
p4851
sasg38
V97745
p4852
sg40
VGBA616
p4853
sa(dp4854
g5
(lp4855
(dp4856
g8
VHALATI
p4857
sg10
(lp4858
(dp4859
g13
I9781111532222
sg14
VAnderson
p4860
sg16
VRequired
p4861
sg18
VIntro To Management Science 13Th Rev (W/Cd)
p4862
sg20
Nsg22
Nsg24
F235.95
sa(dp4863
g13
I9781111916077
sg14
VAnderson (Db*)
p4864
sg16
VOptional
p4865
sg18
VIntro To Management Science (Coursesmart)
p4866
sg20
VEbook
p4867
sg22
V13
p4868
sg24
F148.0
sasg38
V367721
p4869
sg40
VE-01
p4870
sasg38
V97746
p4871
sg40
VGBA628
p4872
sa(dp4873
g5
(lp4874
(dp4875
g8
VHALATI
p4876
sg10
(lp4877
sg38
V367722
p4878
sg40
VE-01
p4879
sasg38
V97747
p4880
sg40
VGBA629
p4881
sa(dp4882
g5
(lp4883
(dp4884
g8
VMONCRIEF
p4885
sg10
(lp4886
(dp4887
g13
I9781412965576
sg14
VCreswell
p4888
sg16
VRequired
p4889
sg18
VResearch Design
p4890
sg20
VPaperback
p4891
sg22
g115
sg24
F75.0
sasg38
V367725
p4892
sg40
VE-01
p4893
sasg38
V97750
p4894
sg40
VGBA683
p4895
sa(dp4896
g5
(lp4897
(dp4898
g8
VMONCRIEF
p4899
sg10
(lp4900
sg38
V367726
p4901
sg40
VE-01
p4902
sasg38
V97751
p4903
sg40
VGBA684
p4904
sa(dp4905
g5
(lp4906
(dp4907
g8
VRHODES
p4908
sg10
(lp4909
(dp4910
g13
I9781450068925
sg14
VRhodes
p4911
sg16
VRequired
p4912
sg18
VReport Writing: A Survival Guide
p4913
sg20
Nsg22
Nsg24
F16.0
sa(dp4914
g13
I9780078112720
sg14
VThompson
p4915
sg16
VRequired
p4916
sg18
VCrafting & Executing Strategy: Quest For Comp Advantage
p4917
sg20
VHardback
p4918
sg22
V18
p4919
sg24
F218.15
sasg38
V367727
p4920
sg40
VE-01
p4921
sasg38
V97752
p4922
sg40
VGBA687
p4923
sa(dp4924
g5
(lp4925
(dp4926
g8
VRHODES
p4927
sg10
(lp4928
sg38
V367728
p4929
sg40
VE-01
p4930
sasg38
V97753
p4931
sg40
VGBA688
p4932
sasg469
VGBA
p4933
sg38
V4813
p4934
sg40
VGRADUATE BUS ADMIN
p4935
sa(dp4936
g2
(lp4937
(dp4938
g5
(lp4939
(dp4940
g8
VMCGARVEY
p4941
sg10
(lp4942
sg38
V367729
p4943
sg40
VE-01
p4944
sasg38
V97754
p4945
sg40
VGED400
p4946
sa(dp4947
g5
(lp4948
(dp4949
g8
VJACOBSEN
p4950
sg10
(lp4951
sg38
V367731
p4952
sg40
VE-01
p4953
sasg38
V97756
p4954
sg40
VGED532
p4955
sa(dp4956
g5
(lp4957
(dp4958
g8
VSTAFF
p4959
sg10
(lp4960
sg38
V367732
p4961
sg40
VE-01
p4962
sasg38
V97757
p4963
sg40
VGED550
p4964
sa(dp4965
g5
(lp4966
(dp4967
g8
VJACOBSEN
p4968
sg10
(lp4969
sg38
V367733
p4970
sg40
VE-01
p4971
sasg38
V97758
p4972
sg40
VGED690
p4973
sa(dp4974
g5
(lp4975
(dp4976
g8
VSTAFF
p4977
sg10
(lp4978
sg38
V367734
p4979
sg40
VE-01
p4980
sasg38
V97759
p4981
sg40
VGED691
p4982
sa(dp4983
g5
(lp4984
(dp4985
g8
VJACOBSEN
p4986
sg10
(lp4987
sg38
V367735
p4988
sg40
VE-01
p4989
sasg38
V97760
p4990
sg40
VGED693
p4991
sa(dp4992
g5
(lp4993
(dp4994
g8
VMCGARVEY
p4995
sg10
(lp4996
sg38
V367730
p4997
sg40
VE-01
p4998
sasg38
V97755
p4999
sg40
VGED400L
p5000
sasg469
VGED
p5001
sg38
V4702
p5002
sg40
VGRADUATE & PROF ST
p5003
sa(dp5004
g2
(lp5005
(dp5006
g5
(lp5007
(dp5008
g8
VNICOLL
p5009
sg10
(lp5010
(dp5011
g13
I9780470134863
sg14
VStrahler
p5012
sg16
VRequired
p5013
sg18
VIntroducing Physical Geography
p5014
sg20
VPaperback
p5015
sg22
g412
sg24
F145.0
sa(dp5016
g13
I9780470416501
sg14
VStrahler (Db*)
p5017
sg16
VOptional
p5018
sg18
VIntro Physical Geography (Coursesmart)
p5019
sg20
VEbook
p5020
sg22
g412
sg24
F70.5
sasg38
V367736
p5021
sg40
VE-01
p5022
sasg38
V97761
p5023
sg40
VGEO101
p5024
sa(dp5025
g5
(lp5026
(dp5027
g8
VPlatt
p5028
sg10
(lp5029
(dp5030
g13
I9780321769664
sg14
VKnox
p5031
sg16
VRequired
p5032
sg18
VHuman Geography
p5033
sg20
VPaperback
p5034
sg22
g169
sg24
F137.05
sa(dp5035
g13
I9780321821324
sg14
VKnox (Db*)
p5036
sg16
VOptional
p5037
sg18
VHuman Geography (Coursesmart)
p5038
sg20
VEbook
p5039
sg22
g169
sg24
F83.0
sasg38
V367737
p5040
sg40
VE-01
p5041
sasg38
V97762
p5042
sg40
VGEO102
p5043
sa(dp5044
g5
(lp5045
(dp5046
g8
VPlatt
p5047
sg10
(lp5048
(dp5049
g13
I9780757570605
sg14
VHyslop
p5050
sg16
VRequired
p5051
sg18
VCalifornia Eclectic
p5052
sg20
Nsg22
Nsg24
F79.95
sasg38
V367738
p5053
sg40
VE-01
p5054
sasg38
V97763
p5055
sg40
VGEO351
p5056
sasg469
VGEO
p5057
sg38
V4703
p5058
sg40
VGEOGRAPHY
p5059
sa(dp5060
g2
(lp5061
(dp5062
g5
(lp5063
(dp5064
g8
VROUMELIS
p5065
sg10
(lp5066
(dp5067
g13
I9780393935189
sg14
VMarshak
p5068
sg16
VRequired
p5069
sg18
VEarth
p5070
sg20
VPaperback
p5071
sg22
g599
sg24
F127.5
sa(dp5072
g13
I9780393120660
sg14
VMarshak (Db*)
p5073
sg16
VOptional
p5074
sg18
VEarth (Coursesmart)
p5075
sg20
VEbook
p5076
sg22
g599
sg24
F56.7
sasg38
V379915
p5077
sg40
VE-01
p5078
sasg38
V99379
p5079
sg40
VGSC321
p5080
sa(dp5081
g5
(lp5082
(dp5083
g8
VROUMELIS
p5084
sg10
(lp5085
(dp5086
g13
I9780757523687
sg14
VNourse
p5087
sg16
VRequired
p5088
sg18
VPractical Earth Science Exercises (Revised 2Nd)
p5089
sg20
VPaperback
p5090
sg22
g515
sg24
F58.8
sasg38
V379916
p5091
sg40
VE-01
p5092
sasg38
V99380
p5093
sg40
VGSC321L
p5094
sasg469
VGSC
p5095
sg38
V4811
p5096
sg40
VGEOLOGICAL SCIENCE
p5097
sa(dp5098
g2
(lp5099
(dp5100
g5
(lp5101
(dp5102
g8
VIrvin
p5103
sg10
(lp5104
sg38
V380206
p5105
sg40
VE-01
p5106
sasg38
V97764
p5107
sg40
VHST101
p5108
sa(dp5109
g5
(lp5110
(dp5111
g8
VARREOLA
p5112
sg10
(lp5113
(dp5114
g13
I9781121438767
sg14
VArreola
p5115
sg16
VRequired
p5116
sg18
VHistory Of Civilization/Middle Period (Custom)
p5117
sg20
Nsg22
Nsg24
F57.4
sasg38
V367740
p5118
sg40
VE-01
p5119
sa(dp5120
g8
VIrvin
p5121
sg10
(lp5122
sg38
V380209
p5123
sg40
VE-02
p5124
sasg38
V97765
p5125
sg40
VHST102
p5126
sa(dp5127
g5
(lp5128
(dp5129
g8
VMANSOUR
p5130
sg10
(lp5131
(dp5132
g13
I9780312666934
sg14
VMckay
p5133
sg16
VRequired
p5134
sg18
VHistory Of World Societies Vol Ii
p5135
sg20
VPaperback
p5136
sg22
g1108
sg24
F110.65
sa(dp5137
g13
I9780312569792
sg14
VMckay (Db*)
p5138
sg16
VOptional
p5139
sg18
VA History Of World Societies Vol 2 Since 1450 (Coursesmart)
p5140
sg20
VEbook
p5141
sg22
g1108
sg24
F52.0
sasg38
V367742
p5142
sg40
VE-01
p5143
sasg38
V97766
p5144
sg40
VHST103
p5145
sa(dp5146
g5
(lp5147
(dp5148
g8
VBATES
p5149
sg10
(lp5150
sg38
V367743
p5151
sg40
VE-01
p5152
sasg38
V97767
p5153
sg40
VHST201
p5154
sa(dp5155
g5
(lp5156
(dp5157
g8
VHOIKKALA
p5158
sg10
(lp5159
(dp5160
g13
I9781256751274
sg14
VDivine*
p5161
sg16
VRequired
p5162
sg18
VAmerica: Past & Present Vol. 2 W/Myhistorylab (Making The Grade)
p5163
sg20
VKit/Set/Package
p5164
sg22
g1108
sg24
F0.0
sa(dp5165
g13
I9780205206544
sg14
VPearson
p5166
sg16
VPart of Set
p5167
sg18
VMyhistorylab W/E-Text
p5168
sg20
Nsg22
Nsg24
F0.0
sa(dp5169
g13
I9780205723577
sg14
VDivine
p5170
sg16
VPart of Set
p5171
sg18
VAmerica: Past & Present Vol. 2 (Books A La Carte)
p5172
sg20
VPaperback
p5173
sg22
g1108
sg24
F0.0
sasg38
V367744
p5174
sg40
VE-02
p5175
sa(dp5176
g8
VBATES
p5177
sg10
(lp5178
sg38
V380446
p5179
sg40
VE-02C
p5180
sa(dp5181
g8
VMANSOUR
p5182
sg10
(lp5183
(dp5184
g13
I9780393130362
sg14
VFoner*
p5185
sg16
VRequired
p5186
sg18
VGive Me Liberty Vol. 2 Brief W/Voices Of Freedom Vol. 2
p5187
sg20
VKit/Set/Package
p5188
sg22
g115
sg24
F66.65
sa(dp5189
g13
I9780393120301
sg14
VFoner (Db*)
p5190
sg16
VOptional
p5191
sg18
VGive Me Liberty Brief Vol 2 (Coursesmart)
p5192
sg20
VEbook
p5193
sg22
g115
sg24
F22.25
sa(dp5194
g13
I9780393935684
sg14
VFoner
p5195
sg16
VPart of Set
p5196
sg18
VVoices Of Freedom Vol Two
p5197
sg20
VPaperback
p5198
sg22
g115
sg24
F26.65
sa(dp5199
g13
I9780393935530
sg14
VFoner
p5200
sg16
VPart of Set
p5201
sg18
VGive Me Liberty Brief Vol 2
p5202
sg20
VPaperback
p5203
sg22
g115
sg24
F66.65
sasg38
V367745
p5204
sg40
VE-03
p5205
sasg38
V97768
p5206
sg40
VHST202
p5207
sa(dp5208
g5
(lp5209
(dp5210
g8
VBATES
p5211
sg10
(lp5212
sg38
V367746
p5213
sg40
VE-01
p5214
sa(dp5215
g8
VHOIKKALA
p5216
sg10
(lp5217
(dp5218
g13
I9780618594962
sg14
VCherny/Chan*(Sw)
p5219
sg16
VRequired
p5220
sg18
VCompeting Visions W/Major Problems In California History
p5221
sg20
Nsg22
Nsg24
F134.4
sa(dp5222
g13
I9780669275889
sg14
VChan
p5223
sg16
VPart of Set
p5224
sg18
VMajor Problems In California History
p5225
sg20
Nsg22
Nsg24
F68.2
sa(dp5226
g13
I9780395959640
sg14
VCherny
p5227
sg16
VPart of Set
p5228
sg18
VCompeting Visions: History Of California
p5229
sg20
Nsg22
Nsg24
F130.0
sasg38
V367747
p5230
sg40
VE-02
p5231
sasg38
V97955
p5232
sg40
VHST370
p5233
sasg469
VHST
p5234
sg38
V4707
p5235
sg40
VHISTORY
p5236
sa(dp5237
g2
(lp5238
(dp5239
g5
(lp5240
(dp5241
g8
VMULYANTO
p5242
sg10
(lp5243
(dp5244
g13
I9780136090984
sg14
VCavusgil
p5245
sg16
VRequired
p5246
sg18
VInternational Business
p5247
sg20
VHardback
p5248
sg22
g515
sg24
F187.5
sa(dp5249
g13
I9780136090724
sg14
VCavusgil (Db*)
p5250
sg16
VOptional
p5251
sg18
VInternational Business (Coursesmart)
p5252
sg20
VEbook
p5253
sg22
g515
sg24
F80.0
sasg38
V367748
p5254
sg40
VE-01
p5255
sasg38
V97956
p5256
sg40
VIBM300
p5257
sa(dp5258
g5
(lp5259
(dp5260
g8
VMYERS
p5261
sg10
(lp5262
(dp5263
g13
I9780324789287
sg14
VLamb
p5264
sg16
VRequired
p5265
sg18
VMktg 3
p5266
sg20
Nsg22
Nsg24
F54.95
sasg38
V367749
p5267
sg40
VE-01
p5268
sa(dp5269
g8
VBRYANT
p5270
sg10
(lp5271
(dp5272
g13
I9780132620000
sg14
VLevens*
p5273
sg16
VRequired
p5274
sg18
VMarketing Sve W/Mymarketinglab Sac
p5275
sg20
VKit/Set/Package
p5276
sg22
g515
sg24
F66.45
sa(dp5277
g13
I9780132177474
sg14
VLevens
p5278
sg16
VPart of Set
p5279
sg18
VMarketing St Value Ed (Loose-Leaf)
p5280
sg20
VPaperback
p5281
sg22
g515
sg24
F57.2
sa(dp5282
g13
I9780132175920
sg14
VPearson
p5283
sg16
VPart of Set
p5284
sg18
VMymarketinglab Sac
p5285
sg20
VAccess Code
p5286
sg22
g515
sg24
F96.0
sasg38
V367750
p5287
sg40
VE-02
p5288
sasg38
V97957
p5289
sg40
VIBM301
p5290
sa(dp5291
g5
(lp5292
(dp5293
g8
VVERCILLO
p5294
sg10
(lp5295
(dp5296
g13
I9780538467384
sg14
VFerrell
p5297
sg16
VRequired
p5298
sg18
VMarketing Strategy
p5299
sg20
VPaperback
p5300
sg22
g412
sg24
F197.8
sasg38
V367751
p5301
sg40
VE-01
p5302
sasg38
V97958
p5303
sg40
VIBM302
p5304
sa(dp5305
g5
(lp5306
(dp5307
g8
VASSUMMA
p5308
sg10
(lp5309
sg38
V367752
p5310
sg40
VE-01
p5311
sasg38
V97959
p5312
sg40
VIBM306
p5313
sa(dp5314
g5
(lp5315
(dp5316
g8
VSWARTZ
p5317
sg10
(lp5318
(dp5319
g13
I9780073404868
sg14
VBelch
p5320
sg16
VRequired
p5321
sg18
VAdvertising & Promotion
p5322
sg20
VHardback
p5323
sg22
g1108
sg24
F203.15
sa(dp5324
g13
I9780077325367
sg14
VBelch (Db*)
p5325
sg16
VOptional
p5326
sg18
VAdvertising & Promotion (Coursesmart)
p5327
sg20
VEbook
p5328
sg22
g1108
sg24
F117.25
sasg38
V367753
p5329
sg40
VE-01
p5330
sasg38
V97960
p5331
sg40
VIBM307
p5332
sa(dp5333
g5
(lp5334
(dp5335
g8
VVERCILLO
p5336
sg10
(lp5337
sg38
V367754
p5338
sg40
VE-01
p5339
sasg38
V97961
p5340
sg40
VIBM320
p5341
sa(dp5342
g5
(lp5343
(dp5344
g8
VMYERS
p5345
sg10
(lp5346
(dp5347
g13
I9780132147552
sg14
VStrauss
p5348
sg16
VRequired
p5349
sg18
VE-Marketing
p5350
sg20
VPaperback
p5351
sg22
g169
sg24
F131.25
sa(dp5352
g13
I9780132147613
sg14
VStrauss (Db*)
p5353
sg16
VOptional
p5354
sg18
VE-Marketing (Coursesmart)
p5355
sg20
VEbook
p5356
sg22
g169
sg24
F56.0
sasg38
V367755
p5357
sg40
VE-01
p5358
sasg38
V97962
p5359
sg40
VIBM403
p5360
sa(dp5361
g5
(lp5362
(dp5363
g8
VHOSSAIN
p5364
sg10
(lp5365
(dp5366
g13
I9780324305418
sg14
VChurchill
p5367
sg16
VRequired
p5368
sg18
VBasic Marketing Research
p5369
sg20
VHardback
p5370
sg22
g169
sg24
F133.65
sasg38
V367756
p5371
sg40
VE-01
p5372
sasg38
V97963
p5373
sg40
VIBM408
p5374
sa(dp5375
g5
(lp5376
(dp5377
g8
VWHITSON
p5378
sg10
(lp5379
(dp5380
g13
I9780135053010
sg14
VSchiffman
p5381
sg16
VRequired
p5382
sg18
VConsumer Behavior
p5383
sg20
VHardback
p5384
sg22
V10
p5385
sg24
F203.0
sa(dp5386
g13
I9780135053072
sg14
VSchiffman (Db*)
p5387
sg16
VOptional
p5388
sg18
VConsumer Behavior (Coursesmart Digital)
p5389
sg20
VEbook
p5390
sg22
V10
p5391
sg24
F85.0
sasg38
V367757
p5392
sg40
VE-01
p5393
sasg38
V97964
p5394
sg40
VIBM411
p5395
sa(dp5396
g5
(lp5397
(dp5398
g8
VROXAS
p5399
sg10
(lp5400
(dp5401
g13
I9780073529943
sg14
VCateora
p5402
sg16
VRequired
p5403
sg18
VInternational Marketing
p5404
sg20
VHardback
p5405
sg22
V15
p5406
sg24
F210.65
sa(dp5407
g13
I9780077446963
sg14
VCateora (Db*)
p5408
sg16
VOptional
p5409
sg18
VInternational Marketing (Coursesmart)
p5410
sg20
VEbook
p5411
sg22
g412
sg24
F112.25
sasg38
V367758
p5412
sg40
VE-01
p5413
sasg38
V97965
p5414
sg40
VIBM414
p5415
sa(dp5416
g5
(lp5417
(dp5418
g8
VOzkaya
p5419
sg10
(lp5420
(dp5421
g13
I9780160869532
sg14
VInternational Trade
p5422
sg16
VRequired
p5423
sg18
VBasic Guide To Exporting
p5424
sg20
Nsg22
Nsg24
F0.0
sasg38
V367759
p5425
sg40
VE-01
p5426
sasg38
V97966
p5427
sg40
VIBM416
p5428
sa(dp5429
g5
(lp5430
(dp5431
g8
VASSUMMA
p5432
sg10
(lp5433
(dp5434
g13
I9780136107064
sg14
VKerin
p5435
sg16
VRequired
p5436
sg18
VStrategic Marketing Problems
p5437
sg20
VHardback
p5438
sg22
V12
p5439
sg24
F206.25
sasg38
V367760
p5440
sg40
VE-01
p5441
sasg38
V97967
p5442
sg40
VIBM421
p5443
sa(dp5444
g5
(lp5445
(dp5446
g8
VSWARTZ
p5447
sg10
(lp5448
sg38
V379918
p5449
sg40
VE-01
p5450
sasg38
V99399
p5451
sg40
VIBM480
p5452
sasg469
VIBM
p5453
sg38
V4822
p5454
sg40
VINTERNL BUS & MARKET
p5455
sa(dp5456
g2
(lp5457
(dp5458
g5
(lp5459
(dp5460
g8
VLAMPHIER
p5461
sg10
(lp5462
(dp5463
g13
I9780553212471
sg14
VShelley
p5464
sg16
VRequired
p5465
sg18
VFrankenstein
p5466
sg20
Nsg22
Nsg24
F4.95
sa(dp5467
g13
I9780449220603
sg14
VPiercy
p5468
sg16
VRequired
p5469
sg18
VHe, She & It (Rack Size)
p5470
sg20
Nsg22
Nsg24
F7.5
sasg38
V379919
p5471
sg40
VE-01
p5472
sasg38
V97968
p5473
sg40
VIGE320
p5474
sasg469
VIGE
p5475
sg38
V4712
p5476
sg40
VINTERDISPL GEN EDUC
p5477
sa(dp5478
g2
(lp5479
(dp5480
g5
(lp5481
(dp5482
g8
VCHASE
p5483
sg10
(lp5484
(dp5485
g13
I9780073407432
sg14
VBassham
p5486
sg16
VRequired
p5487
sg18
VCritical Thinking
p5488
sg20
VPaperback
p5489
sg22
g599
sg24
F127.65
sa(dp5490
g13
I9780077304478
sg14
VBassham (Db*)
p5491
sg16
VOptional
p5492
sg18
VCritical Thinking: A Student's Introduction (Coursesmart)
p5493
sg20
Nsg22
Nsg24
F62.0
sasg38
V367762
p5494
sg40
V01
p5495
sa(dp5496
g8
VCHASE
p5497
sg10
(lp5498
(dp5499
g13
I9780073407432
sg14
VBassham
p5500
sg16
VRequired
p5501
sg18
VCritical Thinking
p5502
sg20
VPaperback
p5503
sg22
g599
sg24
F127.65
sa(dp5504
g13
I9780077304478
sg14
VBassham (Db*)
p5505
sg16
VOptional
p5506
sg18
VCritical Thinking: A Student's Introduction (Coursesmart)
p5507
sg20
Nsg22
Nsg24
F62.0
sasg38
V367763
p5508
sg40
V02
p5509
sasg38
V97969
p5510
sg40
VKIN209
p5511
sa(dp5512
g5
(lp5513
(dp5514
g8
VLIANG
p5515
sg10
(lp5516
(dp5517
g13
I9780321523013
sg14
VPowers
p5518
sg16
VRequired
p5519
sg18
VTotal Fitness & Wellness
p5520
sg20
VHardback
p5521
sg22
g412
sg24
F72.8
sasg38
V367764
p5522
sg40
V01
p5523
sasg38
V97970
p5524
sg40
VKIN301
p5525
sa(dp5526
g5
(lp5527
(dp5528
g8
VMOUSTAFA
p5529
sg10
(lp5530
(dp5531
g13
I9780736055833
sg14
VWilmore
p5532
sg16
VRequired
p5533
sg18
VPhysiology Of Sport & Exercise
p5534
sg20
VHardback
p5535
sg22
g599
sg24
F92.0
sasg38
V367765
p5536
sg40
V01
p5537
sasg38
V97971
p5538
sg40
VKIN303
p5539
sa(dp5540
g5
(lp5541
(dp5542
g8
VKANG
p5543
sg10
(lp5544
(dp5545
g13
I9780073376431
sg14
VFloyd
p5546
sg16
VRequired
p5547
sg18
VManual Of Structural Kinesiology
p5548
sg20
VPaperback
p5549
sg22
V17
p5550
sg24
F82.0
sa(dp5551
g13
I9780736051019
sg14
VMcginnis
p5552
sg16
VRequired
p5553
sg18
VBiomechanics Of Sport & Exercise
p5554
sg20
VHardback
p5555
sg22
g515
sg24
F83.0
sa(dp5556
g13
I9780077283506
sg14
VFloyd (Db*)
p5557
sg16
VOptional
p5558
sg18
VManual Of Structural Kinesiology I (Coursesmart Digital)
p5559
sg20
VEbook
p5560
sg22
g75
sg24
F50.25
sasg38
V367768
p5561
sg40
V01
p5562
sasg38
V97973
p5563
sg40
VKIN304
p5564
sa(dp5565
g5
(lp5566
(dp5567
g8
VMETZKER
p5568
sg10
(lp5569
(dp5570
g13
I9780073376509
sg14
VGallahue
p5571
sg16
VRequired
p5572
sg18
VUnderstanding Motor Development
p5573
sg20
VHardback
p5574
sg22
g75
sg24
F141.9
sa(dp5575
g13
I9780077378769
sg14
VGallahue (Db*)
p5576
sg16
VOptional
p5577
sg18
VUnderstanding Motor Development (Coursesmart)
p5578
sg20
VEbook
p5579
sg22
g75
sg24
F79.5
sasg38
V367770
p5580
sg40
V01
p5581
sasg38
V97975
p5582
sg40
VKIN312
p5583
sa(dp5584
g5
(lp5585
(dp5586
g8
VMETZKER
p5587
sg10
(lp5588
(dp5589
g13
I9780801116056
sg14
VCalif Dept Educ
p5590
sg16
VRequired
p5591
sg18
VPhysical Education Model Content Standards For Calif. Public Schools
p5592
sg20
Nsg22
Nsg24
F21.25
sasg38
V367772
p5593
sg40
V01
p5594
sasg38
V97977
p5595
sg40
VKIN328
p5596
sa(dp5597
g5
(lp5598
(dp5599
g8
VSPALDING
p5600
sg10
(lp5601
sg38
V367774
p5602
sg40
V01
p5603
sa(dp5604
g8
VSPALDING
p5605
sg10
(lp5606
sg38
V367775
p5607
sg40
V02
p5608
sa(dp5609
g8
VFISH
p5610
sg10
(lp5611
sg38
V367776
p5612
sg40
V03
p5613
sa(dp5614
g8
VFISH
p5615
sg10
(lp5616
sg38
V367777
p5617
sg40
V04
p5618
sa(dp5619
g8
VHANSEN
p5620
sg10
(lp5621
sg38
V367778
p5622
sg40
V05
p5623
sasg38
V97979
p5624
sg40
VKIN370
p5625
sa(dp5626
g5
(lp5627
(dp5628
g8
VMOUSTAFA
p5629
sg10
(lp5630
(dp5631
g13
I9780736055833
sg14
VWilmore
p5632
sg16
VRequired
p5633
sg18
VPhysiology Of Sport & Exercise
p5634
sg20
VHardback
p5635
sg22
g599
sg24
F92.0
sasg38
V367779
p5636
sg40
V01
p5637
sasg38
V97980
p5638
sg40
VKIN403
p5639
sa(dp5640
g5
(lp5641
(dp5642
g8
VHANSEN
p5643
sg10
(lp5644
sg38
V367782
p5645
sg40
V01
p5646
sa(dp5647
g8
VHANSEN
p5648
sg10
(lp5649
sg38
V367783
p5650
sg40
V02
p5651
sasg38
V97982
p5652
sg40
VKIN441
p5653
sa(dp5654
g5
(lp5655
(dp5656
g8
VCHASE
p5657
sg10
(lp5658
(dp5659
g13
I9781612050324
sg14
VEitzen
p5660
sg16
VRequired
p5661
sg18
VSport In Contemporary Society
p5662
sg20
VPaperback
p5663
sg22
g1108
sg24
F54.95
sasg38
V367784
p5664
sg40
V01
p5665
sasg38
V98070
p5666
sg40
VKIN449
p5667
sa(dp5668
g5
(lp5669
(dp5670
g8
VLIANG
p5671
sg10
(lp5672
(dp5673
g13
I9780781769037
sg14
VAmer Coll Sport
p5674
sg16
VRequired
p5675
sg18
VAcsm's Guidelines For Exercise Testing & Prescription
p5676
sg20
Nsg22
Nsg24
F39.95
sa(dp5677
g13
I9781609130299
sg14
VAmer College (Db*)
p5678
sg16
VOptional
p5679
sg18
VAcsm's Guidelines For Exercise Testing & Prescription (Coursesmart)
p5680
sg20
VEbook
p5681
sg22
g23
sg24
F23.0
sasg38
V367785
p5682
sg40
V01
p5683
sasg38
V97983
p5684
sg40
VKIN453
p5685
sa(dp5686
g5
(lp5687
(dp5688
g8
VLIANG
p5689
sg10
(lp5690
(dp5691
g13
I9780781768702
sg14
VAmer Coll Spor
p5692
sg16
VRequired
p5693
sg18
VAcsm's Resources For Clinical Exercise Physiology
p5694
sg20
VPaperback
p5695
sg22
g515
sg24
F58.95
sa(dp5696
g13
I9781609130329
sg14
VAcsm (Db*)
p5697
sg16
VOptional
p5698
sg18
VAcsm's Resources For Clinical Exercise Physiology (Coursesmart)
p5699
sg20
VEbook
p5700
sg22
g515
sg24
F34.0
sasg38
V367786
p5701
sg40
V01
p5702
sasg38
V98071
p5703
sg40
VKIN455
p5704
sa(dp5705
g5
(lp5706
(dp5707
g8
VMOUSTAFA
p5708
sg10
(lp5709
(dp5710
g13
I9780781797818
sg14
VMcardle
p5711
sg16
VRequired
p5712
sg18
VExercise Physiology
p5713
sg20
VHardback
p5714
sg22
g75
sg24
F110.5
sa(dp5715
g13
I9781608319367
sg14
VMcardle (Db*)
p5716
sg16
VOptional
p5717
sg18
VExercise Physiology Energy, Nutrition & Human Performance (Coursesmart)
p5718
sg20
VEbook
p5719
sg22
g75
sg24
F65.0
sasg38
V367787
p5720
sg40
V01
p5721
sasg38
V97984
p5722
sg40
VKIN456
p5723
sa(dp5724
g5
(lp5725
(dp5726
g8
VMOUSTAFA
p5727
sg10
(lp5728
(dp5729
g13
I9780073376592
sg14
VBeam
p5730
sg16
VRequired
p5731
sg18
VExercise Physiology Laboratory Manual
p5732
sg20
VSpiral
p5733
sg22
g169
sg24
F105.35
sasg38
V367766
p5734
sg40
V01
p5735
sa(dp5736
g8
VSTAFF
p5737
sg10
(lp5738
(dp5739
g13
I9780073376592
sg14
VBeam
p5740
sg16
VRequired
p5741
sg18
VExercise Physiology Laboratory Manual
p5742
sg20
VSpiral
p5743
sg22
g169
sg24
F105.35
sasg38
V367767
p5744
sg40
V02
p5745
sasg38
V97972
p5746
sg40
VKIN303L
p5747
sa(dp5748
g5
(lp5749
(dp5750
g8
VKANG
p5751
sg10
(lp5752
sg38
V367769
p5753
sg40
V01
p5754
sasg38
V97974
p5755
sg40
VKIN304L
p5756
sa(dp5757
g5
(lp5758
(dp5759
g8
VMETZKER
p5760
sg10
(lp5761
sg38
V367771
p5762
sg40
V01
p5763
sasg38
V97976
p5764
sg40
VKIN312A
p5765
sa(dp5766
g5
(lp5767
(dp5768
g8
VMETZKER
p5769
sg10
(lp5770
sg38
V367773
p5771
sg40
V01
p5772
sasg38
V97978
p5773
sg40
VKIN328A
p5774
sa(dp5775
g5
(lp5776
(dp5777
g8
VMOUSTAFA
p5778
sg10
(lp5779
sg38
V367780
p5780
sg40
V01
p5781
sa(dp5782
g8
VMOUSTAFA
p5783
sg10
(lp5784
sg38
V367781
p5785
sg40
V02
p5786
sasg38
V97981
p5787
sg40
VKIN403L
p5788
sasg469
VKIN
p5789
sg38
V4806
p5790
sg40
VKINESIOLOGY
p5791
sa(dp5792
g2
(lp5793
(dp5794
g5
(lp5795
(dp5796
g8
VSTAFF
p5797
sg10
(lp5798
(dp5799
g13
I9780077594497
sg14
VMessersmith*
p5800
sg16
VRequired
p5801
sg18
VBeginning & Intermediate Algebra W/Connect
p5802
sg20
VKit/Set/Package
p5803
sg22
g115
sg24
F114.65
sa(dp5804
g13
I9780077594473
sg14
VMessersmith
p5805
sg16
VPart of Set
p5806
sg18
VBeginning & Intermediate Algebra
p5807
sg20
VPaperback
p5808
sg22
g115
sg24
F114.65
sa(dp5809
g13
I9780077594480
sg14
VMcgraw
p5810
sg16
VPart of Set
p5811
sg18
VConnect Access Card T/A Beginning & Intermediate Algebra
p5812
sg20
Nsg22
Nsg24
F66.65
sasg38
V367788
p5813
sg40
VE-01
p5814
sa(dp5815
g8
VSTAFF
p5816
sg10
(lp5817
(dp5818
g13
I9780077594497
sg14
VMessersmith*
p5819
sg16
VRequired
p5820
sg18
VBeginning & Intermediate Algebra W/Connect
p5821
sg20
VKit/Set/Package
p5822
sg22
g115
sg24
F114.65
sa(dp5823
g13
I9780077594473
sg14
VMessersmith
p5824
sg16
VPart of Set
p5825
sg18
VBeginning & Intermediate Algebra
p5826
sg20
VPaperback
p5827
sg22
g115
sg24
F114.65
sa(dp5828
g13
I9780077594480
sg14
VMcgraw
p5829
sg16
VPart of Set
p5830
sg18
VConnect Access Card T/A Beginning & Intermediate Algebra
p5831
sg20
Nsg22
Nsg24
F66.65
sasg38
V367789
p5832
sg40
VE-02
p5833
sasg38
V97985
p5834
sg40
VMAT010
p5835
sa(dp5836
g5
(lp5837
(dp5838
g8
VSHIRLEY
p5839
sg10
(lp5840
(dp5841
g13
I9780077594497
sg14
VMessersmith*
p5842
sg16
VRequired
p5843
sg18
VBeginning & Intermediate Algebra W/Connect
p5844
sg20
VKit/Set/Package
p5845
sg22
g115
sg24
F114.65
sa(dp5846
g13
I9780077594473
sg14
VMessersmith
p5847
sg16
VPart of Set
p5848
sg18
VBeginning & Intermediate Algebra
p5849
sg20
VPaperback
p5850
sg22
g115
sg24
F114.65
sa(dp5851
g13
I9780077594480
sg14
VMcgraw
p5852
sg16
VPart of Set
p5853
sg18
VConnect Access Card T/A Beginning & Intermediate Algebra
p5854
sg20
Nsg22
Nsg24
F66.65
sasg38
V367790
p5855
sg40
VE-01
p5856
sa(dp5857
g8
VSHIRLEY
p5858
sg10
(lp5859
(dp5860
g13
I9780077594497
sg14
VMessersmith*
p5861
sg16
VRequired
p5862
sg18
VBeginning & Intermediate Algebra W/Connect
p5863
sg20
VKit/Set/Package
p5864
sg22
g115
sg24
F114.65
sa(dp5865
g13
I9780077594473
sg14
VMessersmith
p5866
sg16
VPart of Set
p5867
sg18
VBeginning & Intermediate Algebra
p5868
sg20
VPaperback
p5869
sg22
g115
sg24
F114.65
sa(dp5870
g13
I9780077594480
sg14
VMcgraw
p5871
sg16
VPart of Set
p5872
sg18
VConnect Access Card T/A Beginning & Intermediate Algebra
p5873
sg20
Nsg22
Nsg24
F66.65
sasg38
V367791
p5874
sg40
VE-02
p5875
sa(dp5876
g8
VSHIRLEY,
p5877
sg10
(lp5878
(dp5879
g13
I9780077594497
sg14
VMessersmith*
p5880
sg16
VRequired
p5881
sg18
VBeginning & Intermediate Algebra W/Connect
p5882
sg20
VKit/Set/Package
p5883
sg22
g115
sg24
F114.65
sa(dp5884
g13
I9780077594473
sg14
VMessersmith
p5885
sg16
VPart of Set
p5886
sg18
VBeginning & Intermediate Algebra
p5887
sg20
VPaperback
p5888
sg22
g115
sg24
F114.65
sa(dp5889
g13
I9780077594480
sg14
VMcgraw
p5890
sg16
VPart of Set
p5891
sg18
VConnect Access Card T/A Beginning & Intermediate Algebra
p5892
sg20
Nsg22
Nsg24
F66.65
sasg38
V367792
p5893
sg40
VE-03
p5894
sa(dp5895
g8
VSTAFF
p5896
sg10
(lp5897
(dp5898
g13
I9780077594497
sg14
VMessersmith*
p5899
sg16
VRequired
p5900
sg18
VBeginning & Intermediate Algebra W/Connect
p5901
sg20
VKit/Set/Package
p5902
sg22
g115
sg24
F114.65
sa(dp5903
g13
I9780077594473
sg14
VMessersmith
p5904
sg16
VPart of Set
p5905
sg18
VBeginning & Intermediate Algebra
p5906
sg20
VPaperback
p5907
sg22
g115
sg24
F114.65
sa(dp5908
g13
I9780077594480
sg14
VMcgraw
p5909
sg16
VPart of Set
p5910
sg18
VConnect Access Card T/A Beginning & Intermediate Algebra
p5911
sg20
Nsg22
Nsg24
F66.65
sasg38
V367793
p5912
sg40
VE-11
p5913
sa(dp5914
g8
VSTAFF
p5915
sg10
(lp5916
(dp5917
g13
I9780077594497
sg14
VMessersmith*
p5918
sg16
VRequired
p5919
sg18
VBeginning & Intermediate Algebra W/Connect
p5920
sg20
VKit/Set/Package
p5921
sg22
g115
sg24
F114.65
sa(dp5922
g13
I9780077594473
sg14
VMessersmith
p5923
sg16
VPart of Set
p5924
sg18
VBeginning & Intermediate Algebra
p5925
sg20
VPaperback
p5926
sg22
g115
sg24
F114.65
sa(dp5927
g13
I9780077594480
sg14
VMcgraw
p5928
sg16
VPart of Set
p5929
sg18
VConnect Access Card T/A Beginning & Intermediate Algebra
p5930
sg20
Nsg22
Nsg24
F66.65
sasg38
V379920
p5931
sg40
VE-21
p5932
sasg38
V97986
p5933
sg40
VMAT011
p5934
sa(dp5935
g5
(lp5936
(dp5937
g8
VSTAFF
p5938
sg10
(lp5939
(dp5940
g13
I9780077594534
sg14
VMessersmith*
p5941
sg16
VRequired
p5942
sg18
VBeginning & Intermediate Algebra (Customized Ch. 9-13) W/Connect
p5943
sg20
VKit/Set/Package
p5944
sg22
g115
sg24
F100.0
sa(dp5945
g13
I9780077594497
sg14
VMessersmith*
p5946
sg16
VOptional
p5947
sg18
VBeginning & Intermediate Algebra W/Connect
p5948
sg20
VKit/Set/Package
p5949
sg22
g115
sg24
F114.65
sa(dp5950
g13
I9780077594510
sg14
VMessersmith
p5951
sg16
VPart of Set
p5952
sg18
VBeginning & Intermediate Algebra (Customized - Ch. 9-13)
p5953
sg20
VPaperback
p5954
sg22
g115
sg24
F100.0
sa(dp5955
g13
I9780077594527
sg14
VMcgraw
p5956
sg16
VPart of Set
p5957
sg18
VConnect Access Card T/A Beginning & Intermediate Algebra (Customized - Ch. 9-13)
p5958
sg20
Nsg22
Nsg24
F58.8
sasg38
V367794
p5959
sg40
VE-01
p5960
sa(dp5961
g8
VGRIFFITH
p5962
sg10
(lp5963
(dp5964
g13
I9780077594534
sg14
VMessersmith*
p5965
sg16
VRequired
p5966
sg18
VBeginning & Intermediate Algebra (Customized Ch. 9-13) W/Connect
p5967
sg20
VKit/Set/Package
p5968
sg22
g115
sg24
F100.0
sa(dp5969
g13
I9780077594497
sg14
VMessersmith*
p5970
sg16
VOptional
p5971
sg18
VBeginning & Intermediate Algebra W/Connect
p5972
sg20
VKit/Set/Package
p5973
sg22
g115
sg24
F114.65
sa(dp5974
g13
I9780077594510
sg14
VMessersmith
p5975
sg16
VPart of Set
p5976
sg18
VBeginning & Intermediate Algebra (Customized - Ch. 9-13)
p5977
sg20
VPaperback
p5978
sg22
g115
sg24
F100.0
sa(dp5979
g13
I9780077594527
sg14
VMcgraw
p5980
sg16
VPart of Set
p5981
sg18
VConnect Access Card T/A Beginning & Intermediate Algebra (Customized - Ch. 9-13)
p5982
sg20
Nsg22
Nsg24
F58.8
sasg38
V367795
p5983
sg40
VE-02
p5984
sa(dp5985
g8
VSTAFF
p5986
sg10
(lp5987
(dp5988
g13
I9780077594534
sg14
VMessersmith*
p5989
sg16
VRequired
p5990
sg18
VBeginning & Intermediate Algebra (Customized Ch. 9-13) W/Connect
p5991
sg20
VKit/Set/Package
p5992
sg22
g115
sg24
F100.0
sa(dp5993
g13
I9780077594497
sg14
VMessersmith*
p5994
sg16
VOptional
p5995
sg18
VBeginning & Intermediate Algebra W/Connect
p5996
sg20
VKit/Set/Package
p5997
sg22
g115
sg24
F114.65
sa(dp5998
g13
I9780077594510
sg14
VMessersmith
p5999
sg16
VPart of Set
p6000
sg18
VBeginning & Intermediate Algebra (Customized - Ch. 9-13)
p6001
sg20
VPaperback
p6002
sg22
g115
sg24
F100.0
sa(dp6003
g13
I9780077594527
sg14
VMcgraw
p6004
sg16
VPart of Set
p6005
sg18
VConnect Access Card T/A Beginning & Intermediate Algebra (Customized - Ch. 9-13)
p6006
sg20
Nsg22
Nsg24
F58.8
sasg38
V367796
p6007
sg40
VE-11
p6008
sa(dp6009
g8
VSTAFF
p6010
sg10
(lp6011
(dp6012
g13
I9780077594534
sg14
VMessersmith*
p6013
sg16
VRequired
p6014
sg18
VBeginning & Intermediate Algebra (Customized Ch. 9-13) W/Connect
p6015
sg20
VKit/Set/Package
p6016
sg22
g115
sg24
F100.0
sa(dp6017
g13
I9780077594497
sg14
VMessersmith*
p6018
sg16
VOptional
p6019
sg18
VBeginning & Intermediate Algebra W/Connect
p6020
sg20
VKit/Set/Package
p6021
sg22
g115
sg24
F114.65
sa(dp6022
g13
I9780077594510
sg14
VMessersmith
p6023
sg16
VPart of Set
p6024
sg18
VBeginning & Intermediate Algebra (Customized - Ch. 9-13)
p6025
sg20
VPaperback
p6026
sg22
g115
sg24
F100.0
sa(dp6027
g13
I9780077594527
sg14
VMcgraw
p6028
sg16
VPart of Set
p6029
sg18
VConnect Access Card T/A Beginning & Intermediate Algebra (Customized - Ch. 9-13)
p6030
sg20
Nsg22
Nsg24
F58.8
sasg38
V367797
p6031
sg40
VE-21
p6032
sa(dp6033
g8
VSTAFF
p6034
sg10
(lp6035
(dp6036
g13
I9780077594534
sg14
VMessersmith*
p6037
sg16
VRequired
p6038
sg18
VBeginning & Intermediate Algebra (Customized Ch. 9-13) W/Connect
p6039
sg20
VKit/Set/Package
p6040
sg22
g115
sg24
F100.0
sa(dp6041
g13
I9780077594497
sg14
VMessersmith*
p6042
sg16
VOptional
p6043
sg18
VBeginning & Intermediate Algebra W/Connect
p6044
sg20
VKit/Set/Package
p6045
sg22
g115
sg24
F114.65
sa(dp6046
g13
I9780077594510
sg14
VMessersmith
p6047
sg16
VPart of Set
p6048
sg18
VBeginning & Intermediate Algebra (Customized - Ch. 9-13)
p6049
sg20
VPaperback
p6050
sg22
g115
sg24
F100.0
sa(dp6051
g13
I9780077594527
sg14
VMcgraw
p6052
sg16
VPart of Set
p6053
sg18
VConnect Access Card T/A Beginning & Intermediate Algebra (Customized - Ch. 9-13)
p6054
sg20
Nsg22
Nsg24
F58.8
sasg38
V379921
p6055
sg40
VE-22
p6056
sasg38
V97987
p6057
sg40
VMAT012
p6058
sa(dp6059
g5
(lp6060
(dp6061
g8
VMC DONALD
p6062
sg10
(lp6063
(dp6064
g13
I9781118177419
sg14
VYoung*
p6065
sg16
VRequired
p6066
sg18
VAlgebra & Trigonometry W/Wiley Plus (Cal Poly Custom)
p6067
sg20
VKit/Set/Package
p6068
sg22
g515
sg24
F105.35
sa(dp6069
g13
I9780470247471
sg14
VWiley
p6070
sg16
VPart of Set
p6071
sg18
VWiley Plus Stand-Alone Access T/A Alg & Trig 2E
p6072
sg20
VAccess Code
p6073
sg22
g515
sg24
F100.6
sa(dp6074
g13
I9781118177402
sg14
VYoung
p6075
sg16
VPart of Set
p6076
sg18
VCollege Algebra & Trigonometry For Cal Poly Pomona (Custom)
p6077
sg20
Nsg22
Nsg24
F100.0
sasg38
V367798
p6078
sg40
VE-01
p6079
sa(dp6080
g8
VGRIFFITH
p6081
sg10
(lp6082
(dp6083
g13
I9781118177419
sg14
VYoung*
p6084
sg16
VRequired
p6085
sg18
VAlgebra & Trigonometry W/Wiley Plus (Cal Poly Custom)
p6086
sg20
VKit/Set/Package
p6087
sg22
g515
sg24
F105.35
sa(dp6088
g13
I9780470247471
sg14
VWiley
p6089
sg16
VPart of Set
p6090
sg18
VWiley Plus Stand-Alone Access T/A Alg & Trig 2E
p6091
sg20
VAccess Code
p6092
sg22
g515
sg24
F100.6
sa(dp6093
g13
I9781118177402
sg14
VYoung
p6094
sg16
VPart of Set
p6095
sg18
VCollege Algebra & Trigonometry For Cal Poly Pomona (Custom)
p6096
sg20
Nsg22
Nsg24
F100.0
sasg38
V367799
p6097
sg40
VE-02
p6098
sasg38
V97988
p6099
sg40
VMAT105
p6100
sa(dp6101
g5
(lp6102
(dp6103
g8
VGREEN
p6104
sg10
(lp6105
(dp6106
g13
I9781118177419
sg14
VYoung*
p6107
sg16
VRequired
p6108
sg18
VAlgebra & Trigonometry W/Wiley Plus (Cal Poly Custom)
p6109
sg20
VKit/Set/Package
p6110
sg22
g515
sg24
F105.35
sa(dp6111
g13
I9780470247471
sg14
VWiley
p6112
sg16
VPart of Set
p6113
sg18
VWiley Plus Stand-Alone Access T/A Alg & Trig 2E
p6114
sg20
VAccess Code
p6115
sg22
g515
sg24
F100.6
sa(dp6116
g13
I9781118177402
sg14
VYoung
p6117
sg16
VPart of Set
p6118
sg18
VCollege Algebra & Trigonometry For Cal Poly Pomona (Custom)
p6119
sg20
Nsg22
Nsg24
F100.0
sasg38
V367800
p6120
sg40
VE-01
p6121
sa(dp6122
g8
VGREEN
p6123
sg10
(lp6124
(dp6125
g13
I9781118177419
sg14
VYoung*
p6126
sg16
VRequired
p6127
sg18
VAlgebra & Trigonometry W/Wiley Plus (Cal Poly Custom)
p6128
sg20
VKit/Set/Package
p6129
sg22
g515
sg24
F105.35
sa(dp6130
g13
I9780470247471
sg14
VWiley
p6131
sg16
VPart of Set
p6132
sg18
VWiley Plus Stand-Alone Access T/A Alg & Trig 2E
p6133
sg20
VAccess Code
p6134
sg22
g515
sg24
F100.6
sa(dp6135
g13
I9781118177402
sg14
VYoung
p6136
sg16
VPart of Set
p6137
sg18
VCollege Algebra & Trigonometry For Cal Poly Pomona (Custom)
p6138
sg20
Nsg22
Nsg24
F100.0
sasg38
V367801
p6139
sg40
VE-02
p6140
sasg38
V97989
p6141
sg40
VMAT106
p6142
sa(dp6143
g5
(lp6144
(dp6145
g8
VSTAFF
p6146
sg10
(lp6147
(dp6148
g13
I9781133295327
sg14
VStewart* (Sw2)
p6149
sg16
VRequired
p6150
sg18
VCalculus Early Transcendentals (California Edition) W/Ewa Code
p6151
sg20
VHardback
p6152
sg22
g75
sg24
F171.25
sa(dp6153
g13
I9781133295334
sg14
VStewart* (Sw2)
p6154
sg16
VRequired
p6155
sg18
VCalculus Single Variable Early Transcendentals  (Ca Ed) W/Ewa Code
p6156
sg20
VPaperback
p6157
sg22
g75
sg24
F146.25
sa(dp6158
g13
I9780840049346
sg14
VStewart
p6159
sg16
VOptional
p6160
sg18
VSingle Variable Calculus: Early Transcendentals St Sol Man
p6161
sg20
VPaperback
p6162
sg22
g75
sg24
F77.0
sasg38
V367802
p6163
sg40
VE-01
p6164
sasg38
V97990
p6165
sg40
VMAT112
p6166
sa(dp6167
g5
(lp6168
(dp6169
g8
VKRINIK
p6170
sg10
(lp6171
(dp6172
g13
I9781133295327
sg14
VStewart* (Sw2)
p6173
sg16
VRequired
p6174
sg18
VCalculus Early Transcendentals (California Edition) W/Ewa Code
p6175
sg20
VHardback
p6176
sg22
g75
sg24
F171.25
sa(dp6177
g13
I9781133295334
sg14
VStewart* (Sw2)
p6178
sg16
VRequired
p6179
sg18
VCalculus Single Variable Early Transcendentals  (Ca Ed) W/Ewa Code
p6180
sg20
VPaperback
p6181
sg22
g75
sg24
F146.25
sa(dp6182
g13
I9780840049346
sg14
VStewart
p6183
sg16
VOptional
p6184
sg18
VSingle Variable Calculus: Early Transcendentals St Sol Man
p6185
sg20
VPaperback
p6186
sg22
g75
sg24
F77.0
sa(dp6187
g13
I9780495988281
sg14
VStewart
p6188
sg16
VPart of Set
p6189
sg18
VCalculus Early Transcendentals (Custom California Ed)
p6190
sg20
VHardback
p6191
sg22
g75
sg24
F179.85
sa(dp6192
g13
I9780495978480
sg14
VStewart
p6193
sg16
VPart of Set
p6194
sg18
VCalculus Early Transcendntals Single Variable (Ca Custom Ed)
p6195
sg20
VPaperback
p6196
sg22
g75
sg24
F152.55
sa(dp6197
g13
I9780538738071
sg14
VCengage
p6198
sg16
VPart of Set
p6199
sg18
VEnhanced Web Assign Access W/Loe Ebook
p6200
sg20
Nsg22
Nsg24
F95.0
sasg38
V367803
p6201
sg40
VE-01
p6202
sa(dp6203
g8
VKRINIK
p6204
sg10
(lp6205
(dp6206
g13
I9781133295327
sg14
VStewart* (Sw2)
p6207
sg16
VRequired
p6208
sg18
VCalculus Early Transcendentals (California Edition) W/Ewa Code
p6209
sg20
VHardback
p6210
sg22
g75
sg24
F171.25
sa(dp6211
g13
I9781133295334
sg14
VStewart* (Sw2)
p6212
sg16
VRequired
p6213
sg18
VCalculus Single Variable Early Transcendentals  (Ca Ed) W/Ewa Code
p6214
sg20
VPaperback
p6215
sg22
g75
sg24
F146.25
sa(dp6216
g13
I9780840049346
sg14
VStewart
p6217
sg16
VOptional
p6218
sg18
VSingle Variable Calculus: Early Transcendentals St Sol Man
p6219
sg20
VPaperback
p6220
sg22
g75
sg24
F77.0
sa(dp6221
g13
I9780495988281
sg14
VStewart
p6222
sg16
VPart of Set
p6223
sg18
VCalculus Early Transcendentals (Custom California Ed)
p6224
sg20
VHardback
p6225
sg22
g75
sg24
F179.85
sa(dp6226
g13
I9780495978480
sg14
VStewart
p6227
sg16
VPart of Set
p6228
sg18
VCalculus Early Transcendntals Single Variable (Ca Custom Ed)
p6229
sg20
VPaperback
p6230
sg22
g75
sg24
F152.55
sa(dp6231
g13
I9780538738071
sg14
VCengage
p6232
sg16
VPart of Set
p6233
sg18
VEnhanced Web Assign Access W/Loe Ebook
p6234
sg20
Nsg22
Nsg24
F95.0
sasg38
V367804
p6235
sg40
VE-02
p6236
sasg38
V97991
p6237
sg40
VMAT114
p6238
sa(dp6239
g5
(lp6240
(dp6241
g8
VSWIFT  JR
p6242
sg10
(lp6243
(dp6244
g13
I9781133295327
sg14
VStewart* (Sw2)
p6245
sg16
VRequired
p6246
sg18
VCalculus Early Transcendentals (California Edition) W/Ewa Code
p6247
sg20
VHardback
p6248
sg22
g75
sg24
F171.25
sa(dp6249
g13
I9781133295334
sg14
VStewart* (Sw2)
p6250
sg16
VRequired
p6251
sg18
VCalculus Single Variable Early Transcendentals  (Ca Ed) W/Ewa Code
p6252
sg20
VPaperback
p6253
sg22
g75
sg24
F146.25
sa(dp6254
g13
I9780840049346
sg14
VStewart
p6255
sg16
VOptional
p6256
sg18
VSingle Variable Calculus: Early Transcendentals St Sol Man
p6257
sg20
VPaperback
p6258
sg22
g75
sg24
F77.0
sa(dp6259
g13
I9780495988281
sg14
VStewart
p6260
sg16
VPart of Set
p6261
sg18
VCalculus Early Transcendentals (Custom California Ed)
p6262
sg20
VHardback
p6263
sg22
g75
sg24
F179.85
sa(dp6264
g13
I9780495978480
sg14
VStewart
p6265
sg16
VPart of Set
p6266
sg18
VCalculus Early Transcendntals Single Variable (Ca Custom Ed)
p6267
sg20
VPaperback
p6268
sg22
g75
sg24
F152.55
sa(dp6269
g13
I9780538738071
sg14
VCengage
p6270
sg16
VPart of Set
p6271
sg18
VEnhanced Web Assign Access W/Loe Ebook
p6272
sg20
Nsg22
Nsg24
F95.0
sasg38
V367805
p6273
sg40
VE-01
p6274
sa(dp6275
g8
VSWIFT  JR
p6276
sg10
(lp6277
(dp6278
g13
I9781133295327
sg14
VStewart* (Sw2)
p6279
sg16
VRequired
p6280
sg18
VCalculus Early Transcendentals (California Edition) W/Ewa Code
p6281
sg20
VHardback
p6282
sg22
g75
sg24
F171.25
sa(dp6283
g13
I9781133295334
sg14
VStewart* (Sw2)
p6284
sg16
VRequired
p6285
sg18
VCalculus Single Variable Early Transcendentals  (Ca Ed) W/Ewa Code
p6286
sg20
VPaperback
p6287
sg22
g75
sg24
F146.25
sa(dp6288
g13
I9780840049346
sg14
VStewart
p6289
sg16
VOptional
p6290
sg18
VSingle Variable Calculus: Early Transcendentals St Sol Man
p6291
sg20
VPaperback
p6292
sg22
g75
sg24
F77.0
sa(dp6293
g13
I9780495988281
sg14
VStewart
p6294
sg16
VPart of Set
p6295
sg18
VCalculus Early Transcendentals (Custom California Ed)
p6296
sg20
VHardback
p6297
sg22
g75
sg24
F179.85
sa(dp6298
g13
I9780495978480
sg14
VStewart
p6299
sg16
VPart of Set
p6300
sg18
VCalculus Early Transcendntals Single Variable (Ca Custom Ed)
p6301
sg20
VPaperback
p6302
sg22
g75
sg24
F152.55
sa(dp6303
g13
I9780538738071
sg14
VCengage
p6304
sg16
VPart of Set
p6305
sg18
VEnhanced Web Assign Access W/Loe Ebook
p6306
sg20
Nsg22
Nsg24
F95.0
sasg38
V367806
p6307
sg40
VE-02
p6308
sasg38
V97992
p6309
sg40
VMAT115
p6310
sa(dp6311
g5
(lp6312
(dp6313
g8
VMC DONALD
p6314
sg10
(lp6315
(dp6316
g13
I9781133295327
sg14
VStewart* (Sw2)
p6317
sg16
VRequired
p6318
sg18
VCalculus Early Transcendentals (California Edition) W/Ewa Code
p6319
sg20
VHardback
p6320
sg22
g75
sg24
F171.25
sa(dp6321
g13
I9781133295334
sg14
VStewart* (Sw2)
p6322
sg16
VRequired
p6323
sg18
VCalculus Single Variable Early Transcendentals  (Ca Ed) W/Ewa Code
p6324
sg20
VPaperback
p6325
sg22
g75
sg24
F146.25
sa(dp6326
g13
I9780840049346
sg14
VStewart
p6327
sg16
VOptional
p6328
sg18
VSingle Variable Calculus: Early Transcendentals St Sol Man
p6329
sg20
VPaperback
p6330
sg22
g75
sg24
F77.0
sa(dp6331
g13
I9780495988281
sg14
VStewart
p6332
sg16
VPart of Set
p6333
sg18
VCalculus Early Transcendentals (Custom California Ed)
p6334
sg20
VHardback
p6335
sg22
g75
sg24
F179.85
sa(dp6336
g13
I9780495978480
sg14
VStewart
p6337
sg16
VPart of Set
p6338
sg18
VCalculus Early Transcendntals Single Variable (Ca Custom Ed)
p6339
sg20
VPaperback
p6340
sg22
g75
sg24
F152.55
sa(dp6341
g13
I9780538738071
sg14
VCengage
p6342
sg16
VPart of Set
p6343
sg18
VEnhanced Web Assign Access W/Loe Ebook
p6344
sg20
Nsg22
Nsg24
F95.0
sasg38
V367807
p6345
sg40
VE-01
p6346
sa(dp6347
g8
VGILL
p6348
sg10
(lp6349
(dp6350
g13
I9781133295327
sg14
VStewart* (Sw2)
p6351
sg16
VRequired
p6352
sg18
VCalculus Early Transcendentals (California Edition) W/Ewa Code
p6353
sg20
VHardback
p6354
sg22
g75
sg24
F171.25
sa(dp6355
g13
I9781133295334
sg14
VStewart* (Sw2)
p6356
sg16
VRequired
p6357
sg18
VCalculus Single Variable Early Transcendentals  (Ca Ed) W/Ewa Code
p6358
sg20
VPaperback
p6359
sg22
g75
sg24
F146.25
sa(dp6360
g13
I9780840049346
sg14
VStewart
p6361
sg16
VOptional
p6362
sg18
VSingle Variable Calculus: Early Transcendentals St Sol Man
p6363
sg20
VPaperback
p6364
sg22
g75
sg24
F77.0
sa(dp6365
g13
I9780495988281
sg14
VStewart
p6366
sg16
VPart of Set
p6367
sg18
VCalculus Early Transcendentals (Custom California Ed)
p6368
sg20
VHardback
p6369
sg22
g75
sg24
F179.85
sa(dp6370
g13
I9780495978480
sg14
VStewart
p6371
sg16
VPart of Set
p6372
sg18
VCalculus Early Transcendntals Single Variable (Ca Custom Ed)
p6373
sg20
VPaperback
p6374
sg22
g75
sg24
F152.55
sa(dp6375
g13
I9780538738071
sg14
VCengage
p6376
sg16
VPart of Set
p6377
sg18
VEnhanced Web Assign Access W/Loe Ebook
p6378
sg20
Nsg22
Nsg24
F95.0
sasg38
V367808
p6379
sg40
VE-02
p6380
sasg38
V97993
p6381
sg40
VMAT116
p6382
sa(dp6383
g5
(lp6384
(dp6385
g8
VSHIRLEY
p6386
sg10
(lp6387
(dp6388
g13
I9780470170526
sg14
VHughes-Hallett
p6389
sg16
VRequired
p6390
sg18
VApplied Calculus
p6391
sg20
VPaperback
p6392
sg22
g599
sg24
F161.25
sa(dp6393
g13
I9780470564813
sg14
VHughes (Db*)
p6394
sg16
VOptional
p6395
sg18
VApplied Calculus (Coursesmart)
p6396
sg20
VEbook
p6397
sg22
g599
sg24
F86.5
sa(dp6398
g13
I9780470170533
sg14
VHughes-Hallett
p6399
sg16
VOptional
p6400
sg18
VApplied Calculus St Sol Man
p6401
sg20
VPaperback
p6402
sg22
g599
sg24
F61.35
sasg38
V367809
p6403
sg40
VE-01
p6404
sasg38
V97994
p6405
sg40
VMAT120
p6406
sa(dp6407
g5
(lp6408
(dp6409
g8
VBARRO
p6410
sg10
(lp6411
(dp6412
g13
I9780077292737
sg14
VHoffmann
p6413
sg16
VRequired
p6414
sg18
VCalculus For Bus, Econ & Soc & Life Sci Brief
p6415
sg20
VHardback
p6416
sg22
V10
p6417
sg24
F169.7
sa(dp6418
g13
I9780073349022
sg14
VHoffmann
p6419
sg16
VOptional
p6420
sg18
VCalculus For Bus, Econ & Soc & Life Sci St Sol Man
p6421
sg20
VPaperback
p6422
sg22
V10
p6423
sg24
F86.35
sasg38
V367810
p6424
sg40
VE-01
p6425
sa(dp6426
g8
VBARRO
p6427
sg10
(lp6428
(dp6429
g13
I9780077292737
sg14
VHoffmann
p6430
sg16
VRequired
p6431
sg18
VCalculus For Bus, Econ & Soc & Life Sci Brief
p6432
sg20
VHardback
p6433
sg22
V10
p6434
sg24
F169.7
sa(dp6435
g13
I9780073349022
sg14
VHoffmann
p6436
sg16
VOptional
p6437
sg18
VCalculus For Bus, Econ & Soc & Life Sci St Sol Man
p6438
sg20
VPaperback
p6439
sg22
V10
p6440
sg24
F86.35
sasg38
V367811
p6441
sg40
VE-02
p6442
sa(dp6443
g8
VBARRO
p6444
sg10
(lp6445
sg38
V383410
p6446
sg40
VE-03
p6447
sasg38
V97995
p6448
sg40
VMAT125
p6449
sa(dp6450
g5
(lp6451
(dp6452
g8
VGREEN
p6453
sg10
(lp6454
(dp6455
g13
I9780486639468
sg14
VEves
p6456
sg16
VRequired
p6457
sg18
VElementary Matrix Theory
p6458
sg20
Nsg22
Nsg24
F16.95
sa(dp6459
g13
I9780486660141
sg14
VSchneider
p6460
sg16
VRequired
p6461
sg18
VMatrices & Linear Algebra
p6462
sg20
Nsg22
Nsg24
F16.95
sasg38
V367812
p6463
sg40
VE-01
p6464
sasg38
V97996
p6465
sg40
VMAT208
p6466
sa(dp6467
g5
(lp6468
(dp6469
g8
VSWIFT  JR
p6470
sg10
(lp6471
(dp6472
g13
I9781424086122
sg14
VStewart
p6473
sg16
VRequired
p6474
sg18
VCalculus Early Transcendentals - California Edition
p6475
sg20
VHardback
p6476
sg22
g169
sg24
F200.3
sa(dp6477
g13
I9780495011729
sg14
VStewart
p6478
sg16
VRequired
p6479
sg18
VMultivariable Calculus Early Transcendentals
p6480
sg20
VHardback
p6481
sg22
g169
sg24
F164.1
sa(dp6482
g13
I9780495544289
sg14
VStewart (Db*)
p6483
sg16
VOptional
p6484
sg18
VMultivariable Calculus: Early Transcendentals (Coursesmart)
p6485
sg20
VEbook
p6486
sg22
g169
sg24
F88.0
sa(dp6487
g13
I9780495012283
sg14
VStewart
p6488
sg16
VOptional
p6489
sg18
VMultivariable Calculus St Sol Man
p6490
sg20
VPaperback
p6491
sg22
g169
sg24
F59.25
sasg38
V367813
p6492
sg40
VE-01
p6493
sasg38
V97997
p6494
sg40
VMAT214
p6495
sa(dp6496
g5
(lp6497
(dp6498
g8
VGREEN
p6499
sg10
(lp6500
(dp6501
g13
I9781424086122
sg14
VStewart
p6502
sg16
VRequired
p6503
sg18
VCalculus Early Transcendentals - California Edition
p6504
sg20
VHardback
p6505
sg22
g169
sg24
F200.3
sa(dp6506
g13
I9780495011729
sg14
VStewart
p6507
sg16
VRequired
p6508
sg18
VMultivariable Calculus Early Transcendentals
p6509
sg20
VHardback
p6510
sg22
g169
sg24
F164.1
sa(dp6511
g13
I9780495544289
sg14
VStewart (Db*)
p6512
sg16
VOptional
p6513
sg18
VMultivariable Calculus: Early Transcendentals (Coursesmart)
p6514
sg20
VEbook
p6515
sg22
g169
sg24
F88.0
sa(dp6516
g13
I9780495012283
sg14
VStewart
p6517
sg16
VOptional
p6518
sg18
VMultivariable Calculus St Sol Man
p6519
sg20
VPaperback
p6520
sg22
g169
sg24
F59.25
sasg38
V367814
p6521
sg40
VE-01
p6522
sa(dp6523
g8
VKRINIK
p6524
sg10
(lp6525
(dp6526
g13
I9781424086122
sg14
VStewart
p6527
sg16
VRequired
p6528
sg18
VCalculus Early Transcendentals - California Edition
p6529
sg20
VHardback
p6530
sg22
g169
sg24
F200.3
sa(dp6531
g13
I9780495011729
sg14
VStewart
p6532
sg16
VRequired
p6533
sg18
VMultivariable Calculus Early Transcendentals
p6534
sg20
VHardback
p6535
sg22
g169
sg24
F164.1
sa(dp6536
g13
I9780495544289
sg14
VStewart (Db*)
p6537
sg16
VOptional
p6538
sg18
VMultivariable Calculus: Early Transcendentals (Coursesmart)
p6539
sg20
VEbook
p6540
sg22
g169
sg24
F88.0
sa(dp6541
g13
I9780495012283
sg14
VStewart
p6542
sg16
VOptional
p6543
sg18
VMultivariable Calculus St Sol Man
p6544
sg20
VPaperback
p6545
sg22
g169
sg24
F59.25
sasg38
V367815
p6546
sg40
VE-02
p6547
sasg38
V97998
p6548
sg40
VMAT215
p6549
sa(dp6550
g5
(lp6551
(dp6552
g8
VSWIFT  JR
p6553
sg10
(lp6554
(dp6555
g13
I9781584884767
sg14
VSwift
p6556
sg16
VRequired
p6557
sg18
VCourse In Ordinary Differential Equations
p6558
sg20
Nsg22
Nsg24
F99.95
sasg38
V367816
p6559
sg40
VE-01
p6560
sasg38
V97999
p6561
sg40
VMAT216
p6562
sa(dp6563
g5
(lp6564
(dp6565
g8
VXIE
p6566
sg10
(lp6567
(dp6568
g13
I9780201662122
sg14
VPeterson
p6569
sg16
VRequired
p6570
sg18
VLinear Algebra & Differential Equations
p6571
sg20
Nsg22
Nsg24
F84.0
sa(dp6572
g13
I9780321725066
sg14
VPeterson (Db*)
p6573
sg16
VOptional
p6574
sg18
VLinear Algebra & Differential Equations (Coursesmart)
p6575
sg20
Nsg22
Nsg24
F42.0
sa(dp6576
g13
I9780201662139
sg14
VPeterson
p6577
sg16
VOptional
p6578
sg18
VLinear Algebra & Differential Equations St Sol Man
p6579
sg20
VPaperback
p6580
sg22
g4179
sg24
F36.7
sasg38
V367817
p6581
sg40
VE-01
p6582
sasg38
V98000
p6583
sg40
VMAT224
p6584
sa(dp6585
g5
(lp6586
(dp6587
g8
VKRINIK
p6588
sg10
(lp6589
(dp6590
g13
I9780321390530
sg14
VChartrand
p6591
sg16
VRequired
p6592
sg18
VMathematical Proofs
p6593
sg20
VHardback
p6594
sg22
g515
sg24
F124.0
sa(dp6595
g13
I9780321549631
sg14
VChartrand (Db*)
p6596
sg16
VOptional
p6597
sg18
VMathematical Proofs (Coursesmart Digital)
p6598
sg20
VEbook
p6599
sg22
g515
sg24
F51.0
sasg38
V367818
p6600
sg40
VE-01
p6601
sasg38
V98001
p6602
sg40
VMAT310
p6603
sasg469
VMAT
p6604
sg38
V4719
p6605
sg40
VMATHEMATICS
p6606
sa(dp6607
g2
(lp6608
(dp6609
g5
(lp6610
(dp6611
g8
VKIM
p6612
sg10
(lp6613
(dp6614
g13
I9780077381134
sg14
VBeer
p6615
sg16
VRequired
p6616
sg18
VVector Mechanics For Engineers: Statics (Custom)
p6617
sg20
VPaperback
p6618
sg22
g1108
sg24
F119.65
sasg38
V379922
p6619
sg40
VE-01
p6620
sa(dp6621
g8
VSTAFF
p6622
sg10
(lp6623
(dp6624
g13
I9780077381134
sg14
VBeer
p6625
sg16
VRequired
p6626
sg18
VVector Mechanics For Engineers: Statics (Custom)
p6627
sg20
VPaperback
p6628
sg22
g1108
sg24
F119.65
sasg38
V379923
p6629
sg40
VE-02
p6630
sasg38
V98002
p6631
sg40
VME214
p6632
sa(dp6633
g5
(lp6634
(dp6635
g8
VPIROOZAN
p6636
sg10
(lp6637
(dp6638
g13
I9780470499788
sg14
VMeriam
p6639
sg16
VRequired
p6640
sg18
VEngineering Mechanics: Dynamics Sixth Ed. Update (Student Value)
p6641
sg20
VPaperback
p6642
sg22
g169
sg24
F117.5
sasg38
V379924
p6643
sg40
VE-01
p6644
sa(dp6645
g8
VLIPOVETSKY
p6646
sg10
(lp6647
(dp6648
g13
I9780470499788
sg14
VMeriam
p6649
sg16
VRequired
p6650
sg18
VEngineering Mechanics: Dynamics Sixth Ed. Update (Student Value)
p6651
sg20
VPaperback
p6652
sg22
g169
sg24
F117.5
sasg38
V379925
p6653
sg40
VE-02
p6654
sasg38
V98003
p6655
sg40
VME215
p6656
sa(dp6657
g5
(lp6658
(dp6659
g8
VLIPOVETSKY
p6660
sg10
(lp6661
(dp6662
g13
I9780136022305
sg14
VHibbeler
p6663
sg16
VRequired
p6664
sg18
VMechanics Of Materials
p6665
sg20
VHardback
p6666
sg22
g23
sg24
F184.7
sa(dp6667
g13
I9780136023159
sg14
VHibbeler (Db*)
p6668
sg16
VOptional
p6669
sg18
VMechanics Of Materials (Coursesmart)
p6670
sg20
VEbook
p6671
sg22
g23
sg24
F79.0
sasg38
V379926
p6672
sg40
VE-01
p6673
sa(dp6674
g8
VGhazinejad,
p6675
sg10
(lp6676
(dp6677
g13
I9780136022305
sg14
VHibbeler
p6678
sg16
VRequired
p6679
sg18
VMechanics Of Materials
p6680
sg20
VHardback
p6681
sg22
g23
sg24
F184.7
sa(dp6682
g13
I9780136023159
sg14
VHibbeler (Db*)
p6683
sg16
VOptional
p6684
sg18
VMechanics Of Materials (Coursesmart)
p6685
sg20
VEbook
p6686
sg22
g23
sg24
F79.0
sasg38
V379927
p6687
sg40
VE-02
p6688
sasg38
V98004
p6689
sg40
VME218
p6690
sa(dp6691
g5
(lp6692
(dp6693
g8
VPIROOZAN
p6694
sg10
(lp6695
(dp6696
g13
I9780136022305
sg14
VHibbeler
p6697
sg16
VRequired
p6698
sg18
VMechanics Of Materials
p6699
sg20
VHardback
p6700
sg22
g23
sg24
F184.7
sa(dp6701
g13
I9780136023159
sg14
VHibbeler (Db*)
p6702
sg16
VOptional
p6703
sg18
VMechanics Of Materials (Coursesmart)
p6704
sg20
VEbook
p6705
sg22
g23
sg24
F79.0
sasg38
V379928
p6706
sg40
VE-01
p6707
sasg38
V98005
p6708
sg40
VME219
p6709
sa(dp6710
g5
(lp6711
(dp6712
g8
VSHIH
p6713
sg10
(lp6714
(dp6715
g13
I9780132396677
sg14
VChapra
p6716
sg16
VRequired
p6717
sg18
VIntro To Vba For Excel
p6718
sg20
VPaperback
p6719
sg22
g515
sg24
F47.0
sa(dp6720
g13
I9780136093114
sg14
VChapra (Db*)
p6721
sg16
VOptional
p6722
sg18
VIntro To Vba For Excel (Coursesmart)
p6723
sg20
VEbook
p6724
sg22
g515
sg24
F20.0
sasg38
V379931
p6725
sg40
VE-01
p6726
sasg38
V98007
p6727
sg40
VME232
p6728
sa(dp6729
g5
(lp6730
(dp6731
g8
VXUE
p6732
sg10
(lp6733
(dp6734
g13
I9780077986704
sg14
VCengel* (Sw2)
p6735
sg16
VRequired
p6736
sg18
VThermodynamics W/Cd Pkgd W/Property Tables Booklet
p6737
sg20
VKit/Set/Package
p6738
sg22
g75
sg24
F214.05
sa(dp6739
g13
I9780077366742
sg14
VCengel
p6740
sg16
VPart of Set
p6741
sg18
VThermodynamics (W/Cd)
p6742
sg20
VHardback
p6743
sg22
g75
sg24
F211.9
sa(dp6744
g13
I9780077359997
sg14
VCengel
p6745
sg16
VPart of Set
p6746
sg18
VThermodynamics Property Tables Booklet
p6747
sg20
VPaperback
p6748
sg22
g75
sg24
F37.0
sasg38
V379933
p6749
sg40
VE-01
p6750
sasg38
V98009
p6751
sg40
VME301
p6752
sa(dp6753
g5
(lp6754
(dp6755
g8
VXUE
p6756
sg10
(lp6757
(dp6758
g13
I9780077366742
sg14
VCengel
p6759
sg16
VPart of Set
p6760
sg18
VThermodynamics (W/Cd)
p6761
sg20
VHardback
p6762
sg22
g75
sg24
F211.9
sa(dp6763
g13
I9780077359997
sg14
VCengel
p6764
sg16
VPart of Set
p6765
sg18
VThermodynamics Property Tables Booklet
p6766
sg20
VPaperback
p6767
sg22
g75
sg24
F37.0
sasg38
V379934
p6768
sg40
VE-01
p6769
sasg38
V98010
p6770
sg40
VME302
p6771
sa(dp6772
g5
(lp6773
(dp6774
g8
VANDERSON
p6775
sg10
(lp6776
(dp6777
g13
I9781118116135
sg14
VMunson
p6778
sg16
VRequired
p6779
sg18
VFundamentals Of Fluid Mechanics
p6780
sg20
VHardback
p6781
sg22
g75
sg24
F206.25
sasg38
V379935
p6782
sg40
VE-01
p6783
sa(dp6784
g8
VANDERSON
p6785
sg10
(lp6786
(dp6787
g13
I9781118116135
sg14
VMunson
p6788
sg16
VRequired
p6789
sg18
VFundamentals Of Fluid Mechanics
p6790
sg20
VHardback
p6791
sg22
g75
sg24
F206.25
sasg38
V379936
p6792
sg40
VE-02
p6793
sasg38
V98011
p6794
sg40
VME311
p6795
sa(dp6796
g5
(lp6797
(dp6798
g8
VXUE
p6799
sg10
(lp6800
(dp6801
g13
I9780470262849
sg14
VMunson
p6802
sg16
VRequired
p6803
sg18
VFundamentals Of Fluid Mechanics
p6804
sg20
VHardback
p6805
sg22
g169
sg24
F203.75
sa(dp6806
g13
I9780470416259
sg14
VMunson (Db*)
p6807
sg16
VOptional
p6808
sg18
VFundamentals Of Fluid Mechanics (Coursesmart Digital)
p6809
sg20
VEbook
p6810
sg22
g169
sg24
F107.5
sasg38
V379937
p6811
sg40
VE-01
p6812
sasg38
V98012
p6813
sg40
VME312
p6814
sa(dp6815
g5
(lp6816
(dp6817
g8
VGhazinejad
p6818
sg10
(lp6819
(dp6820
g13
I9780495773436
sg14
VAskeland*
p6821
sg16
VRequired
p6822
sg18
VEssentials Of Materials Science & Engineering (Custom Bundle)
p6823
sg20
VNone
p6824
sg22
g515
sg24
F211.55
sasg38
V379939
p6825
sg40
VE-01
p6826
sasg38
V99400
p6827
sg40
VME315
p6828
sa(dp6829
g5
(lp6830
(dp6831
g8
VDINSMORE
p6832
sg10
(lp6833
(dp6834
g13
I9780470528006
sg14
VMeriam* (Sw2)
p6835
sg16
VRequired
p6836
sg18
VEngineering Mechanics Dynamic Sve W/Wiley Plus
p6837
sg20
VKit/Set/Package
p6838
sg22
g169
sg24
F123.75
sa(dp6839
g13
I9780470499788
sg14
VMeriam
p6840
sg16
VPart of Set
p6841
sg18
VEngineering Mechanics: Dynamics Sixth Ed. Update (Student Value)
p6842
sg20
VPaperback
p6843
sg22
g169
sg24
F117.5
sa(dp6844
g13
I9780470106365
sg14
VMeriam/Wiley
p6845
sg16
VPart of Set
p6846
sg18
VWiley Plus T/A Engineering Dynamics (Stand Alone Access Code)
p6847
sg20
Nsg22
Nsg24
F79.4
sasg38
V379940
p6848
sg40
VE-01
p6849
sa(dp6850
g8
VDINSMORE
p6851
sg10
(lp6852
(dp6853
g13
I9780470528006
sg14
VMeriam* (Sw2)
p6854
sg16
VRequired
p6855
sg18
VEngineering Mechanics Dynamic Sve W/Wiley Plus
p6856
sg20
VKit/Set/Package
p6857
sg22
g169
sg24
F123.75
sa(dp6858
g13
I9780470499788
sg14
VMeriam
p6859
sg16
VPart of Set
p6860
sg18
VEngineering Mechanics: Dynamics Sixth Ed. Update (Student Value)
p6861
sg20
VPaperback
p6862
sg22
g169
sg24
F117.5
sa(dp6863
g13
I9780470106365
sg14
VMeriam/Wiley
p6864
sg16
VPart of Set
p6865
sg18
VWiley Plus T/A Engineering Dynamics (Stand Alone Access Code)
p6866
sg20
Nsg22
Nsg24
F79.4
sasg38
V379941
p6867
sg40
VE-02
p6868
sa(dp6869
g8
VSTAFF
p6870
sg10
(lp6871
(dp6872
g13
I9780470499788
sg14
VMeriam
p6873
sg16
VRequired
p6874
sg18
VEngineering Mechanics: Dynamics Sixth Ed. Update (Student Value)
p6875
sg20
VPaperback
p6876
sg22
g169
sg24
F117.5
sasg38
V379942
p6877
sg40
VE-03
p6878
sasg38
V98014
p6879
sg40
VME316
p6880
sa(dp6881
g5
(lp6882
(dp6883
g8
VPIROOZAN
p6884
sg10
(lp6885
(dp6886
g13
I9780077300555
sg14
VBudynas (Db*)
p6887
sg16
VRequired
p6888
sg18
VShigley's Mechanical Engineering Design (Coursesmart)
p6889
sg20
Nsg22
Nsg24
F119.25
sa(dp6890
g13
I9780073529288
sg14
VBudynas
p6891
sg16
VRequired
p6892
sg18
VShigley's Mechanical Engineering Design
p6893
sg20
VHardback
p6894
sg22
g1108
sg24
F180.0
sasg38
V379943
p6895
sg40
VE-01
p6896
sasg38
V98015
p6897
sg40
VME319
p6898
sa(dp6899
g5
(lp6900
(dp6901
g8
VKIM
p6902
sg10
(lp6903
(dp6904
g13
I9780073529288
sg14
VBudynas
p6905
sg16
VRequired
p6906
sg18
VShigley's Mechanical Engineering Design
p6907
sg20
VHardback
p6908
sg22
g1108
sg24
F180.0
sa(dp6909
g13
I9780077300555
sg14
VBudynas (Db*)
p6910
sg16
VOptional
p6911
sg18
VShigley's Mechanical Engineering Design (Coursesmart)
p6912
sg20
Nsg22
Nsg24
F119.25
sasg38
V379944
p6913
sg40
VE-01
p6914
sasg38
V98016
p6915
sg40
VME325
p6916
sa(dp6917
g5
(lp6918
(dp6919
g8
VLIPOVETSKY
p6920
sg10
(lp6921
(dp6922
g13
I9780495668251
sg14
VLogan
p6923
sg16
VRequired
p6924
sg18
VFirst Course In Finite Element Method
p6925
sg20
VHardback
p6926
sg22
g412
sg24
F214.7
sa(dp6927
g13
I9781111895099
sg14
VLogan (Db*)
p6928
sg16
VOptional
p6929
sg18
VFirst Course In The Finite Element Method (Coursesmart)
p6930
sg20
VEbook
p6931
sg22
g412
sg24
F116.0
sasg38
V379948
p6932
sg40
VE-01
p6933
sasg38
V98019
p6934
sg40
VME406
p6935
sa(dp6936
g5
(lp6937
(dp6938
g8
VDINSMORE
p6939
sg10
(lp6940
(dp6941
g13
I9780470501962
sg14
VBergman
p6942
sg16
VRequired
p6943
sg18
VIntro To Heat Transfer
p6944
sg20
VHardback
p6945
sg22
g169
sg24
F218.75
sa(dp6946
g13
I9780470919620
sg14
VIncropera (Db*)
p6947
sg16
VOptional
p6948
sg18
VIntro To Heat Transfer (Coursesmart)
p6949
sg20
VEbook
p6950
sg22
g169
sg24
F116.5
sasg38
V379950
p6951
sg40
VE-01
p6952
sasg38
V98021
p6953
sg40
VME415
p6954
sa(dp6955
g5
(lp6956
(dp6957
g8
VANDERSON
p6958
sg10
(lp6959
(dp6960
g13
I9780470496626
sg14
VLee
p6961
sg16
VRequired
p6962
sg18
VThermal Design
p6963
sg20
Nsg22
Nsg24
F150.0
sa(dp6964
g13
I9780470951606
sg14
VLee (Db*)
p6965
sg16
VOptional
p6966
sg18
VThermal Design (Coursesmart)
p6967
sg20
Nsg22
Nsg24
F105.0
sasg38
V379951
p6968
sg40
VE-01
p6969
sasg38
V98022
p6970
sg40
VME427
p6971
sa(dp6972
g5
(lp6973
(dp6974
g8
VANDERSON
p6975
sg10
(lp6976
(dp6977
g13
I9780201847659
sg14
VBeckwith
p6978
sg16
VRequired
p6979
sg18
VMechanical Measurements
p6980
sg20
VHardback
p6981
sg22
g169
sg24
F183.75
sasg38
V379952
p6982
sg40
VE-01
p6983
sasg38
V98023
p6984
sg40
VME435
p6985
sa(dp6986
g5
(lp6987
(dp6988
g8
VDINSMORE
p6989
sg10
(lp6990
(dp6991
g13
I9780136024583
sg14
VDorf
p6992
sg16
VRequired
p6993
sg18
VModern Control Systems
p6994
sg20
VHardback
p6995
sg22
V12
p6996
sg24
F171.55
sa(dp6997
g13
I9780136024941
sg14
VDorf (Db*)
p6998
sg16
VOptional
p6999
sg18
VModern Control Systems (Coursesmart)
p7000
sg20
VEbook
p7001
sg22
V12
p7002
sg24
F73.0
sasg38
V379954
p7003
sg40
VE-01
p7004
sasg38
V98025
p7005
sg40
VME439
p7006
sa(dp7007
g5
(lp7008
(dp7009
g8
VSHIH
p7010
sg10
(lp7011
sg38
V379956
p7012
sg40
VE-01
p7013
sasg38
V99401
p7014
sg40
VME499
p7015
sa(dp7016
g5
(lp7017
(dp7018
g8
VREZAEI
p7019
sg10
(lp7020
sg38
V379929
p7021
sg40
VE-01
p7022
sa(dp7023
g8
VREZAEI
p7024
sg10
(lp7025
sg38
V379930
p7026
sg40
VE-02
p7027
sasg38
V98006
p7028
sg40
VME220L
p7029
sa(dp7030
g5
(lp7031
(dp7032
g8
VKIM
p7033
sg10
(lp7034
sg38
V380110
p7035
sg40
VE-01
p7036
sasg38
V99501
p7037
sg40
VME224L
p7038
sa(dp7039
g5
(lp7040
(dp7041
g8
VSHIH
p7042
sg10
(lp7043
(dp7044
g13
I9780470767856
sg14
VGilat
p7045
sg16
VRequired
p7046
sg18
VMatlab
p7047
sg20
VPaperback
p7048
sg22
g599
sg24
F104.0
sa(dp7049
g13
I9780470919491
sg14
VGilat (Db*)
p7050
sg16
VOptional
p7051
sg18
VMatlab (Coursesmart)
p7052
sg20
VEbook
p7053
sg22
g599
sg24
F50.5
sasg38
V379932
p7054
sg40
VE-01
p7055
sasg38
V98008
p7056
sg40
VME232A
p7057
sa(dp7058
g5
(lp7059
(dp7060
g8
VXUE
p7061
sg10
(lp7062
sg38
V379938
p7063
sg40
VE-01
p7064
sasg38
V98013
p7065
sg40
VME313L
p7066
sa(dp7067
g5
(lp7068
(dp7069
g8
VKIM
p7070
sg10
(lp7071
sg38
V379945
p7072
sg40
VE-01
p7073
sasg38
V98017
p7074
sg40
VME325L
p7075
sa(dp7076
g5
(lp7077
(dp7078
g8
VVALDEZ
p7079
sg10
(lp7080
sg38
V379946
p7081
sg40
VE-01
p7082
sa(dp7083
g8
VVALDEZ
p7084
sg10
(lp7085
sg38
V379947
p7086
sg40
VE-02
p7087
sasg38
V98018
p7088
sg40
VME350L
p7089
sa(dp7090
g5
(lp7091
(dp7092
g8
VLIPOVETSKY
p7093
sg10
(lp7094
sg38
V379949
p7095
sg40
VE-01
p7096
sasg38
V98020
p7097
sg40
VME406A
p7098
sa(dp7099
g5
(lp7100
(dp7101
g8
VANDERSON
p7102
sg10
(lp7103
sg38
V379953
p7104
sg40
VE-01
p7105
sasg38
V98024
p7106
sg40
VME435L
p7107
sa(dp7108
g5
(lp7109
(dp7110
g8
VDINSMORE
p7111
sg10
(lp7112
sg38
V379955
p7113
sg40
VE-01
p7114
sasg38
V98026
p7115
sg40
VME439L
p7116
sasg469
VME
p7117
sg38
V4821
p7118
sg40
VMECHANICAL ENGR
p7119
sa(dp7120
g2
(lp7121
(dp7122
g5
(lp7123
(dp7124
g8
VDAVIS JR
p7125
sg10
(lp7126
(dp7127
g13
I9781118169254
sg14
VDegarmo*
p7128
sg16
VRequired
p7129
sg18
VMaterials & Processess In Manufacturing (W/Access Code)
p7130
sg20
VSpiral
p7131
sg22
V11
p7132
sg24
F124.0
sasg38
V367852
p7133
sg40
VE-01
p7134
sasg38
V98027
p7135
sg40
VMFE201
p7136
sa(dp7137
g5
(lp7138
(dp7139
g8
VDAVIS JR
p7140
sg10
(lp7141
sg38
V367853
p7142
sg40
VE-01
p7143
sa(dp7144
g8
VDAVIS JR
p7145
sg10
(lp7146
sg38
V367854
p7147
sg40
VE-02
p7148
sasg38
V98028
p7149
sg40
VMFE201L
p7150
sasg469
VMFE
p7151
sg38
V4721
p7152
sg40
VMANUFACTURING ENGR
p7153
sa(dp7154
g2
(lp7155
(dp7156
g5
(lp7157
(dp7158
g8
VALMARAZ
p7159
sg10
(lp7160
sg38
V379957
p7161
sg40
VE-01
p7162
sasg38
V99402
p7163
sg40
VMHR201
p7164
sa(dp7165
g5
(lp7166
(dp7167
g8
VSHARIFZADEH
p7168
sg10
(lp7169
sg38
V379958
p7170
sg40
VE-01
p7171
sasg38
V99403
p7172
sg40
VMHR301
p7173
sa(dp7174
g5
(lp7175
(dp7176
g8
VDELGADO
p7177
sg10
(lp7178
(dp7179
g13
I9780538453158
sg14
VMathis
p7180
sg16
VRequired
p7181
sg18
VHuman Resource Management
p7182
sg20
VHardback
p7183
sg22
V13
p7184
sg24
F213.15
sa(dp7185
g13
I9781111547226
sg14
VMathis (Db*)
p7186
sg16
VOptional
p7187
sg18
VHuman Resource Management (Coursesmart)
p7188
sg20
VEbook
p7189
sg22
V13
p7190
sg24
F92.0
sasg38
V379959
p7191
sg40
VE-01
p7192
sasg38
V99404
p7193
sg40
VMHR311
p7194
sa(dp7195
g5
(lp7196
(dp7197
g8
VGONZALEZ
p7198
sg10
(lp7199
sg38
V379960
p7200
sg40
VE-01
p7201
sa(dp7202
g8
VMax
p7203
sg10
(lp7204
(dp7205
g13
I9781118129319
sg14
VSchermerhorn
p7206
sg16
VRequired
p7207
sg18
VOrganizational Behavior (Looseleaf)
p7208
sg20
VLooseleaf
p7209
sg22
V12
p7210
sg24
F138.75
sasg38
V379961
p7211
sg40
VE-02
p7212
sasg38
V99405
p7213
sg40
VMHR318
p7214
sa(dp7215
g5
(lp7216
(dp7217
g8
VWORSHAM
p7218
sg10
(lp7219
(dp7220
g13
I9781133430339
sg14
VLongenecker*
p7221
sg16
VRequired
p7222
sg18
VSmall Business Management W/Management Coursemate & E-Book Acccess
p7223
sg20
VKit/Set/Package
p7224
sg22
V16
p7225
sg24
F155.8
sa(dp7226
g13
I9781111532871
sg14
VLongenecker
p7227
sg16
VPart of Set
p7228
sg18
VSmall Business Mgmt
p7229
sg20
VHardback
p7230
sg22
V16
p7231
sg24
F227.2
sa(dp7232
g13
I9781111578343
sg14
VLongenecker
p7233
sg16
VPart of Set
p7234
sg18
VManagement Coursemate W/E-Book (Access Card)
p7235
sg20
Nsg22
Nsg24
F112.05
sasg38
V379962
p7236
sg40
VE-01
p7237
sasg38
V99406
p7238
sg40
VMHR320
p7239
sa(dp7240
g5
(lp7241
(dp7242
g8
VWORSHAM
p7243
sg10
(lp7244
(dp7245
g13
I9781111821227
sg14
VGuffey
p7246
sg16
VRequired
p7247
sg18
VEssentials Of Business Communication
p7248
sg20
VPaperback
p7249
sg22
g1108
sg24
F162.8
sa(dp7250
g13
I9781133473459
sg14
VGuffey (Db*)
p7251
sg16
VOptional
p7252
sg18
VEssentials Of Business Communication (Coursesmart)
p7253
sg20
Nsg22
Nsg24
F80.5
sasg38
V379963
p7254
sg40
VE-01
p7255
sasg38
V99407
p7256
sg40
VMHR324
p7257
sa(dp7258
g5
(lp7259
(dp7260
g8
VMax
p7261
sg10
(lp7262
sg38
V379964
p7263
sg40
VE-01
p7264
sasg38
V99408
p7265
sg40
VMHR401
p7266
sa(dp7267
g5
(lp7268
(dp7269
g8
VDELGADO
p7270
sg10
(lp7271
(dp7272
g13
I9780136078326
sg14
VBlanchard
p7273
sg16
VRequired
p7274
sg18
VEffective Training
p7275
sg20
VPaperback
p7276
sg22
g599
sg24
F134.5
sa(dp7277
g13
I9780136078371
sg14
VBlanchard (Db*)
p7278
sg16
VOptional
p7279
sg18
VEffective Training (Coursesmart Digital)
p7280
sg20
VEbook
p7281
sg22
g599
sg24
F57.0
sasg38
V379965
p7282
sg40
VE-01
p7283
sasg38
V99409
p7284
sg40
VMHR405
p7285
sa(dp7286
g5
(lp7287
(dp7288
g8
VWATERS
p7289
sg10
(lp7290
(dp7291
g13
I9781121523715
sg14
VWaters
p7292
sg16
VRequired
p7293
sg18
VStrategic Management (Mhr 410 - Summer/Fall 2012)
p7294
sg20
Nsg22
Nsg24
F0.0
sasg38
V379966
p7295
sg40
VE-01
p7296
sasg38
V99410
p7297
sg40
VMHR410
p7298
sa(dp7299
g5
(lp7300
(dp7301
g8
VALMARAZ
p7302
sg10
(lp7303
sg38
V379967
p7304
sg40
VE-01
p7305
sasg38
V99411
p7306
sg40
VMHR441
p7307
sa(dp7308
g5
(lp7309
(dp7310
g8
VSTAFF
p7311
sg10
(lp7312
sg38
V379968
p7313
sg40
VE-01
p7314
sasg38
V99412
p7315
sg40
VMHR442
p7316
sa(dp7317
g5
(lp7318
(dp7319
g8
VEdward
p7320
sg10
(lp7321
(dp7322
g13
I9781578514861
sg14
VGoleman
p7323
sg16
VRequired
p7324
sg18
VPrimal Leadership
p7325
sg20
Nsg22
Nsg24
F26.95
sa(dp7326
g13
I9780060835910
sg14
VRock
p7327
sg16
VRequired
p7328
sg18
VQuiet Leadership
p7329
sg20
Nsg22
Nsg24
F16.0
sa(dp7330
g13
I9780787984915
sg14
VKouzes
p7331
sg16
VRequired
p7332
sg18
VLeadership Challenge
p7333
sg20
VHardback
p7334
sg22
g599
sg24
F29.95
sasg38
V379969
p7335
sg40
VE-01
p7336
sasg38
V99413
p7337
sg40
VMHR450
p7338
sasg469
VMHR
p7339
sg38
V4823
p7340
sg40
VMGMT & HUMAN RESOUR
p7341
sa(dp7342
g2
(lp7343
(dp7344
g5
(lp7345
(dp7346
g8
VSTATHOPOULOS
p7347
sg10
(lp7348
(dp7349
g13
I9780878936854
sg14
VStaley
p7350
sg16
VRequired
p7351
sg18
VMicrobial Life
p7352
sg20
VHardback
p7353
sg22
g515
sg24
F144.95
sasg38
V367855
p7354
sg40
VE-01
p7355
sasg38
V98029
p7356
sg40
VMIC201
p7357
sa(dp7358
g5
(lp7359
(dp7360
g8
VSTAFF
p7361
sg10
(lp7362
sg38
V367856
p7363
sg40
VE-01
p7364
sa(dp7365
g8
VSTAFF
p7366
sg10
(lp7367
sg38
V367857
p7368
sg40
VE-02
p7369
sa(dp7370
g8
VSTAFF
p7371
sg10
(lp7372
sg38
V367858
p7373
sg40
VE-04
p7374
sasg38
V98030
p7375
sg40
VMIC201L
p7376
sasg469
VMIC
p7377
sg38
V4814
p7378
sg40
VMICROBIOLOGY
p7379
sa(dp7380
g2
(lp7381
(dp7382
g5
(lp7383
(dp7384
g8
VEMERSON
p7385
sg10
(lp7386
sg38
V379970
p7387
sg40
VE-01
p7388
sasg38
V99425
p7389
sg40
VMPA599
p7390
sasg469
VMPA
p7391
sg38
V4824
p7392
sg40
VMASTERS OF PUBLIC AD
p7393
sa(dp7394
g2
(lp7395
(dp7396
g5
(lp7397
(dp7398
g8
VRAVI
p7399
sg10
(lp7400
sg38
V383411
p7401
sg40
V01
p7402
sasg38
V100773
p7403
sg40
VMTE207
p7404
sasg469
VMTE
p7405
sg38
V4726
p7406
sg40
VMATERIALS ENGR
p7407
sa(dp7408
g2
(lp7409
(dp7410
g5
(lp7411
(dp7412
g8
VKOPPLIN
p7413
sg10
(lp7414
(dp7415
g13
I9780977927685
sg14
VConnect Ed
p7416
sg16
VRequired
p7417
sg18
VOn Music Fundamentals Access Code Card
p7418
sg20
Nsg22
Nsg24
F106.25
sasg38
V379971
p7419
sg40
VE-01
p7420
sasg38
V99414
p7421
sg40
VMU100
p7422
sa(dp7423
g5
(lp7424
(dp7425
g8
VWINER
p7426
sg10
(lp7427
(dp7428
g13
I9780634009594
sg14
VThompson
p7429
sg16
VRequired
p7430
sg18
VUnderstanding Audio
p7431
sg20
Nsg22
Nsg24
F25.0
sa(dp7432
g13
I9780240811444
sg14
VBartlett
p7433
sg16
VRequired
p7434
sg18
VPractical Recording Techniques
p7435
sg20
VPaperback
p7436
sg22
g412
sg24
F46.95
sasg38
V379972
p7437
sg40
VE-13
p7438
sasg38
V99415
p7439
sg40
VMU228
p7440
sa(dp7441
g5
(lp7442
(dp7443
g8
VHUFF
p7444
sg10
(lp7445
sg38
V379973
p7446
sg40
VE-02
p7447
sasg38
V99346
p7448
sg40
VMU310
p7449
sa(dp7450
g5
(lp7451
(dp7452
g8
VWINER
p7453
sg10
(lp7454
sg38
V380111
p7455
sg40
VE-01
p7456
sasg38
V99416
p7457
sg40
VMU392
p7458
sasg469
VMU
p7459
sg38
V4727
p7460
sg40
VMUSIC
p7461
sa(dp7462
g2
(lp7463
(dp7464
g5
(lp7465
(dp7466
g8
VMARKLE
p7467
sg10
(lp7468
(dp7469
g13
I9780495603955
sg14
VSinnott-Armstrong
p7470
sg16
VRequired
p7471
sg18
VUnderstanding Arguments:An Introduction To Informal Log
p7472
sg20
VPaperback
p7473
sg22
g23
sg24
F70.5
sa(dp7474
g13
I9781439023846
sg14
VSinnott-Armstrong (Db*)
p7475
sg16
VOptional
p7476
sg18
VUnderstanding Arguments (Coursesmart)
p7477
sg20
VEbook
p7478
sg22
g23
sg24
F44.5
sasg38
V370486
p7479
sg40
V01
p7480
sasg38
V99349
p7481
sg40
VPHL202
p7482
sasg469
VPHL
p7483
sg38
V4728
p7484
sg40
VPHILOSOPHY
p7485
sa(dp7486
g2
(lp7487
(dp7488
g5
(lp7489
(dp7490
g8
VNawpar
p7491
sg10
(lp7492
(dp7493
g13
I9781256366041
sg14
VWalker*
p7494
sg16
VRequired
p7495
sg18
VPhysics Vol 1 W/Mastering Physics & 2011-2012 Iclicker Rebate
p7496
sg20
VKit/Set/Package
p7497
sg22
g599
sg24
F141.4
sa(dp7498
g13
I9781256366034
sg14
VWalker*
p7499
sg16
VRequired
p7500
sg18
VPhysics W/Mastering Physics & 2011-2012 Iclicker Rebate
p7501
sg20
VKit/Set/Package
p7502
sg22
g599
sg24
F212.5
sa(dp7503
g13
I9780321611130
sg14
VWalker
p7504
sg16
VPart of Set
p7505
sg18
VPhysics Vol I
p7506
sg20
VPaperback
p7507
sg22
g599
sg24
F113.75
sa(dp7508
g13
I9780321611116
sg14
VWalker
p7509
sg16
VPart of Set
p7510
sg18
VPhysics
p7511
sg20
VHardback
p7512
sg22
g599
sg24
F163.0
sa(dp7513
g13
I9780558422882
sg14
VWalker
p7514
sg16
VPart of Set
p7515
sg18
VMastering Physics T/A Physics (No Ebook)
p7516
sg20
Nsg22
Nsg24
F59.5
sasg38
V367859
p7517
sg40
VE-01
p7518
sasg38
V98031
p7519
sg40
VPHY121
p7520
sa(dp7521
g5
(lp7522
(dp7523
g8
VRhee
p7524
sg10
(lp7525
(dp7526
g13
I9781256366041
sg14
VWalker*
p7527
sg16
VRequired
p7528
sg18
VPhysics Vol 1 W/Mastering Physics & 2011-2012 Iclicker Rebate
p7529
sg20
VKit/Set/Package
p7530
sg22
g599
sg24
F141.4
sa(dp7531
g13
I9781256366034
sg14
VWalker*
p7532
sg16
VRequired
p7533
sg18
VPhysics W/Mastering Physics & 2011-2012 Iclicker Rebate
p7534
sg20
VKit/Set/Package
p7535
sg22
g599
sg24
F212.5
sa(dp7536
g13
I9781256363415
sg14
VWalker*
p7537
sg16
VRequired
p7538
sg18
VPhysics Vol. 2 W/Masteringphysics & 2011-12 Iclicker Rebate
p7539
sg20
VKit/Set/Package
p7540
sg22
g599
sg24
F135.0
sa(dp7541
g13
I9780321611130
sg14
VWalker
p7542
sg16
VPart of Set
p7543
sg18
VPhysics Vol I
p7544
sg20
VPaperback
p7545
sg22
g599
sg24
F113.75
sa(dp7546
g13
I9780321611116
sg14
VWalker
p7547
sg16
VPart of Set
p7548
sg18
VPhysics
p7549
sg20
VHardback
p7550
sg22
g599
sg24
F163.0
sa(dp7551
g13
I9780321611123
sg14
VWalker
p7552
sg16
VPart of Set
p7553
sg18
VPhysics Vol Ii
p7554
sg20
VPaperback
p7555
sg22
g599
sg24
F111.6
sasg38
V367861
p7556
sg40
VE-01
p7557
sasg38
V98033
p7558
sg40
VPHY122
p7559
sa(dp7560
g5
(lp7561
(dp7562
g8
VKhakpour
p7563
sg10
(lp7564
(dp7565
g13
I9781256366034
sg14
VWalker*
p7566
sg16
VRequired
p7567
sg18
VPhysics W/Mastering Physics & 2011-2012 Iclicker Rebate
p7568
sg20
VKit/Set/Package
p7569
sg22
g599
sg24
F212.5
sa(dp7570
g13
I9781256363415
sg14
VWalker*
p7571
sg16
VRequired
p7572
sg18
VPhysics Vol. 2 W/Masteringphysics & 2011-12 Iclicker Rebate
p7573
sg20
VKit/Set/Package
p7574
sg22
g599
sg24
F135.0
sa(dp7575
g13
I9780321601995
sg14
VWalker
p7576
sg16
VOptional
p7577
sg18
VPhysics Vol 2 Sg & Solutions Manual
p7578
sg20
VPaperback
p7579
sg22
g599
sg24
F32.2
sa(dp7580
g13
I9780321611116
sg14
VWalker
p7581
sg16
VPart of Set
p7582
sg18
VPhysics
p7583
sg20
VHardback
p7584
sg22
g599
sg24
F163.0
sa(dp7585
g13
I9780321611123
sg14
VWalker
p7586
sg16
VPart of Set
p7587
sg18
VPhysics Vol Ii
p7588
sg20
VPaperback
p7589
sg22
g599
sg24
F111.6
sasg38
V367863
p7590
sg40
VE-01
p7591
sasg38
V98035
p7592
sg40
VPHY123
p7593
sa(dp7594
g5
(lp7595
(dp7596
g8
VLAM
p7597
sg10
(lp7598
(dp7599
g13
I9781118309193
sg14
VHalliday (Sw2)
p7600
sg16
VRequired
p7601
sg18
VFundamentals Of Physics Vol 1 For Csupomona W/ Wiley Plus
p7602
sg20
VKit/Set/Package
p7603
sg22
g1108
sg24
F120.65
sa(dp7604
g13
I9781118144374
sg14
VHalliday
p7605
sg16
VPart of Set
p7606
sg18
VFundamentals Of Physics Cpp Custom Qtr 1-3 (Ch 1-30)
p7607
sg20
VLooseleaf
p7608
sg22
g1108
sg24
F114.0
sa(dp7609
g13
I9780470524725
sg14
VHalliday/Wiley
p7610
sg16
VPart of Set
p7611
sg18
VWiley Plus Access Card T/A Fundamenta S Of Physics
p7612
sg20
VAccess Code
p7613
sg22
g1108
sg24
F100.0
sasg38
V367865
p7614
sg40
VE-01
p7615
sasg38
V98037
p7616
sg40
VPHY131
p7617
sa(dp7618
g5
(lp7619
(dp7620
g8
VCHRISTENSEN  JR
p7621
sg10
(lp7622
(dp7623
g13
I9781118309193
sg14
VHalliday (Sw2)
p7624
sg16
VRequired
p7625
sg18
VFundamentals Of Physics Vol 1 For Csupomona W/ Wiley Plus
p7626
sg20
VKit/Set/Package
p7627
sg22
g1108
sg24
F120.65
sa(dp7628
g13
I9781118144374
sg14
VHalliday
p7629
sg16
VPart of Set
p7630
sg18
VFundamentals Of Physics Cpp Custom Qtr 1-3 (Ch 1-30)
p7631
sg20
VLooseleaf
p7632
sg22
g1108
sg24
F114.0
sa(dp7633
g13
I9780470524725
sg14
VHalliday/Wiley
p7634
sg16
VPart of Set
p7635
sg18
VWiley Plus Access Card T/A Fundamenta S Of Physics
p7636
sg20
VAccess Code
p7637
sg22
g1108
sg24
F100.0
sasg38
V367867
p7638
sg40
VE-01
p7639
sasg38
V98039
p7640
sg40
VPHY132
p7641
sa(dp7642
g5
(lp7643
(dp7644
g8
VMYLANDER
p7645
sg10
(lp7646
(dp7647
g13
I9781118309193
sg14
VHalliday (Sw2)
p7648
sg16
VRequired
p7649
sg18
VFundamentals Of Physics Vol 1 For Csupomona W/ Wiley Plus
p7650
sg20
VKit/Set/Package
p7651
sg22
g1108
sg24
F120.65
sa(dp7652
g13
I9781118144374
sg14
VHalliday
p7653
sg16
VPart of Set
p7654
sg18
VFundamentals Of Physics Cpp Custom Qtr 1-3 (Ch 1-30)
p7655
sg20
VLooseleaf
p7656
sg22
g1108
sg24
F114.0
sa(dp7657
g13
I9780470524725
sg14
VHalliday/Wiley
p7658
sg16
VPart of Set
p7659
sg18
VWiley Plus Access Card T/A Fundamenta S Of Physics
p7660
sg20
VAccess Code
p7661
sg22
g1108
sg24
F100.0
sasg38
V367869
p7662
sg40
VE-01
p7663
sasg38
V98041
p7664
sg40
VPHY133
p7665
sa(dp7666
g5
(lp7667
(dp7668
g8
VShareghi
p7669
sg10
(lp7670
sg38
V367860
p7671
sg40
VE-11
p7672
sa(dp7673
g8
VSTAFF,
p7674
sg10
(lp7675
sg38
V379816
p7676
sg40
VE-12
p7677
sasg38
V98032
p7678
sg40
VPHY121L
p7679
sa(dp7680
g5
(lp7681
(dp7682
g8
VRhee
p7683
sg10
(lp7684
sg38
V367862
p7685
sg40
VE-11
p7686
sa(dp7687
g8
VSTAFF,
p7688
sg10
(lp7689
sg38
V379817
p7690
sg40
VE-12
p7691
sasg38
V98034
p7692
sg40
VPHY122L
p7693
sa(dp7694
g5
(lp7695
(dp7696
g8
VKhakpour
p7697
sg10
(lp7698
sg38
V367864
p7699
sg40
VE-11
p7700
sa(dp7701
g8
VSTAFF,
p7702
sg10
(lp7703
sg38
V379818
p7704
sg40
VE-12
p7705
sasg38
V98036
p7706
sg40
VPHY123L
p7707
sa(dp7708
g5
(lp7709
(dp7710
g8
VLAM
p7711
sg10
(lp7712
sg38
V367866
p7713
sg40
VE-11
p7714
sa(dp7715
g8
VSTAFF,
p7716
sg10
(lp7717
sg38
V379819
p7718
sg40
VE-12
p7719
sasg38
V98038
p7720
sg40
VPHY131L
p7721
sa(dp7722
g5
(lp7723
(dp7724
g8
VBenzahra
p7725
sg10
(lp7726
sg38
V367868
p7727
sg40
VE-11
p7728
sa(dp7729
g8
VBenzahra
p7730
sg10
(lp7731
sg38
V379820
p7732
sg40
VE-12
p7733
sasg38
V98040
p7734
sg40
VPHY132L
p7735
sa(dp7736
g5
(lp7737
(dp7738
g8
VMYLANDER
p7739
sg10
(lp7740
sg38
V367870
p7741
sg40
VE-11
p7742
sa(dp7743
g8
VSTAFF,
p7744
sg10
(lp7745
sg38
V379821
p7746
sg40
VE-12
p7747
sasg38
V98042
p7748
sg40
VPHY133L
p7749
sasg469
VPHY
p7750
sg38
V4828
p7751
sg40
VPHYSICS
p7752
sa(dp7753
g2
(lp7754
(dp7755
g5
(lp7756
(dp7757
g8
VREESE
p7758
sg10
(lp7759
(dp7760
g13
I9780759392809
sg14
VSquire
p7761
sg16
VRequired
p7762
sg18
VDynamics Of Democracy
p7763
sg20
VPaperback
p7764
sg22
g412
sg24
F92.5
sasg38
V379975
p7765
sg40
VE-01
p7766
sa(dp7767
g8
VREESE
p7768
sg10
(lp7769
sg38
V383412
p7770
sg40
VE-02
p7771
sasg38
V99417
p7772
sg40
VPLS201
p7773
sa(dp7774
g5
(lp7775
(dp7776
g8
VEMERSON
p7777
sg10
(lp7778
sg38
V379977
p7779
sg40
VE-01
p7780
sasg38
V99419
p7781
sg40
VPLS205
p7782
sa(dp7783
g5
(lp7784
(dp7785
g8
VREESE
p7786
sg10
(lp7787
sg38
V379979
p7788
sg40
VE-01
p7789
sa(dp7790
g8
VREESE
p7791
sg10
(lp7792
sg38
V383413
p7793
sg40
VE-02
p7794
sasg38
V99421
p7795
sg40
VPLS382
p7796
sa(dp7797
g5
(lp7798
(dp7799
g8
VEMERSON
p7800
sg10
(lp7801
sg38
V379978
p7802
sg40
VE-01
p7803
sasg38
V99420
p7804
sg40
VPLS205A
p7805
sasg469
VPLS
p7806
sg38
V4825
p7807
sg40
VPOLITICAL SCIENCE
p7808
sa(dp7809
g2
(lp7810
(dp7811
g5
(lp7812
(dp7813
g8
VKaufmann
p7814
sg10
(lp7815
(dp7816
g13
I9780738003351
sg14
VKaae
p7817
sg16
VRequired
p7818
sg18
VTravels With My Antlion (Agb 300)
p7819
sg20
VSpiral
p7820
sg22
V5R
p7821
sg24
F44.55
sasg38
V370485
p7822
sg40
VE-01
p7823
sasg38
V99348
p7824
sg40
VPLT300
p7825
sasg469
VPLT
p7826
sg38
V4826
p7827
sg40
VPLANT SCIENCES
p7828
sa(dp7829
g2
(lp7830
(dp7831
g5
(lp7832
(dp7833
g8
VTHOMAS
p7834
sg10
(lp7835
(dp7836
g13
I9781133618904
sg14
VWeiten*
p7837
sg16
VRequired
p7838
sg18
VPsychology Applied To Modern Life (Loose Leaf) W/Custom Webtutor On Blackboard
p7839
sg20
VKit/Set/Package
p7840
sg22
V10
p7841
sg24
F124.0
sa(dp7842
g13
I9781111561352
sg14
VWeiten (Db*)
p7843
sg16
VOptional
p7844
sg18
VPsychology Applied To Modern Life (Coursesmart)
p7845
sg20
VEbook
p7846
sg22
V10
p7847
sg24
F90.0
sa(dp7848
g13
I9781133445265
sg14
VCengage/Weiten*
p7849
sg16
VPart of Set
p7850
sg18
VAcp Pac Cc On Bl Psych Applied To Mod Life Webutor Access
p7851
sg20
VAccess Code
p7852
sg22
V10
p7853
sg24
F25.0
sa(dp7854
g13
I9781111297985
sg14
VWeiten
p7855
sg16
VPart of Set
p7856
sg18
VPsychology Applied To Modern Life Advantage Series (Loose Leaf)
p7857
sg20
VPaperback
p7858
sg22
V10
p7859
sg24
F108.35
sasg38
V367871
p7860
sg40
VE-01
p7861
sasg38
V98043
p7862
sg40
VPSY201
p7863
sa(dp7864
g5
(lp7865
(dp7866
g8
VVon Glahn
p7867
sg10
(lp7868
(dp7869
g13
I9780470392225
sg14
VWitte
p7870
sg16
VRequired
p7871
sg18
VStatistics
p7872
sg20
VHardback
p7873
sg22
g1108
sg24
F182.5
sa(dp7874
g13
I9780470566114
sg14
VWitte (Db*)
p7875
sg16
VOptional
p7876
sg18
VStatistics (Coursesmart Digital)
p7877
sg20
VEbook
p7878
sg22
g1108
sg24
F93.5
sasg38
V367873
p7879
sg40
VE-01
p7880
sasg38
V98044
p7881
sg40
VPSY307
p7882
sa(dp7883
g5
(lp7884
(dp7885
g8
VSTURGES
p7886
sg10
(lp7887
(dp7888
g13
I9780078035197
sg14
VTaylor
p7889
sg16
VRequired
p7890
sg18
VHealth Psychology
p7891
sg20
VHardback
p7892
sg22
g23
sg24
F181.25
sa(dp7893
g13
I9780077378318
sg14
VTaylor (Db*)
p7894
sg16
VOptional
p7895
sg18
VHealth Psychology (Coursesmart)
p7896
sg20
VEbook
p7897
sg22
g23
sg24
F95.0
sasg38
V367875
p7898
sg40
VE-01
p7899
sasg38
V98046
p7900
sg40
VPSY326
p7901
sa(dp7902
g5
(lp7903
(dp7904
g8
VHORNER
p7905
sg10
(lp7906
(dp7907
g13
I9780205579808
sg14
VFoley
p7908
sg16
VRequired
p7909
sg18
VSensation & Perception
p7910
sg20
VHardback
p7911
sg22
g412
sg24
F130.4
sa(dp7912
g13
I9780205654376
sg14
VFoley (Db*)
p7913
sg16
VOptional
p7914
sg18
VSensation & Perception (Coursesmart)
p7915
sg20
VEbook
p7916
sg22
g412
sg24
F51.0
sasg38
V367876
p7917
sg40
VE-01
p7918
sasg38
V98047
p7919
sg40
VPSY460
p7920
sa(dp7921
g5
(lp7922
(dp7923
g8
VVon Glahn
p7924
sg10
(lp7925
sg38
V367874
p7926
sg40
VE-01
p7927
sasg38
V98045
p7928
sg40
VPSY307A
p7929
sa(dp7930
g5
(lp7931
(dp7932
g8
VHORNER
p7933
sg10
(lp7934
sg38
V367877
p7935
sg40
VE-01
p7936
sasg38
V98048
p7937
sg40
VPSY460A
p7938
sasg469
VPSY
p7939
sg38
V4829
p7940
sg40
VPSYCHOLOGY
p7941
sa(dp7942
g2
(lp7943
(dp7944
g5
(lp7945
(dp7946
g8
VSTAFF
p7947
sg10
(lp7948
(dp7949
g13
I9780495094685
sg14
VBabbie
p7950
sg16
VRequired
p7951
sg18
VBasics Of Social Research
p7952
sg20
VPaperback
p7953
sg22
g599
sg24
F118.35
sa(dp7954
g13
I9780495517467
sg14
VBabbie (Db*)
p7955
sg16
VOptional
p7956
sg18
VThe Basics Of Social Research (Coursesmart)
p7957
sg20
VEbook
p7958
sg22
g599
sg24
F60.0
sasg38
V367878
p7959
sg40
VE-01
p7960
sasg38
V98049
p7961
sg40
VSOC204
p7962
sa(dp7963
g5
(lp7964
(dp7965
g8
VSTAFF
p7966
sg10
(lp7967
(dp7968
g13
I9780761929949
sg14
VBeckett
p7969
sg16
VRequired
p7970
sg18
VPolitics Of Injustice
p7971
sg20
VPaperback
p7972
sg22
g515
sg24
F53.0
sa(dp7973
g13
I9780802141446
sg14
VShakur
p7974
sg16
VRequired
p7975
sg18
VMonster
p7976
sg20
Nsg22
Nsg24
F14.95
sa(dp7977
g13
I9781583227435
sg14
VLoo
p7978
sg16
VRequired
p7979
sg18
VImpeach The President
p7980
sg20
VPaperback
p7981
sg22
V97
p7982
sg24
F17.95
sa(dp7983
g13
I9780132350068
sg14
VBarkan
p7984
sg16
VRequired
p7985
sg18
VCriminology
p7986
sg20
VHardback
p7987
sg22
g599
sg24
F120.05
sa(dp7988
g13
I9780135031834
sg14
VBarkan (Db*)
p7989
sg16
VOptional
p7990
sg18
VCriminology (Coursesmart Digital)
p7991
sg20
VEbook
p7992
sg22
g599
sg24
F64.0
sasg38
V367879
p7993
sg40
VE-01
p7994
sasg38
V98050
p7995
sg40
VSOC302
p7996
sasg469
VSOC
p7997
sg38
V4830
p7998
sg40
VSOCIOLOGY
p7999
sa(dp8000
g2
(lp8001
(dp8002
g5
(lp8003
(dp8004
g8
VDICKSON
p8005
sg10
(lp8006
(dp8007
g13
I9781428250246
sg14
VLong* (Sw2)
p8008
sg16
VRequired
p8009
sg18
VNexos Custom Vol 1 W/Ilrn Access Code
p8010
sg20
VKit/Set/Package
p8011
sg22
g515
sg24
F125.6
sa(dp8012
g13
I9781111006990
sg14
VLong*
p8013
sg16
VPart of Set
p8014
sg18
VNexos Custom Vol 1  (Acp For Cpp) 1111006997
p8015
sg20
VPaperback
p8016
sg22
g515
sg24
F80.0
sasg38
V367880
p8017
sg40
VE-01
p8018
sa(dp8019
g8
VVogel
p8020
sg10
(lp8021
(dp8022
g13
I9781428250246
sg14
VLong* (Sw2)
p8023
sg16
VRequired
p8024
sg18
VNexos Custom Vol 1 W/Ilrn Access Code
p8025
sg20
VKit/Set/Package
p8026
sg22
g515
sg24
F125.6
sa(dp8027
g13
I9781111006990
sg14
VLong*
p8028
sg16
VPart of Set
p8029
sg18
VNexos Custom Vol 1  (Acp For Cpp) 1111006997
p8030
sg20
VPaperback
p8031
sg22
g515
sg24
F80.0
sasg38
V367881
p8032
sg40
VE-02
p8033
sasg38
V98051
p8034
sg40
VSPN151
p8035
sasg469
VSPN
p8036
sg38
V4736
p8037
sg40
VSPANISH
p8038
sa(dp8039
g2
(lp8040
(dp8041
g5
(lp8042
(dp8043
g8
VKIM
p8044
sg10
(lp8045
(dp8046
g13
I9781118299876
sg14
VMann
p8047
sg16
VRequired
p8048
sg18
VStatistics (Custom)
p8049
sg20
VPaperback
p8050
sg22
g75
sg24
F105.35
sasg38
V367882
p8051
sg40
VE-01
p8052
sa(dp8053
g8
VGILL
p8054
sg10
(lp8055
(dp8056
g13
I9781118299876
sg14
VMann
p8057
sg16
VRequired
p8058
sg18
VStatistics (Custom)
p8059
sg20
VPaperback
p8060
sg22
g75
sg24
F105.35
sasg38
V367883
p8061
sg40
VE-02
p8062
sa(dp8063
g8
VGILL
p8064
sg10
(lp8065
(dp8066
g13
I9781118299876
sg14
VMann
p8067
sg16
VRequired
p8068
sg18
VStatistics (Custom)
p8069
sg20
VPaperback
p8070
sg22
g75
sg24
F105.35
sasg38
V367884
p8071
sg40
VE-03
p8072
sasg38
V98052
p8073
sg40
VSTA120
p8074
sa(dp8075
g5
(lp8076
(dp8077
g8
VGILL
p8078
sg10
(lp8079
(dp8080
g13
I9780321640772
sg14
VJohnson
p8081
sg16
VRequired
p8082
sg18
VMiller & Freund's Prob & Stats For Engineers
p8083
sg20
VHardback
p8084
sg22
g23
sg24
F150.0
sa(dp8085
g13
I9780321641724
sg14
VJohnson (Db*)
p8086
sg16
VOptional
p8087
sg18
VMiller & Freunds Probability & Statistics For Engrs (Coursesmart)
p8088
sg20
VEbook
p8089
sg22
g23
sg24
F64.0
sasg38
V367885
p8090
sg40
VE-01
p8091
sasg38
V98053
p8092
sg40
VSTA309
p8093
sasg469
VSTA
p8094
sg38
V4739
p8095
sg40
VSTATISTICS
p8096
sa(dp8097
g2
(lp8098
(dp8099
g5
(lp8100
(dp8101
g8
VDjonne
p8102
sg10
(lp8103
(dp8104
g13
I9780534274252
sg14
VWiseman
p8105
sg16
VRequired
p8106
sg18
VBecoming A Teacher In A Field-Based Setting
p8107
sg20
VPaperback
p8108
sg22
g115
sg24
F118.65
sa(dp8109
g13
I9780805880502
sg14
VZeichner
p8110
sg16
VRequired
p8111
sg18
VReflective Teaching
p8112
sg20
Nsg22
Nsg24
F22.95
sasg38
V367886
p8113
sg40
VE-01
p8114
sasg38
V98054
p8115
sg40
VTED405
p8116
sa(dp8117
g5
(lp8118
(dp8119
g8
VFINE
p8120
sg10
(lp8121
(dp8122
g13
I9780205459469
sg14
VWoolfolk
p8123
sg16
VRequired
p8124
sg18
VEducational Psychology
p8125
sg20
VPaperback
p8126
sg22
V10
p8127
sg24
F152.5
sa(dp8128
g13
I9780137144549
sg14
VWoolfolk
p8129
sg16
VRequired
p8130
sg18
VEducational Psychology
p8131
sg20
VPaperback
p8132
sg22
V11
p8133
sg24
F148.75
sa(dp8134
g13
I9780136064138
sg14
VWoolfolk (Db*)
p8135
sg16
VOptional
p8136
sg18
VEducational Psychology (Coursesmart)
p8137
sg20
VEbook
p8138
sg22
V11
p8139
sg24
F100.0
sa(dp8140
g13
I9780137034666
sg14
VCharles (Db*)
p8141
sg16
VOptional
p8142
sg18
VBuilding Classroom Discipline (Coursesmart)
p8143
sg20
VEbook
p8144
sg22
V10
p8145
sg24
F35.0
sa(dp8146
g13
I9780137034055
sg14
VCharles
p8147
sg16
VOptional
p8148
sg18
VBuilding Classroom Discipline
p8149
sg20
VPaperback
p8150
sg22
V10
p8151
sg24
F86.65
sasg38
V367887
p8152
sg40
VE-01
p8153
sasg38
V98055
p8154
sg40
VTED406
p8155
sa(dp8156
g5
(lp8157
(dp8158
g8
VNAVARRO
p8159
sg10
(lp8160
sg38
V367888
p8161
sg40
VE-01
p8162
sasg38
V98056
p8163
sg40
VTED407
p8164
sa(dp8165
g5
(lp8166
(dp8167
g8
VSTAFF
p8168
sg10
(lp8169
sg38
V380207
p8170
sg40
V01
p8171
sasg38
V100649
p8172
sg40
VTED441
p8173
sasg469
VTED
p8174
sg38
V4831
p8175
sg40
VTEACHER EDUCATION
p8176
sa(dp8177
g2
(lp8178
(dp8179
g5
(lp8180
(dp8181
g8
VBISESTI
p8182
sg10
(lp8183
sg38
V379982
p8184
sg40
VE-01
p8185
sasg38
V99424
p8186
sg40
VTH441L
p8187
sasg469
VTH
p8188
sg38
V4742
p8189
sg40
VTHEATRE
p8190
sa(dp8191
g2
(lp8192
(dp8193
g5
(lp8194
(dp8195
g8
VXU
p8196
sg10
(lp8197
(dp8198
g13
I9780538479134
sg14
VCollier
p8199
sg16
VRequired
p8200
sg18
VOm 3 Student Ed
p8201
sg20
VPaperback
p8202
sg22
g115
sg24
F59.95
sa(dp8203
g13
I9781133148678
sg14
VCollier (Db*)
p8204
sg16
VOptional
p8205
sg18
VOm (Coursesmart)
p8206
sg20
VEbook
p8207
sg22
g115
sg24
F60.0
sasg38
V367889
p8208
sg40
VE-01
p8209
sa(dp8210
g8
VXU
p8211
sg10
(lp8212
(dp8213
g13
I9780538479134
sg14
VCollier
p8214
sg16
VRequired
p8215
sg18
VOm 3 Student Ed
p8216
sg20
VPaperback
p8217
sg22
g115
sg24
F59.95
sa(dp8218
g13
I9781133148678
sg14
VCollier (Db*)
p8219
sg16
VOptional
p8220
sg18
VOm (Coursesmart)
p8221
sg20
VEbook
p8222
sg22
g115
sg24
F60.0
sasg38
V367890
p8223
sg40
VE-02
p8224
sa(dp8225
g8
VSTAFF
p8226
sg10
(lp8227
sg38
V380208
p8228
sg40
VE-03
p8229
sasg38
V98057
p8230
sg40
VTOM301
p8231
sa(dp8232
g5
(lp8233
(dp8234
g8
VHE
p8235
sg10
(lp8236
(dp8237
g13
I9781111634261
sg14
VWeiers* (Cp)
p8238
sg16
VRequired
p8239
sg18
VManagerial Statistics Custom Ed
p8240
sg20
VLooseleaf
p8241
sg22
g75
sg24
F150.0
sasg38
V367891
p8242
sg40
VE-01
p8243
sa(dp8244
g8
VCO
p8245
sg10
(lp8246
(dp8247
g13
I9781111634261
sg14
VWeiers* (Cp)
p8248
sg16
VRequired
p8249
sg18
VManagerial Statistics Custom Ed
p8250
sg20
VLooseleaf
p8251
sg22
g75
sg24
F150.0
sasg38
V367892
p8252
sg40
VE-02
p8253
sa(dp8254
g8
VCO
p8255
sg10
(lp8256
(dp8257
g13
I9781111634261
sg14
VWeiers* (Cp)
p8258
sg16
VRequired
p8259
sg18
VManagerial Statistics Custom Ed
p8260
sg20
VLooseleaf
p8261
sg22
g75
sg24
F150.0
sasg38
V367893
p8262
sg40
VE-03
p8263
sa(dp8264
g8
VHALATI
p8265
sg10
(lp8266
(dp8267
g13
I9781111634261
sg14
VWeiers* (Cp)
p8268
sg16
VRequired
p8269
sg18
VManagerial Statistics Custom Ed
p8270
sg20
VLooseleaf
p8271
sg22
g75
sg24
F150.0
sasg38
V367894
p8272
sg40
VE-04
p8273
sasg38
V98058
p8274
sg40
VTOM302
p8275
sa(dp8276
g5
(lp8277
(dp8278
g8
VHE
p8279
sg10
(lp8280
(dp8281
g13
I9780131076594
sg14
VBallou
p8282
sg16
VRequired
p8283
sg18
VBusiness Logistics/Supply Chain Mgmt (W/Cd )
p8284
sg20
VHardback
p8285
sg22
g412
sg24
F178.15
sasg38
V367895
p8286
sg40
VE-01
p8287
sasg38
V98059
p8288
sg40
VTOM309
p8289
sa(dp8290
g5
(lp8291
(dp8292
g8
VHALATI
p8293
sg10
(lp8294
(dp8295
g13
I9781439043271
sg14
VAnderson
p8296
sg16
VRequired
p8297
sg18
VIntro To Management Science (W/Cd)
p8298
sg20
VHardback
p8299
sg22
V13
p8300
sg24
F220.65
sa(dp8301
g13
I9781111278526
sg14
VAnderson (Db*)
p8302
sg16
VOptional
p8303
sg18
VIntro To Management Science (Coursesmart)
p8304
sg20
VEbook
p8305
sg22
V13
p8306
sg24
F102.0
sasg38
V367896
p8307
sg40
VE-01
p8308
sasg38
V98060
p8309
sg40
VTOM315
p8310
sa(dp8311
g5
(lp8312
(dp8313
g8
VSTAFF
p8314
sg10
(lp8315
(dp8316
g13
I9780077284091
sg14
VStevenson*
p8317
sg16
VRequired
p8318
sg18
VOperations Management (W/Cd)
p8319
sg20
VHardback
p8320
sg22
V10
p8321
sg24
F195.95
sa(dp8322
g13
I9780077271459
sg14
VStevenson (Db*)
p8323
sg16
VOptional
p8324
sg18
VOperations Management (Coursesmart Digital)
p8325
sg20
VEbook
p8326
sg22
V10
p8327
sg24
F113.5
sa(dp8328
g13
I9780073377841
sg14
VStevenson
p8329
sg16
VPart of Set
p8330
sg18
VOperations Management
p8331
sg20
VHardback
p8332
sg22
V10
p8333
sg24
F156.75
sasg38
V367897
p8334
sg40
VE-01
p8335
sasg38
V98061
p8336
sg40
VTOM332
p8337
sa(dp8338
g5
(lp8339
(dp8340
g8
VRHODES
p8341
sg10
(lp8342
(dp8343
g13
I9781450068925
sg14
VRhodes
p8344
sg16
VRequired
p8345
sg18
VReport Writing: A Survival Guide
p8346
sg20
Nsg22
Nsg24
F16.0
sa(dp8347
g13
I9780136006695
sg14
VHunger
p8348
sg16
VRequired
p8349
sg18
VEssentials Of Strategic Management
p8350
sg20
VPaperback
p8351
sg22
g412
sg24
F104.0
sa(dp8352
g13
I9780135100004
sg14
VHunger (Db*)
p8353
sg16
VOptional
p8354
sg18
VEssentials Of Strategic Management (Coursesmart)
p8355
sg20
VEbook
p8356
sg22
g412
sg24
F42.0
sasg38
V367898
p8357
sg40
VE-01
p8358
sasg38
V98062
p8359
sg40
VTOM411
p8360
sasg469
VTOM
p8361
sg38
V4809
p8362
sg40
VTECH & OPER MGMT
p8363
sa(dp8364
g2
(lp8365
(dp8366
g5
(lp8367
(dp8368
g8
VDELGADO
p8369
sg10
(lp8370
sg38
V367899
p8371
sg40
VE-01
p8372
sasg38
V98063
p8373
sg40
VURP104
p8374
sa(dp8375
g5
(lp8376
(dp8377
g8
VZIMMER
p8378
sg10
(lp8379
sg38
V367900
p8380
sg40
VE-01
p8381
sasg38
V98064
p8382
sg40
VURP466
p8383
sa(dp8384
g5
(lp8385
(dp8386
g8
VDELGADO
p8387
sg10
(lp8388
sg38
V367901
p8389
sg40
VE-01
p8390
sasg38
V98072
p8391
sg40
VURP475
p8392
sa(dp8393
g5
(lp8394
(dp8395
g8
VDELGADO
p8396
sg10
(lp8397
sg38
V367902
p8398
sg40
VE-01
p8399
sa(dp8400
g8
VZIMMER
p8401
sg10
(lp8402
sg38
V367903
p8403
sg40
VE-02
p8404
sasg38
V98065
p8405
sg40
VURP499
p8406
sasg469
VURP
p8407
sg38
V4744
p8408
sg40
VURBAN & REG PLANNING
p8409
sa(dp8410
g2
(lp8411
(dp8412
g5
(lp8413
(dp8414
g8
VKIDD
p8415
sg10
(lp8416
(dp8417
g13
I9780073378091
sg14
VMckinley
p8418
sg16
VRequired
p8419
sg18
VHuman Anatomy
p8420
sg20
VHardback
p8421
sg22
g115
sg24
F227.2
sa(dp8422
g13
I9780077308919
sg14
VMckinley (Db*)
p8423
sg16
VOptional
p8424
sg18
VHuman Anatomy (Coursesmart)
p8425
sg20
VEbook
p8426
sg22
g115
sg24
F121.25
sasg38
V367904
p8427
sg40
VE-01
p8428
sasg38
V98066
p8429
sg40
VZOO234
p8430
sa(dp8431
g5
(lp8432
(dp8433
g8
VSPENCER
p8434
sg10
(lp8435
(dp8436
g13
I9780077350062
sg14
VFox
p8437
sg16
VRequired
p8438
sg18
VHuman Physiology
p8439
sg20
VHardback
p8440
sg22
V12
p8441
sg24
F193.75
sasg38
V367909
p8442
sg40
VE-01
p8443
sasg38
V98068
p8444
sg40
VZOO235
p8445
sa(dp8446
g5
(lp8447
(dp8448
g8
VSTAFF
p8449
sg10
(lp8450
sg38
V367905
p8451
sg40
VE-01
p8452
sa(dp8453
g8
VSTAFF
p8454
sg10
(lp8455
sg38
V367906
p8456
sg40
VE-02
p8457
sa(dp8458
g8
VSTAFF
p8459
sg10
(lp8460
sg38
V367907
p8461
sg40
VE-03
p8462
sa(dp8463
g8
VSTAFF
p8464
sg10
(lp8465
sg38
V367908
p8466
sg40
VE-04
p8467
sasg38
V98067
p8468
sg40
VZOO234L
p8469
sa(dp8470
g5
(lp8471
(dp8472
g8
VSTAFF
p8473
sg10
(lp8474
sg38
V367910
p8475
sg40
VE-01
p8476
sa(dp8477
g8
VSTAFF
p8478
sg10
(lp8479
sg38
V367911
p8480
sg40
VE-02
p8481
sa(dp8482
g8
VSTAFF
p8483
sg10
(lp8484
sg38
V367912
p8485
sg40
VE-03
p8486
sa(dp8487
g8
VSTAFF
p8488
sg10
(lp8489
sg38
V367913
p8490
sg40
VE-04
p8491
sasg38
V98069
p8492
sg40
VZOO235L
p8493
sasg469
VZOO
p8494
sg38
V4745
p8495
sg40
VZOOLOGY
p8496
sa.