(lp0
(dp1
S'courses'
p2
(lp3
(dp4
S'sections'
p5
(lp6
(dp7
S'instructor'
p8
VSTAFF
p9
sS'books'
p10
(lp11
(dp12
S'ISBN'
p13
I9781256729952
sS'author'
p14
VHarrison*
p15
sS'isRequired'
p16
VRequired
p17
sS'title'
p18
VFinancial Accounting W/Quickbooks Pro & Myaccountinglab
p19
sS'binding'
p20
VKit/Set/Package
p21
sS'edition'
p22
V8
p23
sS'broncoListPrice'
p24
F140.15
sa(dp25
g13
I9780137024315
sg14
VHarrison
p26
sg16
VPart of Set
p27
sg18
VFinancial Accounting Sve
p28
sg20
VLooseleaf
p29
sg22
g23
sg24
F126.25
sa(dp30
g13
I9780132970907
sg14
VPearson
p31
sg16
VPart of Set
p32
sg18
VMyacctglab W/Ebook
p33
sg20
Nsg22
Nsg24
F123.55
sa(dp34
g13
I9780132166638
sg14
VHorne
p35
sg16
VPart of Set
p36
sg18
VQuickbooks Pro 2010 Comp Crs (W/Cd Only)
p37
sg20
Nsg22
Nsg24
F137.5
sasS'id'
p38
V379834
p39
sS'name'
p40
VE-01
p41
sasg38
V97931
p42
sg40
VACC207
p43
sa(dp44
g5
(lp45
(dp46
g8
VSTAFF
p47
sg10
(lp48
(dp49
g13
I9781256432364
sg14
VBraun*
p50
sg16
VRequired
p51
sg18
VManagerial Accounting W/Myaccountinglab (Custom)
p52
sg20
Nsg22
Nsg24
F130.4
sa(dp53
g13
I9781256366133
sg14
VBraun
p54
sg16
VPart of Set
p55
sg18
VManagerial Accounting (Custom)
p56
sg20
Nsg22
Nsg24
F124.8
sa(dp57
g13
I9780132920230
sg14
VPearson
p58
sg16
VPart of Set
p59
sg18
VMyaccountinglab T/A Managerial Accounting (New)
p60
sg20
Nsg22
Nsg24
F117.65
sasg38
V379836
p61
sg40
VE-01
p62
sasg38
V97770
p63
sg40
VACC208
p64
sa(dp65
g5
(lp66
(dp67
g8
VMARTIN
p68
sg10
(lp69
(dp70
g13
I9780912503271
sg14
VArens
p71
sg16
VRequired
p72
sg18
VSystems Understanding Aid
p73
sg20
VPaperback
p74
sg22
V7
p75
sg24
F57.0
sa(dp76
g13
I9780132552622
sg14
VRomney
p77
sg16
VRequired
p78
sg18
VAccounting Information Systems
p79
sg20
VHardback
p80
sg22
V12
p81
sg24
F218.75
sa(dp82
g13
I9781439079010
sg14
VShelly
p83
sg16
VRequired
p84
sg18
VMicrosoft Excel 2010 Comprehensive
p85
sg20
Nsg22
Nsg24
F131.9
sa(dp86
g13
I9780136068600
sg14
VMay (Db*)
p87
sg16
VOptional
p88
sg18
VEffective Writing: Handbook For Accountants (Coursesmart Digital)
p89
sg20
VEbook
p90
sg22
g23
sg24
F24.0
sa(dp91
g13
I9780132552639
sg14
VRomney (Db*)
p92
sg16
VOptional
p93
sg18
VAccounting Information Systems (Coursesmart)
p94
sg20
VEbook
p95
sg22
V12
p96
sg24
F93.0
sa(dp97
g13
I9781111548216
sg14
VShelly (Db*)
p98
sg16
VOptional
p99
sg18
VMicrosoft Excel 2010 (Coursesmart)
p100
sg20
Nsg22
Nsg24
F52.0
sasg38
V379838
p101
sg40
VE-01
p102
sasg38
V97772
p103
sg40
VACC304
p104
sa(dp105
g5
(lp106
(dp107
g8
VMARTIN
p108
sg10
(lp109
(dp110
g13
I9780072404296
sg14
VDunn
p111
sg16
VRequired
p112
sg18
VEnterprise Information Systems
p113
sg20
VHardback
p114
sg22
V3
p115
sg24
F184.7
sa(dp116
g13
I9781439079027
sg14
VShelly
p117
sg16
VRequired
p118
sg18
VMicrosoft Access 2010 Comprehensive
p119
sg20
Nsg22
Nsg24
F122.35
sa(dp120
g13
I9781111548643
sg14
VShelly (Db*)
p121
sg16
VOptional
p122
sg18
VMicrosoft Access 2010 (Coursesmart)
p123
sg20
Nsg22
Nsg24
F52.0
sasg38
V379839
p124
sg40
VE-01
p125
sasg38
V97773
p126
sg40
VACC305
p127
sa(dp128
g5
(lp129
(dp130
g8
VAHADIAT
p131
sg10
(lp132
(dp133
g13
I9780132960649
sg14
VHorngren*
p134
sg16
VRequired
p135
sg18
VCost Accounting W/Myaccountinglab & Etext Access Code
p136
sg20
VKit/Set/Package
p137
sg22
V14
p138
sg24
F225.0
sa(dp139
g13
I9780132109949
sg14
VHorngren (Db*)
p140
sg16
VOptional
p141
sg18
VCost Accounting (Coursesmart)
p142
sg20
VEbook
p143
sg22
V14
p144
sg24
F93.0
sa(dp145
g13
I9780132109178
sg14
VHorngren
p146
sg16
VPart of Set
p147
sg18
VCost Accounting
p148
sg20
VHardback
p149
sg22
V14
p150
sg24
F200.0
sa(dp151
g13
I9780132914451
sg14
VPearson
p152
sg16
VPart of Set
p153
sg18
VMyaccountinglab W/Etext
p154
sg20
Nsg22
Nsg24
F117.65
sasg38
V379840
p155
sg40
VE-01
p156
sasg38
V97774
p157
sg40
VACC307
p158
sa(dp159
g5
(lp160
(dp161
g8
VHEFZI
p162
sg10
(lp163
(dp164
g13
I9780077585402
sg14
VSpiceland*
p165
sg16
VRequired
p166
sg18
VIntermediate Accounting (Custom) W/Connect Plus & Annual Report
p167
sg20
VKit/Set/Package
p168
sg22
V6
p169
sg24
F145.35
sa(dp170
g13
I9780077328962
sg14
VSpiceland (Db*)
p171
sg16
VOptional
p172
sg18
VIntermediate Accounting (Coursesmart)
p173
sg20
VEbook
p174
sg22
g169
sg24
F137.25
sa(dp175
g13
I9780077585389
sg14
VSpiceland
p176
sg16
VPart of Set
p177
sg18
VIntermediate Accounting (Custom)
p178
sg20
VHardback
p179
sg22
g169
sg24
F121.0
sa(dp180
g13
I9780077585396
sg14
VSpiceland
p181
sg16
VPart of Set
p182
sg18
VConnect Code T/A Intermediate Accounting
p183
sg20
Nsg22
Nsg24
F99.55
sasg38
V367421
p184
sg40
V02
p185
sa(dp186
g8
VHEFZI
p187
sg10
(lp188
(dp189
g13
I9780077585402
sg14
VSpiceland*
p190
sg16
VRequired
p191
sg18
VIntermediate Accounting (Custom) W/Connect Plus & Annual Report
p192
sg20
VKit/Set/Package
p193
sg22
g169
sg24
F145.35
sa(dp194
g13
I9780077328962
sg14
VSpiceland (Db*)
p195
sg16
VOptional
p196
sg18
VIntermediate Accounting (Coursesmart)
p197
sg20
VEbook
p198
sg22
g169
sg24
F137.25
sa(dp199
g13
I9780077585389
sg14
VSpiceland
p200
sg16
VPart of Set
p201
sg18
VIntermediate Accounting (Custom)
p202
sg20
VHardback
p203
sg22
g169
sg24
F121.0
sa(dp204
g13
I9780077585396
sg14
VSpiceland
p205
sg16
VPart of Set
p206
sg18
VConnect Code T/A Intermediate Accounting
p207
sg20
Nsg22
Nsg24
F99.55
sasg38
V379841
p208
sg40
VE-01
p209
sasg38
V97775
p210
sg40
VACC311
p211
sa(dp212
g5
(lp213
(dp214
g8
VPAK
p215
sg10
(lp216
(dp217
g13
I9780077585402
sg14
VSpiceland*
p218
sg16
VRequired
p219
sg18
VIntermediate Accounting (Custom) W/Connect Plus & Annual Report
p220
sg20
VKit/Set/Package
p221
sg22
g169
sg24
F145.35
sa(dp222
g13
I9780077328962
sg14
VSpiceland (Db*)
p223
sg16
VOptional
p224
sg18
VIntermediate Accounting (Coursesmart)
p225
sg20
VEbook
p226
sg22
g169
sg24
F137.25
sa(dp227
g13
I9780077585389
sg14
VSpiceland
p228
sg16
VPart of Set
p229
sg18
VIntermediate Accounting (Custom)
p230
sg20
VHardback
p231
sg22
g169
sg24
F121.0
sa(dp232
g13
I9780077585396
sg14
VSpiceland
p233
sg16
VPart of Set
p234
sg18
VConnect Code T/A Intermediate Accounting
p235
sg20
Nsg22
Nsg24
F99.55
sasg38
V379842
p236
sg40
VE-01
p237
sa(dp238
g8
VHEFZI
p239
sg10
(lp240
(dp241
g13
I9780077585402
sg14
VSpiceland*
p242
sg16
VRequired
p243
sg18
VIntermediate Accounting (Custom) W/Connect Plus & Annual Report
p244
sg20
VKit/Set/Package
p245
sg22
g169
sg24
F145.35
sa(dp246
g13
I9780077328962
sg14
VSpiceland (Db*)
p247
sg16
VOptional
p248
sg18
VIntermediate Accounting (Coursesmart)
p249
sg20
VEbook
p250
sg22
g169
sg24
F137.25
sa(dp251
g13
I9780077585389
sg14
VSpiceland
p252
sg16
VPart of Set
p253
sg18
VIntermediate Accounting (Custom)
p254
sg20
VHardback
p255
sg22
g169
sg24
F121.0
sa(dp256
g13
I9780077585396
sg14
VSpiceland
p257
sg16
VPart of Set
p258
sg18
VConnect Code T/A Intermediate Accounting
p259
sg20
Nsg22
Nsg24
F99.55
sasg38
V379843
p260
sg40
VE-02
p261
sasg38
V97776
p262
sg40
VACC312
p263
sa(dp264
g5
(lp265
(dp266
g8
VPAK
p267
sg10
(lp268
(dp269
g13
I9780077585402
sg14
VSpiceland*
p270
sg16
VRequired
p271
sg18
VIntermediate Accounting (Custom) W/Connect Plus & Annual Report
p272
sg20
VKit/Set/Package
p273
sg22
g169
sg24
F145.35
sa(dp274
g13
I9780077328962
sg14
VSpiceland (Db*)
p275
sg16
VOptional
p276
sg18
VIntermediate Accounting (Coursesmart)
p277
sg20
VEbook
p278
sg22
g169
sg24
F137.25
sa(dp279
g13
I9780077585389
sg14
VSpiceland
p280
sg16
VPart of Set
p281
sg18
VIntermediate Accounting (Custom)
p282
sg20
VHardback
p283
sg22
g169
sg24
F121.0
sa(dp284
g13
I9780077585396
sg14
VSpiceland
p285
sg16
VPart of Set
p286
sg18
VConnect Code T/A Intermediate Accounting
p287
sg20
Nsg22
Nsg24
F99.55
sasg38
V379844
p288
sg40
VE-01
p289
sa(dp290
g8
VPAK
p291
sg10
(lp292
(dp293
g13
I9780077585402
sg14
VSpiceland*
p294
sg16
VRequired
p295
sg18
VIntermediate Accounting (Custom) W/Connect Plus & Annual Report
p296
sg20
VKit/Set/Package
p297
sg22
g169
sg24
F145.35
sa(dp298
g13
I9780077328962
sg14
VSpiceland (Db*)
p299
sg16
VOptional
p300
sg18
VIntermediate Accounting (Coursesmart)
p301
sg20
VEbook
p302
sg22
g169
sg24
F137.25
sa(dp303
g13
I9780077585389
sg14
VSpiceland
p304
sg16
VPart of Set
p305
sg18
VIntermediate Accounting (Custom)
p306
sg20
VHardback
p307
sg22
g169
sg24
F121.0
sa(dp308
g13
I9780077585396
sg14
VSpiceland
p309
sg16
VPart of Set
p310
sg18
VConnect Code T/A Intermediate Accounting
p311
sg20
Nsg22
Nsg24
F99.55
sasg38
V379845
p312
sg40
VE-02
p313
sasg38
V97777
p314
sg40
VACC313
p315
sa(dp316
g5
(lp317
(dp318
g8
VSALIMI
p319
sg10
(lp320
(dp321
g13
I9780138018818
sg14
VLaudon
p322
sg16
VRequired
p323
sg18
VE-Commerce Business, Technology, Society 2012
p324
sg20
Nsg22
Nsg24
F184.0
sa(dp325
g13
I9780132146142
sg14
VLaudon (Db*)
p326
sg16
VOptional
p327
sg18
VE-Commerce: Business, Technology, Society (Coursesmart)
p328
sg20
VEbook
p329
sg22
g23
sg24
F78.0
sasg38
V379846
p330
sg40
VE-01
p331
sa(dp332
g8
VSALIMI
p333
sg10
(lp334
(dp335
g13
I9780138018818
sg14
VLaudon
p336
sg16
VRequired
p337
sg18
VE-Commerce Business, Technology, Society 2012
p338
sg20
Nsg22
Nsg24
F184.0
sa(dp339
g13
I9780132146142
sg14
VLaudon (Db*)
p340
sg16
VOptional
p341
sg18
VE-Commerce: Business, Technology, Society (Coursesmart)
p342
sg20
VEbook
p343
sg22
g23
sg24
F78.0
sasg38
V379847
p344
sg40
VE-02
p345
sasg38
V97778
p346
sg40
VACC405
p347
sa(dp348
g5
(lp349
(dp350
g8
VAHADIAT
p351
sg10
(lp352
(dp353
g13
I9780132960649
sg14
VHorngren*
p354
sg16
VRequired
p355
sg18
VCost Accounting W/Myaccountinglab & Etext Access Code
p356
sg20
VKit/Set/Package
p357
sg22
V14
p358
sg24
F225.0
sa(dp359
g13
I9780132109949
sg14
VHorngren (Db*)
p360
sg16
VOptional
p361
sg18
VCost Accounting (Coursesmart)
p362
sg20
VEbook
p363
sg22
V14
p364
sg24
F93.0
sa(dp365
g13
I9780132109178
sg14
VHorngren
p366
sg16
VPart of Set
p367
sg18
VCost Accounting
p368
sg20
VHardback
p369
sg22
V14
p370
sg24
F200.0
sa(dp371
g13
I9780132914451
sg14
VPearson
p372
sg16
VPart of Set
p373
sg18
VMyaccountinglab W/Etext
p374
sg20
Nsg22
Nsg24
F117.65
sasg38
V379848
p375
sg40
VE-01
p376
sasg38
V97779
p377
sg40
VACC412
p378
sa(dp379
g5
(lp380
(dp381
g8
VSALIMI
p382
sg10
(lp383
(dp384
g13
I9780137024971
sg14
VAtkinson
p385
sg16
VRequired
p386
sg18
VManagement Accounting
p387
sg20
VHardback
p388
sg22
g169
sg24
F221.9
sa(dp389
g13
I9780137024988
sg14
VAtkinson (Db*)
p390
sg16
VOptional
p391
sg18
VManagement Accounting (Coursesmart)
p392
sg20
VEbook
p393
sg22
g169
sg24
F93.0
sasg38
V379849
p394
sg40
VE-01
p395
sasg38
V97780
p396
sg40
VACC413
p397
sa(dp398
g5
(lp399
(dp400
g8
VSTAFF
p401
sg10
(lp402
(dp403
g13
I9781256430735
sg14
VBeasley*
p404
sg16
VRequired
p405
sg18
VAuditing & Assurance Services W/Auditing Cases(5Th)
p406
sg20
Nsg22
Nsg24
F168.65
sa(dp407
g13
I9780132556743
sg14
VBeasley (Db*)
p408
sg16
VOptional
p409
sg18
VAuditing Cases (Coursesmart)
p410
sg20
VEbook
p411
sg22
V5
p412
sg24
F24.0
sa(dp413
g13
I9781256349808
sg14
VArens
p414
sg16
VPart of Set
p415
sg18
VAuditing And Assurance Services
p416
sg20
Nsg22
Nsg24
F135.4
sa(dp417
g13
I9780132567237
sg14
VBeasley
p418
sg16
VPart of Set
p419
sg18
VAuditing Cases
p420
sg20
VPaperback
p421
sg22
g412
sg24
F60.0
sasg38
V379850
p422
sg40
VE-01
p423
sasg38
V97781
p424
sg40
VACC419
p425
sa(dp426
g5
(lp427
(dp428
g8
VSTAFF
p429
sg10
(lp430
(dp431
g13
I9781133160571
sg14
VHoffman*
p432
sg16
VRequired
p433
sg18
VSouth-Western Federal Taxation 2012 W/Software, Ria, Cpa Excel, & Aplia (35Th)
p434
sg20
Nsg22
Nsg24
F281.25
sa(dp435
g13
I9781111546854
sg14
VHoffman (Db*)
p436
sg16
VOptional
p437
sg18
VSouth Western Federal Taxation 2012 (Coursesmart)
p438
sg20
Nsg22
Nsg24
F126.5
sa(dp439
g13
I9781111221706
sg14
VHoffman
p440
sg16
VPart of Set
p441
sg18
VSouth-Western Federal Taxation 2012, 35Th Ed.
p442
sg20
Nsg22
Nsg24
F234.05
sa(dp443
g13
I9781133049197
sg14
VCengage
p444
sg16
VPart of Set
p445
sg18
VAplia Two-Semester Access Code T/A South-Western Federal Taxation 2012
p446
sg20
Nsg22
Nsg24
F120.0
sasg38
V379851
p447
sg40
VE-01
p448
sasg38
V97782
p449
sg40
VACC431
p450
sa(dp451
g5
(lp452
(dp453
g8
VAHADIAT
p454
sg10
(lp455
sg38
V379835
p456
sg40
VE-01
p457
sasg38
V97769
p458
sg40
VACC207A
p459
sa(dp460
g5
(lp461
(dp462
g8
VAHADIAT
p463
sg10
(lp464
sg38
V379837
p465
sg40
VE-01
p466
sasg38
V97771
p467
sg40
VACC208A
p468
sasS'abrev'
p469
VACC
p470
sg38
V4815
p471
sg40
VACCOUNTING
p472
sa(dp473
g2
(lp474
(dp475
g5
(lp476
(dp477
g8
VPHILLIPS
p478
sg10
(lp479
sg38
V367432
p480
sg40
VE-21
p481
sasg38
V97783
p482
sg40
VAG101
p483
sa(dp484
g5
(lp485
(dp486
g8
VMATHIAS
p487
sg10
(lp488
(dp489
g13
I9780195306200
sg14
VWeston
p490
sg16
VRequired
p491
sg18
VCreative Problem-Solving In Ethics
p492
sg20
Nsg22
Nsg24
F19.95
sa(dp493
g13
I9781405111546
sg14
VDriver
p494
sg16
VRequired
p495
sg18
VEthics
p496
sg20
Nsg22
Nsg24
F29.95
sasg38
V367433
p497
sg40
VE-01
p498
sa(dp499
g8
VMERLINO
p500
sg10
(lp501
(dp502
g13
I9780195306200
sg14
VWeston
p503
sg16
VRequired
p504
sg18
VCreative Problem-Solving In Ethics
p505
sg20
Nsg22
Nsg24
F19.95
sa(dp506
g13
I9781405111546
sg14
VDriver
p507
sg16
VRequired
p508
sg18
VEthics
p509
sg20
Nsg22
Nsg24
F29.95
sa(dp510
g13
I9780923568962
sg14
VHoughton
p511
sg16
VRequired
p512
sg18
VApa: The Easy Way!
p513
sg20
VPaperback
p514
sg22
V2
p515
sg24
F10.95
sasg38
V367434
p516
sg40
VE-11
p517
sa(dp518
g8
VMERLINO
p519
sg10
(lp520
(dp521
g13
I9780195306200
sg14
VWeston
p522
sg16
VRequired
p523
sg18
VCreative Problem-Solving In Ethics
p524
sg20
Nsg22
Nsg24
F19.95
sa(dp525
g13
I9781405111546
sg14
VDriver
p526
sg16
VRequired
p527
sg18
VEthics
p528
sg20
Nsg22
Nsg24
F29.95
sa(dp529
g13
I9780923568962
sg14
VHoughton
p530
sg16
VRequired
p531
sg18
VApa: The Easy Way!
p532
sg20
VPaperback
p533
sg22
g515
sg24
F10.95
sasg38
V367435
p534
sg40
VE-12
p535
sa(dp536
g8
VPHILLIPS
p537
sg10
(lp538
(dp539
g13
I9780073386713
sg14
VRachels
p540
sg16
VRequired
p541
sg18
VElements Of Moral Philosophy
p542
sg20
VPaperback
p543
sg22
g169
sg24
F55.0
sa(dp544
g13
I9780787985387
sg14
VUkens
p545
sg16
VRequired
p546
sg18
VWhat Would You Do? Workbook
p547
sg20
Nsg22
Nsg24
F15.0
sa(dp548
g13
I9780077318499
sg14
VRachels (Db*)
p549
sg16
VOptional
p550
sg18
VElements Of Moral Philosophy (Coursesmart)
p551
sg20
VEbook
p552
sg22
g169
sg24
F29.0
sasg38
V367436
p553
sg40
VE-22
p554
sasg38
V97784
p555
sg40
VAG401
p556
sasg469
VAG
p557
sg38
V4748
p558
sg40
VAGRICULTURAL SCIENCE
p559
sa(dp560
g2
(lp561
(dp562
g5
(lp563
(dp564
g8
VTUCKER,
p565
sg10
(lp566
sg38
V379881
p567
sg40
VE-01
p568
sasg38
V99381
p569
sg40
VAMM108
p570
sa(dp571
g5
(lp572
(dp573
g8
VDabas
p574
sg10
(lp575
sg38
V367439
p576
sg40
VE-01
p577
sasg38
V97787
p578
sg40
VAMM250
p579
sa(dp580
g5
(lp581
(dp582
g8
VPARISE
p583
sg10
(lp584
(dp585
g13
I9781609011536
sg14
VBell
p586
sg16
VRequired
p587
sg18
VSilent Selling
p588
sg20
VPaperback
p589
sg22
V4
p590
sg24
F88.5
sasg38
V367440
p591
sg40
VE-01
p592
sasg38
V97788
p593
sg40
VAMM270
p594
sa(dp595
g5
(lp596
(dp597
g8
VTUCKER,
p598
sg10
(lp599
(dp600
g13
I9781609011062
sg14
VKunz
p601
sg16
VRequired
p602
sg18
VGoing Global
p603
sg20
VPaperback
p604
sg22
g515
sg24
F88.0
sasg38
V367442
p605
sg40
VE-01
p606
sasg38
V97790
p607
sg40
VAMM357
p608
sa(dp609
g5
(lp610
(dp611
g8
VTUCKER,
p612
sg10
(lp613
(dp614
g13
I9781609011062
sg14
VKunz
p615
sg16
VRequired
p616
sg18
VGoing Global
p617
sg20
VPaperback
p618
sg22
g515
sg24
F88.0
sasg38
V367443
p619
sg40
VE-01
p620
sasg38
V97791
p621
sg40
VAMM380
p622
sa(dp623
g5
(lp624
(dp625
g8
VTUCKER,
p626
sg10
(lp627
(dp628
g13
I9780073530024
sg14
VLevy
p629
sg16
VRequired
p630
sg18
VRetailing Management
p631
sg20
VHardback
p632
sg22
g23
sg24
F196.25
sasg38
V367445
p633
sg40
VE-01
p634
sasg38
V97793
p635
sg40
VAMM496
p636
sa(dp637
g5
(lp638
(dp639
g8
VPARISE
p640
sg10
(lp641
sg38
V367438
p642
sg40
VE-01
p643
sasg38
V97786
p644
sg40
VAMM112L
p645
sa(dp646
g5
(lp647
(dp648
g8
VPARISE
p649
sg10
(lp650
sg38
V367441
p651
sg40
VE-01
p652
sasg38
V97789
p653
sg40
VAMM270A
p654
sa(dp655
g5
(lp656
(dp657
g8
VTUCKER
p658
sg10
(lp659
sg38
V367444
p660
sg40
VE-01
p661
sasg38
V97792
p662
sg40
VAMM380L
p663
sa(dp664
g5
(lp665
(dp666
g8
VTUCKER,
p667
sg10
(lp668
(dp669
g13
I9780073530024
sg14
VLevy
p670
sg16
VRequired
p671
sg18
VRetailing Management
p672
sg20
VHardback
p673
sg22
g23
sg24
F196.25
sasg38
V367446
p674
sg40
VE-01
p675
sasg38
V97794
p676
sg40
VAMM497A
p677
sasg469
VAMM
p678
sg38
V4807
p679
sg40
VAPPAREL MERCH & MGMT
p680
sa(dp681
g2
(lp682
(dp683
g5
(lp684
(dp685
g8
VRACHELE
p686
sg10
(lp687
(dp688
g13
I9781111830007
sg14
VAndreatta
p689
sg16
VRequired
p690
sg18
VElements Of Culture
p691
sg20
Nsg22
Nsg24
F72.65
sa(dp692
g13
I9780078051012
sg14
VAnnual Edition
p693
sg16
VRequired
p694
sg18
VAnthropology 12/13 (Ed: Angeloni)
p695
sg20
VPaperback
p696
sg22
V35
p697
sg24
F44.0
sa(dp698
g13
I9780077477769
sg14
VAngeloni (Db*)
p699
sg16
VOptional
p700
sg18
VAnthropology: Annual Editions 12/13 (Coursesmart)
p701
sg20
VEbook
p702
sg22
g412
sg24
F31.0
sa(dp703
g13
I9781133470953
sg14
VAndreatta (Db*)
p704
sg16
VOptional
p705
sg18
VElements Of Culture (Coursesmart)
p706
sg20
Nsg22
Nsg24
F37.0
sasg38
V367447
p707
sg40
VE-01
p708
sasg38
V97795
p709
sg40
VANT102
p710
sa(dp711
g5
(lp712
(dp713
g8
VGRAY
p714
sg10
(lp715
(dp716
g13
I9780073530932
sg14
VPodolefsky
p717
sg16
VRequired
p718
sg18
VApplying Anthropology
p719
sg20
VPaperback
p720
sg22
g23
sg24
F61.05
sasg38
V379852
p721
sg40
VE-01
p722
sasg38
V99366
p723
sg40
VANT201
p724
sa(dp725
g5
(lp726
(dp727
g8
VRACHELE
p728
sg10
(lp729
(dp730
g13
I9780813343679
sg14
VMoran
p731
sg16
VRequired
p732
sg18
VHuman Adaptability
p733
sg20
VPaperback
p734
sg22
g115
sg24
F45.0
sasg38
V367448
p735
sg40
VE-01
p736
sasg38
V97796
p737
sg40
VANT350
p738
sa(dp739
g5
(lp740
(dp741
g8
VRACHELE
p742
sg10
(lp743
(dp744
g13
I9780078140013
sg14
VMoro
p745
sg16
VRequired
p746
sg18
VMagic, Witchcraft & Religion
p747
sg20
VPaperback
p748
sg22
g23
sg24
F67.2
sasg38
V367449
p749
sg40
VE-01
p750
sasg38
V97797
p751
sg40
VANT360
p752
sasg469
VANT
p753
sg38
V4754
p754
sg40
VANTHROPOLOGY
p755
sa(dp756
g2
(lp757
(dp758
g5
(lp759
(dp760
g8
VSTAFF
p761
sg10
(lp762
sg38
V367450
p763
sg40
VE-01
p764
sa(dp765
g8
VSTAFF
p766
sg10
(lp767
sg38
V367451
p768
sg40
VE-02
p769
sasg38
V97932
p770
sg40
VARC401
p771
sa(dp772
g5
(lp773
(dp774
g8
VRAMIREZ
p775
sg10
(lp776
sg38
V367454
p777
sg40
VE-01
p778
sa(dp779
g8
VSTAFF
p780
sg10
(lp781
sg38
V367455
p782
sg40
VE-02
p783
sasg38
V97799
p784
sg40
VARC402
p785
sa(dp786
g5
(lp787
(dp788
g8
VRAMIREZ
p789
sg10
(lp790
sg38
V367458
p791
sg40
VE-01
p792
sa(dp793
g8
VSTAFF
p794
sg10
(lp795
sg38
V367459
p796
sg40
VE-02
p797
sasg38
V97933
p798
sg40
VARC405
p799
sa(dp800
g5
(lp801
(dp802
g8
VSTAFF
p803
sg10
(lp804
sg38
V367462
p805
sg40
VE-01
p806
sa(dp807
g8
VSHEINE
p808
sg10
(lp809
sg38
V367463
p810
sg40
VE-02
p811
sasg38
V97801
p812
sg40
VARC406
p813
sa(dp814
g5
(lp815
(dp816
g8
VSTAFF
p817
sg10
(lp818
sg38
V367466
p819
sg40
VE-01
p820
sa(dp821
g8
VRAMIREZ
p822
sg10
(lp823
sg38
V367467
p824
sg40
VE-02
p825
sa(dp826
g8
VAMOURGIS
p827
sg10
(lp828
sg38
V367468
p829
sg40
VE-03
p830
sa(dp831
g8
VAMOURGIS
p832
sg10
(lp833
sg38
V367469
p834
sg40
VE-04
p835
sasg38
V97803
p836
sg40
VARC499
p837
sa(dp838
g5
(lp839
(dp840
g8
VSHEINE
p841
sg10
(lp842
sg38
V367470
p843
sg40
VE-01
p844
sasg38
V97935
p845
sg40
VARC601
p846
sa(dp847
g5
(lp848
(dp849
g8
VSHEINE
p850
sg10
(lp851
sg38
V367472
p852
sg40
VE-01
p853
sa(dp854
g8
VRamirez, Irma
p855
sg10
(lp856
sg38
V380336
p857
sg40
VE-02
p858
sasg38
V97804
p859
sg40
VARC602
p860
sa(dp861
g5
(lp862
(dp863
g8
VRAMIREZ
p864
sg10
(lp865
sg38
V367452
p866
sg40
VE-01
p867
sa(dp868
g8
VSTAFF
p869
sg10
(lp870
sg38
V367453
p871
sg40
VE-02
p872
sasg38
V97798
p873
sg40
VARC401L
p874
sa(dp875
g5
(lp876
(dp877
g8
VRAMIREZ
p878
sg10
(lp879
sg38
V367456
p880
sg40
VE-01
p881
sa(dp882
g8
VSTAFF
p883
sg10
(lp884
sg38
V367457
p885
sg40
VE-02
p886
sasg38
V97800
p887
sg40
VARC402L
p888
sa(dp889
g5
(lp890
(dp891
g8
VRAMIREZ
p892
sg10
(lp893
sg38
V367460
p894
sg40
VE-01
p895
sa(dp896
g8
VSTAFF
p897
sg10
(lp898
sg38
V367461
p899
sg40
VE-02
p900
sasg38
V97934
p901
sg40
VARC405L
p902
sa(dp903
g5
(lp904
(dp905
g8
VRAMIREZ
p906
sg10
(lp907
sg38
V367464
p908
sg40
VE-01
p909
sa(dp910
g8
VSHEINE
p911
sg10
(lp912
sg38
V367465
p913
sg40
VE-02
p914
sasg38
V97802
p915
sg40
VARC406L
p916
sa(dp917
g5
(lp918
(dp919
g8
VSHEINE
p920
sg10
(lp921
sg38
V367471
p922
sg40
VE-01
p923
sasg38
V97936
p924
sg40
VARC601L
p925
sa(dp926
g5
(lp927
(dp928
g8
VSHEINE
p929
sg10
(lp930
sg38
V367473
p931
sg40
VE-01
p932
sa(dp933
g8
VRamirez, Irma
p934
sg10
(lp935
sg38
V380337
p936
sg40
VE-02
p937
sasg38
V97805
p938
sg40
VARC602L
p939
sasg469
VARC
p940
sg38
V4755
p941
sg40
VARCHITECTURE
p942
sa(dp943
g2
(lp944
(dp945
g5
(lp946
(dp947
g8
VBHANDARI
p948
sg10
(lp949
(dp950
g13
I9780131866140
sg14
VPhillips
p951
sg16
VRequired
p952
sg18
VFeedback Control Systems
p953
sg20
VHardback
p954
sg22
g412
sg24
F177.2
sa(dp955
g13
I9780131393028
sg14
VPhillips (Db*)
p956
sg16
VOptional
p957
sg18
VFeedback Control Systems (Coursesmart)
p958
sg20
VEbook
p959
sg22
g412
sg24
F73.0
sasg38
V379811
p960
sg40
V01
p961
sasg38
V99351
p962
sg40
VARO499
p963
sasg469
VARO
p964
sg38
V4756
p965
sg40
VAEROSPACE ENGR
p966
sa(dp967
g2
(lp968
(dp969
g5
(lp970
(dp971
g8
VSTAFF
p972
sg10
(lp973
sg38
V367474
p974
sg40
VE-01
p975
sasg38
V97806
p976
sg40
VAVS101
p977
sa(dp978
g5
(lp979
(dp980
g8
VFONDA
p981
sg10
(lp982
(dp983
g13
I9780132624053
sg14
VDamron (Db*)
p984
sg16
VOptional
p985
sg18
VIntro To Animal Science Global (Coursesmart)
p986
sg20
VEbook
p987
sg22
g412
sg24
F56.0
sa(dp988
g13
I9780132623896
sg14
VDamron
p989
sg16
VOptional
p990
sg18
VIntro To Animal Science
p991
sg20
VHardback
p992
sg22
g412
sg24
F143.75
sasg38
V367475
p993
sg40
VE-01
p994
sasg38
V97807
p995
sg40
VAVS112
p996
sa(dp997
g5
(lp998
(dp999
g8
VREICHARDT
p1000
sg10
(lp1001
sg38
V367476
p1002
sg40
VE-01
p1003
sasg38
V97937
p1004
sg40
VAVS201
p1005
sa(dp1006
g5
(lp1007
(dp1008
g8
VHaag
p1009
sg10
(lp1010
(dp1011
g13
I9780073380902
sg14
VHart
p1012
sg16
VRequired
p1013
sg18
VDrugs, Society & Human Behavior
p1014
sg20
VPaperback
p1015
sg22
V14
p1016
sg24
F132.7
sa(dp1017
g13
I9780077325886
sg14
VHart (Db*)
p1018
sg16
VOptional
p1019
sg18
VDrugs, Society, & Human Behavior (Coursesmart)
p1020
sg20
VEbook
p1021
sg22
g590
sg24
F69.75
sasg38
V367477
p1022
sg40
VE-01
p1023
sasg38
V97808
p1024
sg40
VAVS211
p1025
sa(dp1026
g5
(lp1027
(dp1028
g8
VNout
p1029
sg10
(lp1030
(dp1031
g13
I9780131125865
sg14
VCheeke
p1032
sg16
VRequired
p1033
sg18
VContemporary Issues In Animal Agriculture
p1034
sg20
VPaperback
p1035
sg22
g115
sg24
F80.8
sasg38
V367478
p1036
sg40
VE-01
p1037
sasg38
V97809
p1038
sg40
VAVS311
p1039
sa(dp1040
g5
(lp1041
(dp1042
g8
VPettey
p1043
sg10
(lp1044
sg38
V367479
p1045
sg40
VE-01
p1046
sasg38
V97810
p1047
sg40
VAVS402
p1048
sa(dp1049
g5
(lp1050
(dp1051
g8
VSANDELIN
p1052
sg10
(lp1053
sg38
V367480
p1054
sg40
VE-01
p1055
sasg38
V97938
p1056
sg40
VAVS404
p1057
sa(dp1058
g5
(lp1059
(dp1060
g8
VSANDELIN
p1061
sg10
(lp1062
sg38
V367481
p1063
sg40
VE-01
p1064
sasg38
V97939
p1065
sg40
VAVS404A
p1066
sa(dp1067
g5
(lp1068
(dp1069
g8
V,
p1070
sg10
(lp1071
sg38
V380163
p1072
sg40
VE-01
p1073
sa(dp1074
g8
g1070
sg10
(lp1075
sg38
V380164
p1076
sg40
VE-02
p1077
sasg38
V100635
p1078
sg40
VAVS499A
p1079
sasg469
VAVS
p1080
sg38
V4758
p1081
sg40
VANIMAL & VET SCIENCE
p1082
sa(dp1083
g2
(lp1084
(dp1085
g5
(lp1086
(dp1087
g8
VCLARK
p1088
sg10
(lp1089
(dp1090
g13
I9780321649546
sg14
VSimon
p1091
sg16
VRequired
p1092
sg18
VCampbell Essential Biology With Physiology
p1093
sg20
VPaperback
p1094
sg22
g115
sg24
F140.15
sasg38
V367482
p1095
sg40
VE-01
p1096
sasg38
V97811
p1097
sg40
VBIO110
p1098
sa(dp1099
g5
(lp1100
(dp1101
g8
VHERRERA
p1102
sg10
(lp1103
(dp1104
g13
I9781429219624
sg14
VSadava
p1105
sg16
VRequired
p1106
sg18
VLife
p1107
sg20
VHardback
p1108
sg22
V9
p1109
sg24
F180.65
sa(dp1110
g13
I9781429254205
sg14
VSadava (Db*)
p1111
sg16
VOptional
p1112
sg18
VLife (Coursesmart Digital)
p1113
sg20
VEbook
p1114
sg22
g1109
sg24
F103.0
sasg38
V367487
p1115
sg40
VE-01
p1116
sasg38
V97813
p1117
sg40
VBIO115
p1118
sa(dp1119
g5
(lp1120
(dp1121
g8
VKING
p1122
sg10
(lp1123
(dp1124
g13
I9780131008465
sg14
VZar
p1125
sg16
VRequired
p1126
sg18
VBiostatistical Analysis
p1127
sg20
VHardback
p1128
sg22
g412
sg24
F135.3
sa(dp1129
g13
I9780135024713
sg14
VZar (Db*)
p1130
sg16
VOptional
p1131
sg18
VBiostatistical Analysis (Coursesmart Digital)
p1132
sg20
VEbook
p1133
sg22
g412
sg24
F61.0
sasg38
V367496
p1134
sg40
VE-01
p1135
sasg38
V97816
p1136
sg40
VBIO211
p1137
sa(dp1138
g5
(lp1139
(dp1140
g8
VKIDD
p1141
sg10
(lp1142
(dp1143
g13
I9780878935703
sg14
VLevay
p1144
sg16
VRequired
p1145
sg18
VHuman Sexuality
p1146
sg20
VHardback
p1147
sg22
g590
sg24
F115.95
sa(dp1148
g13
I9780878936311
sg14
VLevay (Db*)
p1149
sg16
VOptional
p1150
sg18
VHuman Sexuality (Coursesmart)
p1151
sg20
VEbook
p1152
sg22
g590
sg24
F55.95
sasg38
V367502
p1153
sg40
VE-01
p1154
sasg38
V97818
p1155
sg40
VBIO301
p1156
sa(dp1157
g5
(lp1158
(dp1159
g8
VDIXON
p1160
sg10
(lp1161
(dp1162
g13
I9780077474904
sg14
VBrooker*
p1163
sg16
VRequired
p1164
sg18
VGenetics W/Connect Card
p1165
sg20
VCloth
p1166
sg22
g590
sg24
F196.9
sasg38
V367503
p1167
sg40
VE-01
p1168
sasg38
V97819
p1169
sg40
VBIO303
p1170
sa(dp1171
g5
(lp1172
(dp1173
g8
VALAS
p1174
sg10
(lp1175
sg38
V367504
p1176
sg40
VE-01
p1177
sasg38
V97820
p1178
sg40
VBIO310
p1179
sa(dp1180
g5
(lp1181
(dp1182
g8
VSTAFF
p1183
sg10
(lp1184
(dp1185
g13
I9780738022048
sg14
VHartney
p1186
sg16
VRequired
p1187
sg18
VConnecting To Biology
p1188
sg20
VPaperback
p1189
sg22
g515
sg24
F17.5
sasg38
V367483
p1190
sg40
VE-01
p1191
sa(dp1192
g8
VSTAFF
p1193
sg10
(lp1194
(dp1195
g13
I9780738022048
sg14
VHartney
p1196
sg16
VRequired
p1197
sg18
VConnecting To Biology
p1198
sg20
VPaperback
p1199
sg22
g515
sg24
F17.5
sasg38
V367484
p1200
sg40
VE-02
p1201
sa(dp1202
g8
VSTAFF
p1203
sg10
(lp1204
(dp1205
g13
I9780738022048
sg14
VHartney
p1206
sg16
VRequired
p1207
sg18
VConnecting To Biology
p1208
sg20
VPaperback
p1209
sg22
g515
sg24
F17.5
sasg38
V367485
p1210
sg40
VE-03
p1211
sa(dp1212
g8
VSTAFF
p1213
sg10
(lp1214
(dp1215
g13
I9780738022048
sg14
VHartney
p1216
sg16
VRequired
p1217
sg18
VConnecting To Biology
p1218
sg20
VPaperback
p1219
sg22
g515
sg24
F17.5
sasg38
V367486
p1220
sg40
VE-04
p1221
sasg38
V97812
p1222
sg40
VBIO111L
p1223
sa(dp1224
g5
(lp1225
(dp1226
g8
VSTAFF
p1227
sg10
(lp1228
sg38
V367488
p1229
sg40
VE-01
p1230
sa(dp1231
g8
VSTAFF,
p1232
sg10
(lp1233
sg38
V367489
p1234
sg40
VE-02
p1235
sa(dp1236
g8
VSTAFF
p1237
sg10
(lp1238
sg38
V367490
p1239
sg40
VE-03
p1240
sa(dp1241
g8
VSTAFF
p1242
sg10
(lp1243
sg38
V367491
p1244
sg40
VE-04
p1245
sasg38
V97814
p1246
sg40
VBIO115A
p1247
sa(dp1248
g5
(lp1249
(dp1250
g8
VSTAFF
p1251
sg10
(lp1252
sg38
V367492
p1253
sg40
VE-01
p1254
sa(dp1255
g8
VSTAFF
p1256
sg10
(lp1257
sg38
V367493
p1258
sg40
VE-02
p1259
sa(dp1260
g8
VSTAFF
p1261
sg10
(lp1262
sg38
V367494
p1263
sg40
VE-03
p1264
sa(dp1265
g8
VSTAFF
p1266
sg10
(lp1267
sg38
V367495
p1268
sg40
VE-04
p1269
sasg38
V97815
p1270
sg40
VBIO115L
p1271
sa(dp1272
g5
(lp1273
(dp1274
g8
VSTAFF
p1275
sg10
(lp1276
sg38
V367497
p1277
sg40
VE-01
p1278
sa(dp1279
g8
VSTAFF
p1280
sg10
(lp1281
sg38
V367498
p1282
sg40
VE-02
p1283
sa(dp1284
g8
VSTAFF
p1285
sg10
(lp1286
sg38
V367499
p1287
sg40
VE-03
p1288
sa(dp1289
g8
VSTAFF,
p1290
sg10
(lp1291
sg38
V367500
p1292
sg40
VE-04
p1293
sasg38
V97817
p1294
sg40
VBIO211L
p1295
sa(dp1296
g5
(lp1297
(dp1298
g8
VQuestad
p1299
sg10
(lp1300
sg38
V367501
p1301
sg40
VE-01
p1302
sasg38
V97940
p1303
sg40
VBIO299A
p1304
sa(dp1305
g5
(lp1306
(dp1307
g8
VSTAFF
p1308
sg10
(lp1309
sg38
V367505
p1310
sg40
VE-01
p1311
sasg38
V97821
p1312
sg40
VBIO488S
p1313
sasg469
VBIO
p1314
sg38
V4760
p1315
sg40
VBIOLOGY
p1316
sa(dp1317
g2
(lp1318
(dp1319
g5
(lp1320
(dp1321
g8
VNG
p1322
sg10
(lp1323
(dp1324
g13
I9780132554343
sg14
VGhilani
p1325
sg16
VRequired
p1326
sg18
VElementary Surveying
p1327
sg20
VHardback
p1328
sg22
V13
p1329
sg24
F176.25
sa(dp1330
g13
I9780132555104
sg14
VGhilani (Db*)
p1331
sg16
VOptional
p1332
sg18
VElementary Surveying (Coursesmart)
p1333
sg20
VEbook
p1334
sg22
V13
p1335
sg24
F74.0
sasg38
V367510
p1336
sg40
VE-01
p1337
sasg38
V97824
p1338
sg40
VCE220
p1339
sa(dp1340
g5
(lp1341
(dp1342
g8
VYe
p1343
sg10
(lp1344
(dp1345
g13
I9780471173960
sg14
VWright
p1346
sg16
VRequired
p1347
sg18
VTransportation Engineering
p1348
sg20
VCloth
p1349
sg22
g590
sg24
F184.7
sasg38
V367513
p1350
sg40
VE-01
p1351
sa(dp1352
g8
VYe,
p1353
sg10
(lp1354
(dp1355
g13
I9780471173960
sg14
VWright
p1356
sg16
VRequired
p1357
sg18
VTransportation Engineering
p1358
sg20
VCloth
p1359
sg22
g590
sg24
F184.7
sasg38
V367514
p1360
sg40
VE-02
p1361
sa(dp1362
g8
VWU
p1363
sg10
(lp1364
(dp1365
g13
I9780471173960
sg14
VWright
p1366
sg16
VRequired
p1367
sg18
VTransportation Engineering
p1368
sg20
VCloth
p1369
sg22
g590
sg24
F184.7
sasg38
V367515
p1370
sg40
VE-03
p1371
sasg38
V97826
p1372
sg40
VCE223
p1373
sa(dp1374
g5
(lp1375
(dp1376
g8
VCHIANG
p1377
sg10
(lp1378
(dp1379
g13
I9780073376301
sg14
VBlank
p1380
sg16
VRequired
p1381
sg18
VEngineering Economy
p1382
sg20
VHardback
p1383
sg22
g75
sg24
F180.0
sa(dp1384
g13
I9780077352967
sg14
VBlank (Db*)
p1385
sg16
VOptional
p1386
sg18
VEngineering Economy (Coursesmart)
p1387
sg20
VEbook
p1388
sg22
g75
sg24
F96.0
sasg38
V367519
p1389
sg40
VE-01
p1390
sasg38
V97828
p1391
sg40
VCE301
p1392
sa(dp1393
g5
(lp1394
(dp1395
g8
VPEREZ
p1396
sg10
(lp1397
(dp1398
g13
I9780073401096
sg14
VLeet
p1399
sg16
VRequired
p1400
sg18
VFundamentals Of Structural Analysis
p1401
sg20
VHardback
p1402
sg22
g590
sg24
F184.7
sa(dp1403
g13
I9780077305987
sg14
VLeet (Db*)
p1404
sg16
VOptional
p1405
sg18
VFundamentals Of Structural Analysis (Coursesmart)
p1406
sg20
VEbook
p1407
sg22
g590
sg24
F98.5
sasg38
V367520
p1408
sg40
VE-01
p1409
sa(dp1410
g8
VPEREZ
p1411
sg10
(lp1412
(dp1413
g13
I9780073401096
sg14
VLeet
p1414
sg16
VRequired
p1415
sg18
VFundamentals Of Structural Analysis
p1416
sg20
VHardback
p1417
sg22
g590
sg24
F184.7
sa(dp1418
g13
I9780077305987
sg14
VLeet (Db*)
p1419
sg16
VOptional
p1420
sg18
VFundamentals Of Structural Analysis (Coursesmart)
p1421
sg20
VEbook
p1422
sg22
g590
sg24
F98.5
sasg38
V367521
p1423
sg40
VE-02
p1424
sa(dp1425
g8
VWANG
p1426
sg10
(lp1427
(dp1428
g13
I9780073401096
sg14
VLeet
p1429
sg16
VRequired
p1430
sg18
VFundamentals Of Structural Analysis
p1431
sg20
VHardback
p1432
sg22
g590
sg24
F184.7
sa(dp1433
g13
I9780077305987
sg14
VLeet (Db*)
p1434
sg16
VOptional
p1435
sg18
VFundamentals Of Structural Analysis (Coursesmart)
p1436
sg20
VEbook
p1437
sg22
g590
sg24
F98.5
sasg38
V367522
p1438
sg40
VE-03
p1439
sasg38
V97829
p1440
sg40
VCE305
p1441
sa(dp1442
g5
(lp1443
(dp1444
g8
VANDREI
p1445
sg10
(lp1446
(dp1447
g13
I9780132368681
sg14
VCoduto
p1448
sg16
VRequired
p1449
sg18
VGeotechnical Engineering
p1450
sg20
VHardback
p1451
sg22
g515
sg24
F180.95
sa(dp1452
g13
I9780136081418
sg14
VCoduto (Db*)
p1453
sg16
VOptional
p1454
sg18
VGeotechnical Engineering (Coursesmart)
p1455
sg20
VEbook
p1456
sg22
g515
sg24
F76.0
sasg38
V367523
p1457
sg40
VE-01
p1458
sa(dp1459
g8
VANDREI
p1460
sg10
(lp1461
(dp1462
g13
I9780132368681
sg14
VCoduto
p1463
sg16
VRequired
p1464
sg18
VGeotechnical Engineering
p1465
sg20
VHardback
p1466
sg22
g515
sg24
F180.95
sa(dp1467
g13
I9780136081418
sg14
VCoduto (Db*)
p1468
sg16
VOptional
p1469
sg18
VGeotechnical Engineering (Coursesmart)
p1470
sg20
VEbook
p1471
sg22
g515
sg24
F76.0
sasg38
V367524
p1472
sg40
VE-02
p1473
sasg38
V97830
p1474
sg40
VCE325
p1475
sa(dp1476
g5
(lp1477
(dp1478
g8
VLamb
p1479
sg10
(lp1480
(dp1481
g13
I9780534494834
sg14
VCruise
p1482
sg16
VRequired
p1483
sg18
VElementary Hydraulics
p1484
sg20
Nsg22
Nsg24
F188.75
sasg38
V367527
p1485
sg40
VE-01
p1486
sa(dp1487
g8
VPalomo Martinez
p1488
sg10
(lp1489
(dp1490
g13
I9780534494834
sg14
VCruise
p1491
sg16
VRequired
p1492
sg18
VElementary Hydraulics
p1493
sg20
Nsg22
Nsg24
F188.75
sasg38
V367528
p1494
sg40
VE-02
p1495
sa(dp1496
g8
VMartinez, Palomo
p1497
sg10
(lp1498
(dp1499
g13
I9780534494834
sg14
VCruise
p1500
sg16
VRequired
p1501
sg18
VElementary Hydraulics
p1502
sg20
Nsg22
Nsg24
F188.75
sasg38
V367529
p1503
sg40
VE-03
p1504
sasg38
V97832
p1505
sg40
VCE332
p1506
sa(dp1507
g5
(lp1508
(dp1509
g8
VBERK
p1510
sg10
(lp1511
sg38
V367536
p1512
sg40
VE-01
p1513
sasg38
V97834
p1514
sg40
VCE362
p1515
sa(dp1516
g5
(lp1517
(dp1518
g8
VWANG
p1519
sg10
(lp1520
(dp1521
g13
I9781111576004
sg14
VSegui
p1522
sg16
VRequired
p1523
sg18
VSteel Design
p1524
sg20
VHardback
p1525
sg22
g412
sg24
F209.7
sa(dp1526
g13
I9781133348184
sg14
VSegui (Db*)
p1527
sg16
VOptional
p1528
sg18
VSteel Design (Coursesmart)
p1529
sg20
Nsg22
Nsg24
F113.5
sasg38
V367538
p1530
sg40
VE-01
p1531
sasg38
V97836
p1532
sg40
VCE406
p1533
sa(dp1534
g5
(lp1535
(dp1536
g8
VWANG
p1537
sg10
(lp1538
(dp1539
g13
I9780470279274
sg14
VMccormac
p1540
sg16
VRequired
p1541
sg18
VDesign Of Reinforced Concrete Aci 318-08 Code Ed
p1542
sg20
VHardback
p1543
sg22
g23
sg24
F205.0
sa(dp1544
g13
I9780870312649
sg14
VAmer Concrete
p1545
sg16
VRequired
p1546
sg18
VBuilding Code Require Struct Concrete & Comm
p1547
sg20
Nsg22
Nsg24
F80.0
sa(dp1548
g13
I9780470416204
sg14
VMccormac (Db*)
p1549
sg16
VOptional
p1550
sg18
VDesign Of Reinforced Concrete (Coursesmart Digital)
p1551
sg20
VEbook
p1552
sg22
g23
sg24
F105.5
sasg38
V367539
p1553
sg40
VE-01
p1554
sasg38
V97837
p1555
sg40
VCE421
p1556
sa(dp1557
g5
(lp1558
(dp1559
g8
VWU
p1560
sg10
(lp1561
sg38
V379882
p1562
sg40
VE-01
p1563
sasg38
V99382
p1564
sg40
VCE429
p1565
sa(dp1566
g5
(lp1567
(dp1568
g8
VYadegari
p1569
sg10
(lp1570
(dp1571
g13
I9780071455398
sg14
VBreyer
p1572
sg16
VRequired
p1573
sg18
VDesign Of Wood Structures Asd/Lrfd
p1574
sg20
VHardback
p1575
sg22
g169
sg24
F99.95
sa(dp1576
g13
I9780784410851
sg14
VAmer Soc Civil
p1577
sg16
VRequired
p1578
sg18
VMinimum Design Loads For Buildings & Other Structures (Rev)
p1579
sg20
Nsg22
Nsg24
F165.0
sasg38
V379884
p1580
sg40
VE-01
p1581
sasg38
V99384
p1582
sg40
VCE433
p1583
sa(dp1584
g5
(lp1585
(dp1586
g8
VLamb
p1587
sg10
(lp1588
(dp1589
g13
I9780131424241
sg14
VMccuen
p1590
sg16
VRequired
p1591
sg18
VHydrologic Analysis & Design
p1592
sg20
VPaperback
p1593
sg22
g115
sg24
F142.5
sasg38
V379886
p1594
sg40
VE-01
p1595
sasg38
V99386
p1596
sg40
VCE451
p1597
sa(dp1598
g5
(lp1599
(dp1600
g8
VANDREI
p1601
sg10
(lp1602
sg38
V367542
p1603
sg40
VE-01
p1604
sa(dp1605
g8
VCHENG
p1606
sg10
(lp1607
sg38
V367543
p1608
sg40
VE-02
p1609
sa(dp1610
g8
VJIA
p1611
sg10
(lp1612
sg38
V367544
p1613
sg40
VE-03
p1614
sa(dp1615
g8
VHERNANDEZ
p1616
sg10
(lp1617
sg38
V367545
p1618
sg40
VE-04
p1619
sa(dp1620
g8
VYadegari
p1621
sg10
(lp1622
sg38
V367546
p1623
sg40
VE-05
p1624
sa(dp1625
g8
VMARCIUSKA
p1626
sg10
(lp1627
sg38
V367547
p1628
sg40
VE-06
p1629
sa(dp1630
g8
VLamb
p1631
sg10
(lp1632
sg38
V367548
p1633
sg40
VE-07
p1634
sa(dp1635
g8
VLamb
p1636
sg10
(lp1637
sg38
V380188
p1638
sg40
VE-08
p1639
sa(dp1640
g8
VCHENG
p1641
sg10
(lp1642
sg38
V380189
p1643
sg40
VE-09
p1644
sasg38
V97839
p1645
sg40
VCE492
p1646
sa(dp1647
g5
(lp1648
(dp1649
g8
VJIA,
p1650
sg10
(lp1651
sg38
V367549
p1652
sg40
VE-01
p1653
sa(dp1654
g8
VYEUNG,
p1655
sg10
(lp1656
sg38
V379887
p1657
sg40
VE-02
p1658
sasg38
V97840
p1659
sg40
VCE499
p1660
sa(dp1661
g5
(lp1662
(dp1663
g8
VNG
p1664
sg10
(lp1665
sg38
V367511
p1666
sg40
VE-01
p1667
sasg38
V97825
p1668
sg40
VCE220L
p1669
sa(dp1670
g5
(lp1671
(dp1672
g8
VYe
p1673
sg10
(lp1674
sg38
V367516
p1675
sg40
VE-01
p1676
sa(dp1677
g8
VYe,
p1678
sg10
(lp1679
sg38
V367517
p1680
sg40
VE-02
p1681
sa(dp1682
g8
VWU
p1683
sg10
(lp1684
sg38
V367518
p1685
sg40
VE-03
p1686
sasg38
V97827
p1687
sg40
VCE223L
p1688
sa(dp1689
g5
(lp1690
(dp1691
g8
VANDREI
p1692
sg10
(lp1693
(dp1694
g13
I9780757595332
sg14
VKitch
p1695
sg16
VRequired
p1696
sg18
VGeotechnical Engineering Laboratory(Revised Prtg)
p1697
sg20
Nsg22
Nsg24
F44.0
sasg38
V367525
p1698
sg40
VE-01
p1699
sa(dp1700
g8
VANDREI
p1701
sg10
(lp1702
(dp1703
g13
I9780757595332
sg14
VKitch
p1704
sg16
VRequired
p1705
sg18
VGeotechnical Engineering Laboratory(Revised Prtg)
p1706
sg20
Nsg22
Nsg24
F44.0
sasg38
V367526
p1707
sg40
VE-02
p1708
sasg38
V97831
p1709
sg40
VCE327L
p1710
sa(dp1711
g5
(lp1712
(dp1713
g8
VLamb
p1714
sg10
(lp1715
sg38
V367530
p1716
sg40
VE-01
p1717
sa(dp1718
g8
VLamb
p1719
sg10
(lp1720
sg38
V367531
p1721
sg40
VE-02
p1722
sa(dp1723
g8
VMartinez, Palomo
p1724
sg10
(lp1725
sg38
V367532
p1726
sg40
VE-03
p1727
sa(dp1728
g8
VPalomo Martinez
p1729
sg10
(lp1730
sg38
V367533
p1731
sg40
VE-04
p1732
sa(dp1733
g8
VMartinez, Palomo
p1734
sg10
(lp1735
sg38
V367534
p1736
sg40
VE-05
p1737
sa(dp1738
g8
VMartinez, Palomo
p1739
sg10
(lp1740
sg38
V367535
p1741
sg40
VE-06
p1742
sasg38
V97833
p1743
sg40
VCE332L
p1744
sa(dp1745
g5
(lp1746
(dp1747
g8
VBERK
p1748
sg10
(lp1749
sg38
V367537
p1750
sg40
VE-01
p1751
sasg38
V97835
p1752
sg40
VCE362A
p1753
sa(dp1754
g5
(lp1755
(dp1756
g8
VANDREI
p1757
sg10
(lp1758
(dp1759
g13
I9780136110583
sg14
VMamlouk
p1760
sg16
VRequired
p1761
sg18
VMaterials For Civil Construction Engineering
p1762
sg20
VHardback
p1763
sg22
g115
sg24
F146.25
sa(dp1764
g13
I9780136110330
sg14
VMamlouk (Db*)
p1765
sg16
VOptional
p1766
sg18
VMaterials For Civil & Construction Engineers (Coursesmart)
p1767
sg20
VEbook
p1768
sg22
g115
sg24
F61.0
sasg38
V367540
p1769
sg40
VE-01
p1770
sa(dp1771
g8
VANDREI
p1772
sg10
(lp1773
(dp1774
g13
I9780136110583
sg14
VMamlouk
p1775
sg16
VRequired
p1776
sg18
VMaterials For Civil Construction Engineering
p1777
sg20
VHardback
p1778
sg22
g115
sg24
F146.25
sa(dp1779
g13
I9780136110330
sg14
VMamlouk (Db*)
p1780
sg16
VOptional
p1781
sg18
VMaterials For Civil & Construction Engineers (Coursesmart)
p1782
sg20
VEbook
p1783
sg22
g115
sg24
F61.0
sasg38
V367541
p1784
sg40
VE-02
p1785
sasg38
V97838
p1786
sg40
VCE422L
p1787
sa(dp1788
g5
(lp1789
(dp1790
g8
VWU
p1791
sg10
(lp1792
sg38
V379883
p1793
sg40
VE-01
p1794
sasg38
V99383
p1795
sg40
VCE429L
p1796
sa(dp1797
g5
(lp1798
(dp1799
g8
VYadegari
p1800
sg10
(lp1801
sg38
V379885
p1802
sg40
VE-01
p1803
sasg38
V99385
p1804
sg40
VCE433L
p1805
sasg469
VCE
p1806
sg38
V4763
p1807
sg40
VCIVIL ENGINEERING
p1808
sa(dp1809
g2
(lp1810
(dp1811
g5
(lp1812
(dp1813
g8
VKolar, Chris
p1814
sg10
(lp1815
(dp1816
g13
I9780131145191
sg14
VKochar-Bryant
p1817
sg16
VRequired
p1818
sg18
VCollaboration & System Coordination For Students With Special Needs
p1819
sg20
Nsg22
Nsg24
F110.4
sasg38
V383511
p1820
sg40
V01
p1821
sasg38
V100840
p1822
sg40
VCEUEDS 526
p1823
sa(dp1824
g5
(lp1825
(dp1826
g8
VWalker, Pamela
p1827
sg10
(lp1828
(dp1829
g13
I9781934575079
sg14
VWolfberg
p1830
sg16
VRequired
p1831
sg18
VLearners On The Autistic Spectrum
p1832
sg20
Nsg22
Nsg24
F59.0
sa(dp1833
g13
I9780439443821
sg14
VLord
p1834
sg16
VRequired
p1835
sg18
VRules
p1836
sg20
Nsg22
Nsg24
F16.0
sasg38
V383490
p1837
sg40
V01
p1838
sasg38
V100824
p1839
sg40
VCEUEDS 531
p1840
sa(dp1841
g5
(lp1842
(dp1843
g8
VBromley, Barbara
p1844
sg10
(lp1845
(dp1846
g13
I9780131181700
sg14
VHeflin
p1847
sg16
VRequired
p1848
sg18
VStudents With Autism Spectrum Disorders
p1849
sg20
Nsg22
Nsg24
F56.0
sasg38
V383510
p1850
sg40
V01
p1851
sasg38
V100839
p1852
sg40
VCEUEDS 532
p1853
sasg469
VCEU
p1854
sg38
V4786
p1855
sg40
VCONTINUING EDUCATION
p1856
sa(dp1857
g2
(lp1858
(dp1859
g5
(lp1860
(dp1861
g8
VLI
p1862
sg10
(lp1863
sg38
V380190
p1864
sg40
V01
p1865
sasg38
V100644
p1866
sg40
VCHE299
p1867
sasg469
VCHE
p1868
sg38
V4764
p1869
sg40
VCHEM & MATRLS ENGR
p1870
sa(dp1871
g2
(lp1872
(dp1873
g5
(lp1874
(dp1875
g8
VPAGE
p1876
sg10
(lp1877
(dp1878
g13
I9781256287018
sg14
VMcmurry*
p1879
sg16
VRequired
p1880
sg18
VChemistry W/Masteringchemistry, Solutions Manual, & Iclicker Rebate
p1881
sg20
Nsg22
Nsg24
F201.15
sa(dp1882
g13
I9780321723437
sg14
VPearson
p1883
sg16
VPart of Set
p1884
sg18
VMasteringchemistry Access Code (W/E-Book)
p1885
sg20
Nsg22
Nsg24
F111.75
sa(dp1886
g13
I9781256363552
sg14
VMcmurry
p1887
sg16
VPart of Set
p1888
sg18
VChemistry (Custom)
p1889
sg20
Nsg22
Nsg24
F164.4
sa(dp1890
g13
I9780321727268
sg14
VMcmurry
p1891
sg16
VPart of Set
p1892
sg18
VChemistry Students Solutions Manual
p1893
sg20
VPaperback
p1894
sg22
g169
sg24
F78.65
sa(dp1895
g13
I9780321729903
sg14
VPearson
p1896
sg16
VPart of Set
p1897
sg18
VMastering Chemistry Sac (No Ebook) T/A Mcmurry
p1898
sg20
VAccess Code
p1899
sg22
g169
sg24
F64.7
sasg38
V379853
p1900
sg40
VE-0I
p1901
sa(dp1902
g8
VPAGE,
p1903
sg10
(lp1904
(dp1905
g13
I9781256287018
sg14
VMcmurry*
p1906
sg16
VRequired
p1907
sg18
VChemistry W/Masteringchemistry, Solutions Manual, & Iclicker Rebate
p1908
sg20
Nsg22
Nsg24
F201.15
sa(dp1909
g13
I9780321723437
sg14
VPearson
p1910
sg16
VPart of Set
p1911
sg18
VMasteringchemistry Access Code (W/E-Book)
p1912
sg20
Nsg22
Nsg24
F111.75
sa(dp1913
g13
I9781256363552
sg14
VMcmurry
p1914
sg16
VPart of Set
p1915
sg18
VChemistry (Custom)
p1916
sg20
Nsg22
Nsg24
F164.4
sa(dp1917
g13
I9780321727268
sg14
VMcmurry
p1918
sg16
VPart of Set
p1919
sg18
VChemistry Students Solutions Manual
p1920
sg20
VPaperback
p1921
sg22
g169
sg24
F78.65
sa(dp1922
g13
I9780321729903
sg14
VPearson
p1923
sg16
VPart of Set
p1924
sg18
VMastering Chemistry Sac (No Ebook) T/A Mcmurry
p1925
sg20
VAccess Code
p1926
sg22
g169
sg24
F64.7
sasg38
V367550
p1927
sg40
VE-OI
p1928
sasg38
V97841
p1929
sg40
VCHM121
p1930
sa(dp1931
g5
(lp1932
(dp1933
g8
VLabadzhyan
p1934
sg10
(lp1935
(dp1936
g13
I9781256287018
sg14
VMcmurry*
p1937
sg16
VRequired
p1938
sg18
VChemistry W/Masteringchemistry, Solutions Manual, & Iclicker Rebate
p1939
sg20
Nsg22
Nsg24
F201.15
sa(dp1940
g13
I9780321723437
sg14
VPearson
p1941
sg16
VPart of Set
p1942
sg18
VMasteringchemistry Access Code (W/E-Book)
p1943
sg20
Nsg22
Nsg24
F111.75
sa(dp1944
g13
I9781256363552
sg14
VMcmurry
p1945
sg16
VPart of Set
p1946
sg18
VChemistry (Custom)
p1947
sg20
Nsg22
Nsg24
F164.4
sa(dp1948
g13
I9780321727268
sg14
VMcmurry
p1949
sg16
VPart of Set
p1950
sg18
VChemistry Students Solutions Manual
p1951
sg20
VPaperback
p1952
sg22
g169
sg24
F78.65
sa(dp1953
g13
I9780321729903
sg14
VPearson
p1954
sg16
VPart of Set
p1955
sg18
VMastering Chemistry Sac (No Ebook) T/A Mcmurry
p1956
sg20
VAccess Code
p1957
sg22
g169
sg24
F64.7
sasg38
V367555
p1958
sg40
VE-01
p1959
sa(dp1960
g8
VMargolese
p1961
sg10
(lp1962
(dp1963
g13
I9781256287018
sg14
VMcmurry*
p1964
sg16
VRequired
p1965
sg18
VChemistry W/Masteringchemistry, Solutions Manual, & Iclicker Rebate
p1966
sg20
Nsg22
Nsg24
F201.15
sa(dp1967
g13
I9780321723437
sg14
VPearson
p1968
sg16
VPart of Set
p1969
sg18
VMasteringchemistry Access Code (W/E-Book)
p1970
sg20
Nsg22
Nsg24
F111.75
sa(dp1971
g13
I9781256363552
sg14
VMcmurry
p1972
sg16
VPart of Set
p1973
sg18
VChemistry (Custom)
p1974
sg20
Nsg22
Nsg24
F164.4
sa(dp1975
g13
I9780321727268
sg14
VMcmurry
p1976
sg16
VPart of Set
p1977
sg18
VChemistry Students Solutions Manual
p1978
sg20
VPaperback
p1979
sg22
g169
sg24
F78.65
sa(dp1980
g13
I9780321729903
sg14
VPearson
p1981
sg16
VPart of Set
p1982
sg18
VMastering Chemistry Sac (No Ebook) T/A Mcmurry
p1983
sg20
VAccess Code
p1984
sg22
g169
sg24
F64.7
sasg38
V367556
p1985
sg40
VE-02
p1986
sasg38
V97843
p1987
sg40
VCHM122
p1988
sa(dp1989
g5
(lp1990
(dp1991
g8
VTERRAZAS
p1992
sg10
(lp1993
(dp1994
g13
I9781256287018
sg14
VMcmurry*
p1995
sg16
VRequired
p1996
sg18
VChemistry W/Masteringchemistry, Solutions Manual, & Iclicker Rebate
p1997
sg20
Nsg22
Nsg24
F201.15
sa(dp1998
g13
I9780321723437
sg14
VPearson
p1999
sg16
VPart of Set
p2000
sg18
VMasteringchemistry Access Code (W/E-Book)
p2001
sg20
Nsg22
Nsg24
F111.75
sa(dp2002
g13
I9781256363552
sg14
VMcmurry
p2003
sg16
VPart of Set
p2004
sg18
VChemistry (Custom)
p2005
sg20
Nsg22
Nsg24
F164.4
sa(dp2006
g13
I9780321727268
sg14
VMcmurry
p2007
sg16
VPart of Set
p2008
sg18
VChemistry Students Solutions Manual
p2009
sg20
VPaperback
p2010
sg22
g169
sg24
F78.65
sa(dp2011
g13
I9780321729903
sg14
VPearson
p2012
sg16
VPart of Set
p2013
sg18
VMastering Chemistry Sac (No Ebook) T/A Mcmurry
p2014
sg20
VAccess Code
p2015
sg22
g169
sg24
F64.7
sasg38
V367561
p2016
sg40
VE-01
p2017
sa(dp2018
g8
VLabadzhyan
p2019
sg10
(lp2020
(dp2021
g13
I9781256287018
sg14
VMcmurry*
p2022
sg16
VRequired
p2023
sg18
VChemistry W/Masteringchemistry, Solutions Manual, & Iclicker Rebate
p2024
sg20
Nsg22
Nsg24
F201.15
sa(dp2025
g13
I9780321723437
sg14
VPearson
p2026
sg16
VPart of Set
p2027
sg18
VMasteringchemistry Access Code (W/E-Book)
p2028
sg20
Nsg22
Nsg24
F111.75
sa(dp2029
g13
I9781256363552
sg14
VMcmurry
p2030
sg16
VPart of Set
p2031
sg18
VChemistry (Custom)
p2032
sg20
Nsg22
Nsg24
F164.4
sa(dp2033
g13
I9780321727268
sg14
VMcmurry
p2034
sg16
VPart of Set
p2035
sg18
VChemistry Students Solutions Manual
p2036
sg20
VPaperback
p2037
sg22
g169
sg24
F78.65
sa(dp2038
g13
I9780321729903
sg14
VPearson
p2039
sg16
VPart of Set
p2040
sg18
VMastering Chemistry Sac (No Ebook) T/A Mcmurry
p2041
sg20
VAccess Code
p2042
sg22
g169
sg24
F64.7
sasg38
V367562
p2043
sg40
VE-02
p2044
sasg38
V97845
p2045
sg40
VCHM123
p2046
sa(dp2047
g5
(lp2048
(dp2049
g8
VPAGE
p2050
sg10
(lp2051
(dp2052
g13
I9780321633859
sg14
VBruice*
p2053
sg16
VRequired
p2054
sg18
VEssential Organic Chemistry W/S.G & Sol Man
p2055
sg20
VKit/Set/Package
p2056
sg22
g515
sg24
F173.05
sa(dp2057
g13
I9780321677013
sg14
VBruice (Db*)
p2058
sg16
VOptional
p2059
sg18
VEssential Organic Chemistry (Coursesmart Digital)
p2060
sg20
VEbook
p2061
sg22
g515
sg24
F99.0
sa(dp2062
g13
I9780321592583
sg14
VBruice
p2063
sg16
VPart of Set
p2064
sg18
VEssential Organic Chemistry S.G.  & Sol Man
p2065
sg20
VPaperback
p2066
sg22
g515
sg24
F74.35
sa(dp2067
g13
I9780321596956
sg14
VBruice
p2068
sg16
VPart of Set
p2069
sg18
VEssential Organic Chemistry
p2070
sg20
VHardback
p2071
sg22
g515
sg24
F173.05
sasg38
V367567
p2072
sg40
VE-01
p2073
sasg38
V97847
p2074
sg40
VCHM201
p2075
sa(dp2076
g5
(lp2077
(dp2078
g8
VSTRENG
p2079
sg10
(lp2080
(dp2081
g13
I9781429275033
sg14
VHarris
p2082
sg16
VRequired
p2083
sg18
VExploring Chemical Analysis
p2084
sg20
VPaperback
p2085
sg22
g412
sg24
F137.5
sa(dp2086
g13
I9781464106422
sg14
VHarris (Db*)
p2087
sg16
VOptional
p2088
sg18
VExploring Chemical Analysis (Coursesmart)
p2089
sg20
VEbook
p2090
sg22
g412
sg24
F56.0
sasg38
V367568
p2091
sg40
VE-01
p2092
sasg38
V97848
p2093
sg40
VCHM221
p2094
sa(dp2095
g5
(lp2096
(dp2097
g8
VFLORES
p2098
sg10
(lp2099
(dp2100
g13
I9780321647139
sg14
VWade*
p2101
sg16
VRequired
p2102
sg18
VOrganic Chemistry W/Ssm & Ace
p2103
sg20
VKit/Set/Package
p2104
sg22
g75
sg24
F270.25
sa(dp2105
g13
I9780321598745
sg14
VWade (Db*)
p2106
sg16
VOptional
p2107
sg18
VOrganic Chemistry (Coursesmart Digital)
p2108
sg20
VEbook
p2109
sg22
g75
sg24
F129.0
sa(dp2110
g13
I9780321592316
sg14
VWade
p2111
sg16
VPart of Set
p2112
sg18
VOrganic Chemistry
p2113
sg20
VHardback
p2114
sg22
g75
sg24
F216.2
sa(dp2115
g13
I9780321598714
sg14
VWade
p2116
sg16
VPart of Set
p2117
sg18
VOrganic Chemistry Sol Man
p2118
sg20
VPaperback
p2119
sg22
g75
sg24
F121.0
sa(dp2120
g13
I9780321616173
sg14
VWade
p2121
sg16
VPart of Set
p2122
sg18
VAce Acces Kit Organic Chemistry
p2123
sg20
VAccess Code
p2124
sg22
g75
sg24
F35.3
sasg38
V367576
p2125
sg40
VE-01
p2126
sasg38
V97851
p2127
sg40
VCHM314
p2128
sa(dp2129
g5
(lp2130
(dp2131
g8
VFLORES
p2132
sg10
(lp2133
(dp2134
g13
I9780321647139
sg14
VWade*
p2135
sg16
VRequired
p2136
sg18
VOrganic Chemistry W/Ssm & Ace
p2137
sg20
VKit/Set/Package
p2138
sg22
g75
sg24
F270.25
sa(dp2139
g13
I9780321598745
sg14
VWade (Db*)
p2140
sg16
VOptional
p2141
sg18
VOrganic Chemistry (Coursesmart Digital)
p2142
sg20
VEbook
p2143
sg22
g75
sg24
F129.0
sa(dp2144
g13
I9780321592316
sg14
VWade
p2145
sg16
VPart of Set
p2146
sg18
VOrganic Chemistry
p2147
sg20
VHardback
p2148
sg22
g75
sg24
F216.2
sa(dp2149
g13
I9780321598714
sg14
VWade
p2150
sg16
VPart of Set
p2151
sg18
VOrganic Chemistry Sol Man
p2152
sg20
VPaperback
p2153
sg22
g75
sg24
F121.0
sa(dp2154
g13
I9780321616173
sg14
VWade
p2155
sg16
VPart of Set
p2156
sg18
VAce Acces Kit Organic Chemistry
p2157
sg20
VAccess Code
p2158
sg22
g75
sg24
F35.3
sasg38
V367577
p2159
sg40
VE-01
p2160
sasg38
V97852
p2161
sg40
VCHM315
p2162
sa(dp2163
g5
(lp2164
(dp2165
g8
VKLAVETTER
p2166
sg10
(lp2167
(dp2168
g13
I9780321647139
sg14
VWade*
p2169
sg16
VRequired
p2170
sg18
VOrganic Chemistry W/Ssm & Ace
p2171
sg20
VKit/Set/Package
p2172
sg22
g75
sg24
F270.25
sa(dp2173
g13
I9780321598745
sg14
VWade (Db*)
p2174
sg16
VOptional
p2175
sg18
VOrganic Chemistry (Coursesmart Digital)
p2176
sg20
VEbook
p2177
sg22
g75
sg24
F129.0
sa(dp2178
g13
I9780321592316
sg14
VWade
p2179
sg16
VPart of Set
p2180
sg18
VOrganic Chemistry
p2181
sg20
VHardback
p2182
sg22
g75
sg24
F216.2
sa(dp2183
g13
I9780321598714
sg14
VWade
p2184
sg16
VPart of Set
p2185
sg18
VOrganic Chemistry Sol Man
p2186
sg20
VPaperback
p2187
sg22
g75
sg24
F121.0
sa(dp2188
g13
I9780321616173
sg14
VWade
p2189
sg16
VPart of Set
p2190
sg18
VAce Acces Kit Organic Chemistry
p2191
sg20
VAccess Code
p2192
sg22
g75
sg24
F35.3
sasg38
V367578
p2193
sg40
VE-01
p2194
sasg38
V97853
p2195
sg40
VCHM316
p2196
sa(dp2197
g5
(lp2198
(dp2199
g8
VOPOTOWSKY
p2200
sg10
(lp2201
(dp2202
g13
I9780199730841
sg14
VMckee
p2203
sg16
VRequired
p2204
sg18
VBiochemistry
p2205
sg20
VHardback
p2206
sg22
g412
sg24
F154.95
sa(dp2207
g13
I9780199730971
sg14
VMckee
p2208
sg16
VOptional
p2209
sg18
VBiochemistry St S.G/Sol Man
p2210
sg20
VPaperback
p2211
sg22
g412
sg24
F49.95
sasg38
V367583
p2212
sg40
VE-01
p2213
sasg38
V97857
p2214
sg40
VCHM321
p2215
sa(dp2216
g5
(lp2217
(dp2218
g8
VSTAFF
p2219
sg10
(lp2220
(dp2221
g13
I9781429224161
sg14
VNelson*
p2222
sg16
VRequired
p2223
sg18
VLehninger Principles Of Biochemistry W/E-Book Access Card
p2224
sg20
VKit/Set/Package
p2225
sg22
g412
sg24
F218.75
sa(dp2226
g13
I9781429225649
sg14
VNelson*
p2227
sg16
VRequired
p2228
sg18
VLehninger Principles Of Biochemistry (Loose-Leaf) W/E-Book Access Card
p2229
sg20
VKit/Set/Package
p2230
sg22
g412
sg24
F142.25
sa(dp2231
g13
I9781429228824
sg14
VNelson (Db*)
p2232
sg16
VOptional
p2233
sg18
VLehninger Principles Of Biochemistry  (Coursesmart Digital)
p2234
sg20
VEbook
p2235
sg22
g412
sg24
F120.0
sa(dp2236
g13
I9781429212410
sg14
VNelson
p2237
sg16
VOptional
p2238
sg18
VLehninger Principles Of Biochemistry S.G. & Sol Man
p2239
sg20
VPaperback
p2240
sg22
g412
sg24
F74.95
sa(dp2241
g13
I9780716771081
sg14
VNelson
p2242
sg16
VPart of Set
p2243
sg18
VLehninger Principles Of Biochemistry
p2244
sg20
VHardback
p2245
sg22
g412
sg24
F218.75
sa(dp2246
g13
I9781429212427
sg14
VNelson
p2247
sg16
VPart of Set
p2248
sg18
VLehninger Principles Of Biochemistry E-Book Access Card
p2249
sg20
Nsg22
Nsg24
F100.25
sasg38
V367590
p2250
sg40
VE-01
p2251
sasg38
V97859
p2252
sg40
VCHM329
p2253
sa(dp2254
g5
(lp2255
(dp2256
g8
VANZ
p2257
sg10
(lp2258
(dp2259
g13
I9780738045016
sg14
VCasalnuovo
p2260
sg16
VRequired
p2261
sg18
VChemistry 121L Lab Manual 2011-2012
p2262
sg20
Nsg22
Nsg24
F17.95
sasg38
V367551
p2263
sg40
VE-01
p2264
sa(dp2265
g8
VBogonko
p2266
sg10
(lp2267
(dp2268
g13
I9780738045016
sg14
VCasalnuovo
p2269
sg16
VRequired
p2270
sg18
VChemistry 121L Lab Manual 2011-2012
p2271
sg20
Nsg22
Nsg24
F17.95
sasg38
V367552
p2272
sg40
VE-02
p2273
sa(dp2274
g8
VLy
p2275
sg10
(lp2276
(dp2277
g13
I9780738045016
sg14
VCasalnuovo
p2278
sg16
VRequired
p2279
sg18
VChemistry 121L Lab Manual 2011-2012
p2280
sg20
Nsg22
Nsg24
F17.95
sasg38
V367553
p2281
sg40
VE-03
p2282
sa(dp2283
g8
VSTAFF,
p2284
sg10
(lp2285
(dp2286
g13
I9780738045016
sg14
VCasalnuovo
p2287
sg16
VRequired
p2288
sg18
VChemistry 121L Lab Manual 2011-2012
p2289
sg20
Nsg22
Nsg24
F17.95
sasg38
V367554
p2290
sg40
VE-04
p2291
sasg38
V97842
p2292
sg40
VCHM121L
p2293
sa(dp2294
g5
(lp2295
(dp2296
g8
VBERRY
p2297
sg10
(lp2298
(dp2299
g13
I9780738045009
sg14
VCasalnuovo
p2300
sg16
VRequired
p2301
sg18
VChemistry 122L Lab Manual 2011-2012
p2302
sg20
Nsg22
Nsg24
F17.95
sasg38
V367557
p2303
sg40
VE-01
p2304
sa(dp2305
g8
VANZ
p2306
sg10
(lp2307
(dp2308
g13
I9780738045009
sg14
VCasalnuovo
p2309
sg16
VRequired
p2310
sg18
VChemistry 122L Lab Manual 2011-2012
p2311
sg20
Nsg22
Nsg24
F17.95
sasg38
V367558
p2312
sg40
VE-02
p2313
sa(dp2314
g8
VSTAFF,
p2315
sg10
(lp2316
(dp2317
g13
I9780738045009
sg14
VCasalnuovo
p2318
sg16
VRequired
p2319
sg18
VChemistry 122L Lab Manual 2011-2012
p2320
sg20
Nsg22
Nsg24
F17.95
sasg38
V367559
p2321
sg40
VE-03
p2322
sa(dp2323
g8
VLy
p2324
sg10
(lp2325
(dp2326
g13
I9780738045009
sg14
VCasalnuovo
p2327
sg16
VRequired
p2328
sg18
VChemistry 122L Lab Manual 2011-2012
p2329
sg20
Nsg22
Nsg24
F17.95
sasg38
V367560
p2330
sg40
VE-04
p2331
sasg38
V97844
p2332
sg40
VCHM122L
p2333
sa(dp2334
g5
(lp2335
(dp2336
g8
VDANG
p2337
sg10
(lp2338
(dp2339
g13
I9780738044996
sg14
VCasalnuovo
p2340
sg16
VRequired
p2341
sg18
VChemistry 123L Lab Manual 2011-2012
p2342
sg20
Nsg22
Nsg24
F17.95
sasg38
V367563
p2343
sg40
VE-01
p2344
sa(dp2345
g8
VMargolese
p2346
sg10
(lp2347
(dp2348
g13
I9780738044996
sg14
VCasalnuovo
p2349
sg16
VRequired
p2350
sg18
VChemistry 123L Lab Manual 2011-2012
p2351
sg20
Nsg22
Nsg24
F17.95
sasg38
V367564
p2352
sg40
VE-02
p2353
sa(dp2354
g8
VMargolese
p2355
sg10
(lp2356
(dp2357
g13
I9780738044996
sg14
VCasalnuovo
p2358
sg16
VRequired
p2359
sg18
VChemistry 123L Lab Manual 2011-2012
p2360
sg20
Nsg22
Nsg24
F17.95
sasg38
V367565
p2361
sg40
VE-03
p2362
sa(dp2363
g8
VTERRAZAS
p2364
sg10
(lp2365
(dp2366
g13
I9780738044996
sg14
VCasalnuovo
p2367
sg16
VRequired
p2368
sg18
VChemistry 123L Lab Manual 2011-2012
p2369
sg20
Nsg22
Nsg24
F17.95
sasg38
V367566
p2370
sg40
VE-04
p2371
sasg38
V97846
p2372
sg40
VCHM123L
p2373
sa(dp2374
g5
(lp2375
(dp2376
g8
VTERRAZAS
p2377
sg10
(lp2378
sg38
V367569
p2379
sg40
VE-01
p2380
sa(dp2381
g8
VTERRAZAS
p2382
sg10
(lp2383
sg38
V367570
p2384
sg40
VE-02
p2385
sa(dp2386
g8
VSTRENG
p2387
sg10
(lp2388
sg38
V367571
p2389
sg40
VE-03
p2390
sasg38
V97849
p2391
sg40
VCHM221L
p2392
sa(dp2393
g5
(lp2394
(dp2395
g8
VDANG
p2396
sg10
(lp2397
sg38
V367572
p2398
sg40
VE-01
p2399
sa(dp2400
g8
VDANG
p2401
sg10
(lp2402
sg38
V367573
p2403
sg40
VE-02
p2404
sa(dp2405
g8
VSTAFF,
p2406
sg10
(lp2407
sg38
V367574
p2408
sg40
VE-03
p2409
sa(dp2410
g8
VSTAFF,
p2411
sg10
(lp2412
sg38
V367575
p2413
sg40
VE-04
p2414
sasg38
V97850
p2415
sg40
VCHM250L
p2416
sa(dp2417
g5
(lp2418
(dp2419
g8
VROBLEDO
p2420
sg10
(lp2421
(dp2422
g13
I9780470494370
sg14
VZubrick
p2423
sg16
VRequired
p2424
sg18
VOrganic Chem Lab Survival Manual
p2425
sg20
VPaperback
p2426
sg22
g23
sg24
F76.0
sa(dp2427
g13
I9780470565926
sg14
VZubrick (Db*)
p2428
sg16
VOptional
p2429
sg18
VOrganic Chem Lab Survival Manual (Coursesmart)
p2430
sg20
VEbook
p2431
sg22
g23
sg24
F37.5
sasg38
V367579
p2432
sg40
VE-01
p2433
sa(dp2434
g8
VSTAFF,
p2435
sg10
(lp2436
(dp2437
g13
I9780470494370
sg14
VZubrick
p2438
sg16
VRequired
p2439
sg18
VOrganic Chem Lab Survival Manual
p2440
sg20
VPaperback
p2441
sg22
g23
sg24
F76.0
sa(dp2442
g13
I9780470565926
sg14
VZubrick (Db*)
p2443
sg16
VOptional
p2444
sg18
VOrganic Chem Lab Survival Manual (Coursesmart)
p2445
sg20
VEbook
p2446
sg22
g23
sg24
F37.5
sasg38
V367580
p2447
sg40
VE-02
p2448
sasg38
V97854
p2449
sg40
VCHM317L
p2450
sa(dp2451
g5
(lp2452
(dp2453
g8
VFLORES
p2454
sg10
(lp2455
(dp2456
g13
I9780618824281
sg14
VWilliamson
p2457
sg16
VRequired
p2458
sg18
VMacroscale And Microscale--Selected Organic Experiments (Custom)
p2459
sg20
VNone
p2460
sg22
g590
sg24
F61.35
sa(dp2461
g13
I9780470494370
sg14
VZubrick
p2462
sg16
VRequired
p2463
sg18
VOrganic Chem Lab Survival Manual
p2464
sg20
VPaperback
p2465
sg22
g23
sg24
F76.0
sa(dp2466
g13
I9780470565926
sg14
VZubrick (Db*)
p2467
sg16
VOptional
p2468
sg18
VOrganic Chem Lab Survival Manual (Coursesmart)
p2469
sg20
VEbook
p2470
sg22
g23
sg24
F37.5
sasg38
V367581
p2471
sg40
VE-01
p2472
sasg38
V97855
p2473
sg40
VCHM318L
p2474
sa(dp2475
g5
(lp2476
(dp2477
g8
VFLORES
p2478
sg10
(lp2479
(dp2480
g13
I9780618824281
sg14
VWilliamson
p2481
sg16
VRequired
p2482
sg18
VMacroscale And Microscale--Selected Organic Experiments (Custom)
p2483
sg20
VNone
p2484
sg22
g590
sg24
F61.35
sa(dp2485
g13
I9780470494370
sg14
VZubrick
p2486
sg16
VRequired
p2487
sg18
VOrganic Chem Lab Survival Manual
p2488
sg20
VPaperback
p2489
sg22
g23
sg24
F76.0
sa(dp2490
g13
I9780470565926
sg14
VZubrick (Db*)
p2491
sg16
VOptional
p2492
sg18
VOrganic Chem Lab Survival Manual (Coursesmart)
p2493
sg20
VEbook
p2494
sg22
g23
sg24
F37.5
sasg38
V367582
p2495
sg40
VE-01
p2496
sasg38
V97856
p2497
sg40
VCHM319L
p2498
sa(dp2499
g5
(lp2500
(dp2501
g8
VOPOTOWSKY
p2502
sg10
(lp2503
sg38
V367584
p2504
sg40
VE-01
p2505
sa(dp2506
g8
VMCCOY
p2507
sg10
(lp2508
sg38
V367585
p2509
sg40
VE-02
p2510
sa(dp2511
g8
VOPOTOWSKY
p2512
sg10
(lp2513
sg38
V367586
p2514
sg40
VE-03
p2515
sa(dp2516
g8
VMCCOY
p2517
sg10
(lp2518
sg38
V367587
p2519
sg40
VE-04
p2520
sa(dp2521
g8
VSTAFF,
p2522
sg10
(lp2523
sg38
V367588
p2524
sg40
VE-05
p2525
sa(dp2526
g8
VSTAFF,
p2527
sg10
(lp2528
sg38
V367589
p2529
sg40
VE-06
p2530
sasg38
V97858
p2531
sg40
VCHM321L
p2532
sa(dp2533
g5
(lp2534
(dp2535
g8
VOPOTOWSKY
p2536
sg10
(lp2537
sg38
V367591
p2538
sg40
VE-01
p2539
sa(dp2540
g8
VOPOTOWSKY
p2541
sg10
(lp2542
sg38
V367592
p2543
sg40
VE-02
p2544
sasg38
V97860
p2545
sg40
VCHM329L
p2546
sasg469
VCHM
p2547
sg38
V4803
p2548
sg40
VCHEMISTRY
p2549
sa(dp2550
g2
(lp2551
(dp2552
g5
(lp2553
(dp2554
g8
VGUTHRIE
p2555
sg10
(lp2556
sg38
V379856
p2557
sg40
VE-01
p2558
sasg38
V97862
p2559
sg40
VCIS231
p2560
sa(dp2561
g5
(lp2562
(dp2563
g8
VGUTHRIE
p2564
sg10
(lp2565
(dp2566
g13
I9780077546779
sg14
VBaltzan*
p2567
sg16
VRequired
p2568
sg18
VBusiness-Driven Information Systems W/Connect (Custom)
p2569
sg20
Nsg22
Nsg24
F125.0
sa(dp2570
g13
I9780077546786
sg14
VBaltzan*
p2571
sg16
VRequired
p2572
sg18
VBusiness-Driven Information Systems (Looseleaf) W/Connect (Custom)
p2573
sg20
Nsg22
Nsg24
F119.0
sa(dp2574
g13
I9780077338350
sg14
VBaltzan/Mcgraw-Hill
p2575
sg16
VPart of Set
p2576
sg18
VConnect Access Code T/A Business Driven System Book
p2577
sg20
Nsg22
Nsg24
F47.05
sasg38
V379860
p2578
sg40
VE-02
p2579
sasg38
V97866
p2580
sg40
VCIS310
p2581
sa(dp2582
g5
(lp2583
(dp2584
g8
VHWANG
p2585
sg10
(lp2586
(dp2587
g13
I9780735627406
sg14
VNorthrup
p2588
sg16
VRequired
p2589
sg18
VWeb Applications Development With Microsoft.Net Framework 4
p2590
sg20
Nsg22
Nsg24
F70.0
sasg38
V379861
p2591
sg40
VE-01
p2592
sasg38
V97867
p2593
sg40
VCIS311
p2594
sasg469
VCIS
p2595
sg38
V4766
p2596
sg40
VCOMPUTER INFO SYST
p2597
sa(dp2598
g2
(lp2599
(dp2600
g5
(lp2601
(dp2602
g8
VSTAFF,
p2603
sg10
(lp2604
(dp2605
g13
I9781256518112
sg14
VFord-Brown*
p2606
sg16
VRequired
p2607
sg18
VDk Guide To Public Speaking W/Making The Grade, Myspeechlab, & Ren Your Writing
p2608
sg20
Nsg22
Nsg24
F78.55
sa(dp2609
g13
I9780205828067
sg14
VFord-Brown (Db*)
p2610
sg16
VOptional
p2611
sg18
VDk Guide To Public Speaking (Coursesmart)
p2612
sg20
Nsg22
Nsg24
F31.0
sa(dp2613
g13
I9780205750115
sg14
VFord-Brown
p2614
sg16
VPart of Set
p2615
sg18
VDk Guide To Public Speaking
p2616
sg20
Nsg22
Nsg24
F77.35
sa(dp2617
g13
I9780205890064
sg14
VPearson
p2618
sg16
VPart of Set
p2619
sg18
VMy Speechlab For Dk Guide To Public Speaking W/O Etext
p2620
sg20
Nsg22
Nsg24
F41.2
sa(dp2621
g13
I9780205254392
sg14
VKallan
p2622
sg16
VPart of Set
p2623
sg18
VRenovating Your Writing
p2624
sg20
Nsg22
Nsg24
F16.65
sasg38
V379866
p2625
sg40
V01
p2626
sa(dp2627
g8
VSTAFF
p2628
sg10
(lp2629
(dp2630
g13
I9781256518112
sg14
VFord-Brown*
p2631
sg16
VRequired
p2632
sg18
VDk Guide To Public Speaking W/Making The Grade, Myspeechlab, & Ren Your Writing
p2633
sg20
Nsg22
Nsg24
F78.55
sa(dp2634
g13
I9780205828067
sg14
VFord-Brown (Db*)
p2635
sg16
VOptional
p2636
sg18
VDk Guide To Public Speaking (Coursesmart)
p2637
sg20
Nsg22
Nsg24
F31.0
sa(dp2638
g13
I9780205750115
sg14
VFord-Brown
p2639
sg16
VPart of Set
p2640
sg18
VDk Guide To Public Speaking
p2641
sg20
Nsg22
Nsg24
F77.35
sa(dp2642
g13
I9780205890064
sg14
VPearson
p2643
sg16
VPart of Set
p2644
sg18
VMy Speechlab For Dk Guide To Public Speaking W/O Etext
p2645
sg20
Nsg22
Nsg24
F41.2
sa(dp2646
g13
I9780205254392
sg14
VKallan
p2647
sg16
VPart of Set
p2648
sg18
VRenovating Your Writing
p2649
sg20
Nsg22
Nsg24
F16.65
sasg38
V379867
p2650
sg40
V02
p2651
sa(dp2652
g8
VSTAFF
p2653
sg10
(lp2654
(dp2655
g13
I9781256518112
sg14
VFord-Brown*
p2656
sg16
VRequired
p2657
sg18
VDk Guide To Public Speaking W/Making The Grade, Myspeechlab, & Ren Your Writing
p2658
sg20
Nsg22
Nsg24
F78.55
sa(dp2659
g13
I9780205828067
sg14
VFord-Brown (Db*)
p2660
sg16
VOptional
p2661
sg18
VDk Guide To Public Speaking (Coursesmart)
p2662
sg20
Nsg22
Nsg24
F31.0
sa(dp2663
g13
I9780205750115
sg14
VFord-Brown
p2664
sg16
VPart of Set
p2665
sg18
VDk Guide To Public Speaking
p2666
sg20
Nsg22
Nsg24
F77.35
sa(dp2667
g13
I9780205890064
sg14
VPearson
p2668
sg16
VPart of Set
p2669
sg18
VMy Speechlab For Dk Guide To Public Speaking W/O Etext
p2670
sg20
Nsg22
Nsg24
F41.2
sa(dp2671
g13
I9780205254392
sg14
VKallan
p2672
sg16
VPart of Set
p2673
sg18
VRenovating Your Writing
p2674
sg20
Nsg22
Nsg24
F16.65
sasg38
V380104
p2675
sg40
V03
p2676
sasg38
V99367
p2677
sg40
VCOM100
p2678
sa(dp2679
g5
(lp2680
(dp2681
g8
VSTAFF,
p2682
sg10
(lp2683
(dp2684
g13
I9781256519089
sg14
VRybacki*
p2685
sg16
VRequired
p2686
sg18
VAdvocacy & Opposition W/Myspeechlab & Renovating Your Writing
p2687
sg20
Nsg22
Nsg24
F92.4
sa(dp2688
g13
I9780205781195
sg14
VRybacki (Db*)
p2689
sg16
VOptional
p2690
sg18
VAdvocacy & Opposition (Coursesmart)
p2691
sg20
VEbook
p2692
sg22
g75
sg24
F37.0
sa(dp2693
g13
I9780205781188
sg14
VRybacki
p2694
sg16
VPart of Set
p2695
sg18
VAdvocacy & Opposition
p2696
sg20
VPaperback
p2697
sg22
g75
sg24
F93.0
sa(dp2698
g13
I9780205254392
sg14
VKallan
p2699
sg16
VPart of Set
p2700
sg18
VRenovating Your Writing
p2701
sg20
Nsg22
Nsg24
F16.65
sasg38
V379868
p2702
sg40
V01
p2703
sa(dp2704
g8
VSTAFF
p2705
sg10
(lp2706
(dp2707
g13
I9781256519089
sg14
VRybacki*
p2708
sg16
VRequired
p2709
sg18
VAdvocacy & Opposition W/Myspeechlab & Renovating Your Writing
p2710
sg20
Nsg22
Nsg24
F92.4
sa(dp2711
g13
I9780205781195
sg14
VRybacki (Db*)
p2712
sg16
VOptional
p2713
sg18
VAdvocacy & Opposition (Coursesmart)
p2714
sg20
VEbook
p2715
sg22
g75
sg24
F37.0
sa(dp2716
g13
I9780205781188
sg14
VRybacki
p2717
sg16
VPart of Set
p2718
sg18
VAdvocacy & Opposition
p2719
sg20
VPaperback
p2720
sg22
g75
sg24
F93.0
sa(dp2721
g13
I9780205254392
sg14
VKallan
p2722
sg16
VPart of Set
p2723
sg18
VRenovating Your Writing
p2724
sg20
Nsg22
Nsg24
F16.65
sasg38
V379869
p2725
sg40
V02
p2726
sa(dp2727
g8
VSTAFF
p2728
sg10
(lp2729
(dp2730
g13
I9781256519089
sg14
VRybacki*
p2731
sg16
VRequired
p2732
sg18
VAdvocacy & Opposition W/Myspeechlab & Renovating Your Writing
p2733
sg20
Nsg22
Nsg24
F92.4
sa(dp2734
g13
I9780205781195
sg14
VRybacki (Db*)
p2735
sg16
VOptional
p2736
sg18
VAdvocacy & Opposition (Coursesmart)
p2737
sg20
VEbook
p2738
sg22
g75
sg24
F37.0
sa(dp2739
g13
I9780205781188
sg14
VRybacki
p2740
sg16
VPart of Set
p2741
sg18
VAdvocacy & Opposition
p2742
sg20
VPaperback
p2743
sg22
g75
sg24
F93.0
sa(dp2744
g13
I9780205254392
sg14
VKallan
p2745
sg16
VPart of Set
p2746
sg18
VRenovating Your Writing
p2747
sg20
Nsg22
Nsg24
F16.65
sasg38
V380105
p2748
sg40
V03
p2749
sasg38
V99368
p2750
sg40
VCOM204
p2751
sa(dp2752
g5
(lp2753
(dp2754
g8
VSTAFF
p2755
sg10
(lp2756
sg38
V379870
p2757
sg40
V01
p2758
sasg38
V99369
p2759
sg40
VCOM314
p2760
sa(dp2761
g5
(lp2762
(dp2763
g8
VSTAFF
p2764
sg10
(lp2765
(dp2766
g13
I9781412977821
sg14
VJowett
p2767
sg16
VRequired
p2768
sg18
VPropaganda & Persuasion
p2769
sg20
VPaperback
p2770
sg22
g412
sg24
F64.0
sasg38
V379871
p2771
sg40
V01
p2772
sasg38
V99370
p2773
sg40
VCOM413
p2774
sasg469
VCOM
p2775
sg38
V4808
p2776
sg40
VCOMMUNICATION
p2777
sa(dp2778
g2
(lp2779
(dp2780
g5
(lp2781
(dp2782
g8
VMunnerlyn
p2783
sg10
(lp2784
sg38
V370478
p2785
sg40
VE-01
p2786
sa(dp2787
g8
VMunnerlyn
p2788
sg10
(lp2789
sg38
V370479
p2790
sg40
VE-02
p2791
sasg38
V99343
p2792
sg40
VCPU100
p2793
sasg469
VCPU
p2794
sg38
V4769
p2795
sg40
VCAL POLY UNIVERSITY
p2796
sa(dp2797
g2
(lp2798
(dp2799
g5
(lp2800
(dp2801
g8
VRAHEJA
p2802
sg10
(lp2803
(dp2804
g13
I9780132576253
sg14
VGaddis
p2805
sg16
VRequired
p2806
sg18
VStarting Out With C++: From Control Struct Through Objects
p2807
sg20
VPaperback
p2808
sg22
g75
sg24
F126.55
sa(dp2809
g13
I9780132664837
sg14
VGaddis (Db*)
p2810
sg16
VOptional
p2811
sg18
VStarting Out With C++ From Control Structures Through Objects (Coursesmart)
p2812
sg20
VEbook
p2813
sg22
g75
sg24
F54.0
sasg38
V367604
p2814
sg40
VE-01
p2815
sasg38
V97871
p2816
sg40
VCS128
p2817
sa(dp2818
g5
(lp2819
(dp2820
g8
VYOUNG
p2821
sg10
(lp2822
(dp2823
g13
I9780716768647
sg14
VGersting
p2824
sg16
VRequired
p2825
sg18
VMathematical Structures For Computer Science
p2826
sg20
VHardback
p2827
sg22
g169
sg24
F155.0
sasg38
V367605
p2828
sg40
VE-01
p2829
sasg38
V97872
p2830
sg40
VCS130
p2831
sa(dp2832
g5
(lp2833
(dp2834
g8
VSTAFF
p2835
sg10
(lp2836
(dp2837
g13
I9780132855839
sg14
VGaddis
p2838
sg16
VRequired
p2839
sg18
VStarting Out W/Java: From Cont Struct Through Objects (W/Cd Only)
p2840
sg20
VPaperback
p2841
sg22
g412
sg24
F118.0
sa(dp2842
g13
I9780132855914
sg14
VGaddis (Db*)
p2843
sg16
VOptional
p2844
sg18
VJava Starting Out With Java C (Coursesmart)
p2845
sg20
VEbook
p2846
sg22
g412
sg24
F58.0
sasg38
V367606
p2847
sg40
VE-01
p2848
sasg38
V97873
p2849
sg40
VCS140
p2850
sa(dp2851
g5
(lp2852
(dp2853
g8
VSALLOUM
p2854
sg10
(lp2855
(dp2856
g13
I9780495471691
sg14
VRoth
p2857
sg16
VRequired
p2858
sg18
VFundamentals Of Logic Design (W/Cd)
p2859
sg20
VHardback
p2860
sg22
g169
sg24
F180.3
sa(dp2861
g13
I9780495873624
sg14
VRoth (Db*)
p2862
sg16
VOptional
p2863
sg18
VFundamentals Of Logic Design (Coursesmart Digital)
p2864
sg20
VEbook
p2865
sg22
g169
sg24
F102.5
sasg38
V367607
p2866
sg40
VE-01
p2867
sasg38
V97874
p2868
sg40
VCS210
p2869
sa(dp2870
g5
(lp2871
(dp2872
g8
VSALLOUM
p2873
sg10
(lp2874
(dp2875
g13
I9780132576246
sg14
VMain
p2876
sg16
VRequired
p2877
sg18
VData Structures & Other Objects Using Java
p2878
sg20
VPaperback
p2879
sg22
g590
sg24
F125.0
sa(dp2880
g13
I9780132576475
sg14
VMain (Db*)
p2881
sg16
VOptional
p2882
sg18
VData Structures & Other Objects Using Java (Coursesmart)
p2883
sg20
VEbook
p2884
sg22
g590
sg24
F50.0
sasg38
V367608
p2885
sg40
VE-01
p2886
sasg38
V97875
p2887
sg40
VCS240
p2888
sa(dp2889
g5
(lp2890
(dp2891
g8
VSTAFF
p2892
sg10
(lp2893
(dp2894
g13
I9780132576246
sg14
VMain
p2895
sg16
VRequired
p2896
sg18
VData Structures & Other Objects Using Java
p2897
sg20
VPaperback
p2898
sg22
g590
sg24
F125.0
sa(dp2899
g13
I9780132576475
sg14
VMain (Db*)
p2900
sg16
VOptional
p2901
sg18
VData Structures & Other Objects Using Java (Coursesmart)
p2902
sg20
VEbook
p2903
sg22
g590
sg24
F50.0
sasg38
V367609
p2904
sg40
VE-01
p2905
sasg38
V97876
p2906
sg40
VCS241
p2907
sa(dp2908
g5
(lp2909
(dp2910
g8
VYOUNG
p2911
sg10
(lp2912
sg38
V367610
p2913
sg40
VE-01
p2914
sasg38
V97877
p2915
sg40
VCS375
p2916
sasg469
VCS
p2917
sg38
V4770
p2918
sg40
VCOMPUTER SCIENCE
p2919
sa(dp2920
g2
(lp2921
(dp2922
g5
(lp2923
(dp2924
g8
VRUSH
p2925
sg10
(lp2926
(dp2927
g13
I9781429283427
sg14
VKrugman
p2928
sg16
VRequired
p2929
sg18
VMicroeconomics
p2930
sg20
VPaperback
p2931
sg22
g115
sg24
F172.15
sasg38
V367612
p2932
sg40
VE-01
p2933
sasg38
V97879
p2934
sg40
VEC201
p2935
sa(dp2936
g5
(lp2937
(dp2938
g8
VBROWN
p2939
sg10
(lp2940
(dp2941
g13
I9781429266598
sg14
VKrugman*
p2942
sg16
VRequired
p2943
sg18
VMacroeconomics California (Looseleaf) W/Econportal
p2944
sg20
VLooseleaf
p2945
sg22
g515
sg24
F94.7
sasg38
V367613
p2946
sg40
VE-01
p2947
sasg38
V97880
p2948
sg40
VEC202
p2949
sa(dp2950
g5
(lp2951
(dp2952
g8
VLANGE
p2953
sg10
(lp2954
sg38
V367614
p2955
sg40
VE-01
p2956
sasg38
V97944
p2957
sg40
VEC406
p2958
sa(dp2959
g5
(lp2960
(dp2961
g8
VBROWN
p2962
sg10
(lp2963
(dp2964
g13
I9780321533739
sg14
VEhrenberg
p2965
sg16
VRequired
p2966
sg18
VModern Labor Economics
p2967
sg20
VHardback
p2968
sg22
V10
p2969
sg24
F193.75
sa(dp2970
g13
I9780321550941
sg14
VEhrenberg (Db*)
p2971
sg16
VOptional
p2972
sg18
VModern Labor Economics (Coursesmart)
p2973
sg20
VEbook
p2974
sg22
V10
p2975
sg24
F83.0
sasg38
V367615
p2976
sg40
VE-01
p2977
sasg38
V97945
p2978
sg40
VEC414
p2979
sa(dp2980
g5
(lp2981
(dp2982
g8
VBRESNOCK
p2983
sg10
(lp2984
(dp2985
g13
I9780470393741
sg14
VEsty
p2986
sg16
VRequired
p2987
sg18
VGreen To Gold
p2988
sg20
Nsg22
Nsg24
F21.95
sasg38
V367616
p2989
sg40
VE-01
p2990
sasg38
V97881
p2991
sg40
VEC441
p2992
sasg469
VEC
p2993
sg38
V4819
p2994
sg40
VECONOMICS
p2995
sa(dp2996
g2
(lp2997
(dp2998
g5
(lp2999
(dp3000
g8
VFERGUSON  JR
p3001
sg10
(lp3002
(dp3003
g13
I9780077263195
sg14
VAlexander
p3004
sg16
VRequired
p3005
sg18
VFundamentals Of Electric Circuits
p3006
sg20
VHardback
p3007
sg22
g590
sg24
F196.25
sasg38
V367618
p3008
sg40
VE-01
p3009
sasg38
V97882
p3010
sg40
VECE109
p3011
sa(dp3012
g5
(lp3013
(dp3014
g8
VMONEMI
p3015
sg10
(lp3016
(dp3017
g13
I9780132165419
sg14
VDeitel
p3018
sg16
VRequired
p3019
sg18
VC++: How To Program: Late Objects Vers (W/Cd Only)
p3020
sg20
VPaperback
p3021
sg22
g75
sg24
F124.0
sa(dp3022
g13
I9780132177412
sg14
VDeitel (Db*)
p3023
sg16
VOptional
p3024
sg18
VC++ How To Program (Coursesmart)
p3025
sg20
VEbook
p3026
sg22
g75
sg24
F50.0
sasg38
V367620
p3027
sg40
VE-01
p3028
sasg38
V97884
p3029
sg40
VECE114
p3030
sa(dp3031
g5
(lp3032
(dp3033
g8
VSACCO
p3034
sg10
(lp3035
(dp3036
g13
I9780077211646
sg14
VBrown
p3037
sg16
VRequired
p3038
sg18
VFundamentals Of Digital Logic W/Verilog Design (W/Cd)
p3039
sg20
VCloth
p3040
sg22
g515
sg24
F180.95
sasg38
V367623
p3041
sg40
VE-01
p3042
sasg38
V97887
p3043
sg40
VECE205
p3044
sa(dp3045
g5
(lp3046
(dp3047
g8
VKANG
p3048
sg10
(lp3049
(dp3050
g13
I9780077263195
sg14
VAlexander
p3051
sg16
VRequired
p3052
sg18
VFundamentals Of Electric Circuits
p3053
sg20
VHardback
p3054
sg22
g590
sg24
F196.25
sasg38
V367625
p3055
sg40
VE-01
p3056
sasg38
V97889
p3057
sg40
VECE207
p3058
sa(dp3059
g5
(lp3060
(dp3061
g8
VCHANDRA
p3062
sg10
(lp3063
(dp3064
g13
I9780077263195
sg14
VAlexander
p3065
sg16
VRequired
p3066
sg18
VFundamentals Of Electric Circuits
p3067
sg20
VHardback
p3068
sg22
g590
sg24
F196.25
sasg38
V367627
p3069
sg40
VE-01
p3070
sasg38
V97891
p3071
sg40
VECE209
p3072
sa(dp3073
g5
(lp3074
(dp3075
g8
VOLSON
p3076
sg10
(lp3077
(dp3078
g13
I9780073380452
sg14
VJaeger
p3079
sg16
VRequired
p3080
sg18
VMicroelectronic Circuit Design
p3081
sg20
VHardback
p3082
sg22
g590
sg24
F188.15
sa(dp3083
g13
I9780077330040
sg14
VJaeger (Db*)
p3084
sg16
VOptional
p3085
sg18
VMicroelectronic Circuit Design (Coursesmart)
p3086
sg20
VEbook
p3087
sg22
g590
sg24
F105.5
sasg38
V367629
p3088
sg40
VE-01
p3089
sasg38
V97893
p3090
sg40
VECE220
p3091
sa(dp3092
g5
(lp3093
(dp3094
g8
VMONEMI
p3095
sg10
(lp3096
(dp3097
g13
I9780073380377
sg14
VRizzoni
p3098
sg16
VRequired
p3099
sg18
VFundamentals Of Electrical Engineering
p3100
sg20
Nsg22
Nsg24
F137.35
sa(dp3101
g13
I9780077272722
sg14
VRizzoni (Db*)
p3102
sg16
VOptional
p3103
sg18
VFundamentals Of Electrical Engineering (Coursesmart Digital)
p3104
sg20
Nsg22
Nsg24
F77.0
sasg38
V367632
p3105
sg40
VE-01
p3106
sasg38
V97895
p3107
sg40
VECE231
p3108
sa(dp3109
g5
(lp3110
(dp3111
g8
VLIN
p3112
sg10
(lp3113
(dp3114
g13
I9780132165419
sg14
VDeitel
p3115
sg16
VRequired
p3116
sg18
VC++: How To Program: Late Objects Vers (W/Cd Only)
p3117
sg20
VPaperback
p3118
sg22
g75
sg24
F124.0
sa(dp3119
g13
I9780132177412
sg14
VDeitel (Db*)
p3120
sg16
VOptional
p3121
sg18
VC++ How To Program (Coursesmart)
p3122
sg20
VEbook
p3123
sg22
g75
sg24
F50.0
sasg38
V367634
p3124
sg40
VE-01
p3125
sasg38
V97897
p3126
sg40
VECE256
p3127
sa(dp3128
g5
(lp3129
(dp3130
g8
VCHANDRA
p3131
sg10
(lp3132
(dp3133
g13
I9780470767856
sg14
VGilat
p3134
sg16
VRequired
p3135
sg18
VMatlab
p3136
sg20
VPaperback
p3137
sg22
g590
sg24
F104.0
sa(dp3138
g13
I9780470919491
sg14
VGilat (Db*)
p3139
sg16
VOptional
p3140
sg18
VMatlab (Coursesmart)
p3141
sg20
VEbook
p3142
sg22
g590
sg24
F50.5
sasg38
V367635
p3143
sg40
VE-01
p3144
sasg38
V97898
p3145
sg40
VECE257
p3146
sa(dp3147
g5
(lp3148
(dp3149
g8
VSACCO,
p3150
sg10
(lp3151
(dp3152
g13
I9780201566116
sg14
VCheng
p3153
sg16
VRequired
p3154
sg18
VFundamentals Of Engineering Electromagnetics
p3155
sg20
Nsg22
Nsg24
F174.4
sasg38
V367636
p3156
sg40
VE-01
p3157
sa(dp3158
g8
VKETSEOGLOU
p3159
sg10
(lp3160
(dp3161
g13
I9780201566116
sg14
VCheng
p3162
sg16
VRequired
p3163
sg18
VFundamentals Of Engineering Electromagnetics
p3164
sg20
Nsg22
Nsg24
F174.4
sasg38
V367637
p3165
sg40
VE-02
p3166
sasg38
V97899
p3167
sg40
VECE302
p3168
sa(dp3169
g5
(lp3170
(dp3171
g8
VLIN
p3172
sg10
(lp3173
sg38
V367638
p3174
sg40
VE-01
p3175
sasg38
V97947
p3176
sg40
VECE304
p3177
sa(dp3178
g5
(lp3179
(dp3180
g8
VCHENG
p3181
sg10
(lp3182
(dp3183
g13
I9780131873742
sg14
VProakis
p3184
sg16
VRequired
p3185
sg18
VDigital Signal Processing
p3186
sg20
VHardback
p3187
sg22
g590
sg24
F165.0
sasg38
V367639
p3188
sg40
VE-01
p3189
sa(dp3190
g8
VKETSEOGLOU
p3191
sg10
(lp3192
(dp3193
g13
I9780131873742
sg14
VProakis
p3194
sg16
VRequired
p3195
sg18
VDigital Signal Processing
p3196
sg20
VHardback
p3197
sg22
g590
sg24
F165.0
sasg38
V367640
p3198
sg40
VE-02
p3199
sasg38
V97900
p3200
sg40
VECE306
p3201
sa(dp3202
g5
(lp3203
(dp3204
g8
VALIYAZICIOGLU
p3205
sg10
(lp3206
(dp3207
g13
I9780077263195
sg14
VAlexander
p3208
sg16
VRequired
p3209
sg18
VFundamentals Of Electric Circuits
p3210
sg20
VHardback
p3211
sg22
g590
sg24
F196.25
sasg38
V367643
p3212
sg40
VE-01
p3213
sasg38
V97902
p3214
sg40
VECE307
p3215
sa(dp3216
g5
(lp3217
(dp3218
g8
VCHENG
p3219
sg10
(lp3220
(dp3221
g13
I9780470547564
sg14
VNise
p3222
sg16
VRequired
p3223
sg18
VControl Systems Engineering
p3224
sg20
VHardback
p3225
sg22
g169
sg24
F191.25
sa(dp3226
g13
I9780470926024
sg14
VNise (Db*)
p3227
sg16
VOptional
p3228
sg18
VControl Systems Engineering (Coursesmart)
p3229
sg20
VEbook
p3230
sg22
g169
sg24
F102.5
sasg38
V367644
p3231
sg40
VE-01
p3232
sasg38
V97903
p3233
sg40
VECE309
p3234
sa(dp3235
g5
(lp3236
(dp3237
g8
VFERGUSON  JR
p3238
sg10
(lp3239
(dp3240
g13
I9780471272144
sg14
VYates
p3241
sg16
VRequired
p3242
sg18
VProbability & Stochastic Processes
p3243
sg20
VCloth
p3244
sg22
g515
sg24
F167.5
sa(dp3245
g13
I9780470592526
sg14
VYates (Db*)
p3246
sg16
VOptional
p3247
sg18
VProbability & Stochastic Processes (Coursesmart Digital)
p3248
sg20
VEbook
p3249
sg22
g515
sg24
F93.5
sasg38
V367646
p3250
sg40
VE-01
p3251
sa(dp3252
g8
VKETSEOGLOU
p3253
sg10
(lp3254
(dp3255
g13
I9780471272144
sg14
VYates
p3256
sg16
VRequired
p3257
sg18
VProbability & Stochastic Processes
p3258
sg20
VCloth
p3259
sg22
g515
sg24
F167.5
sa(dp3260
g13
I9780470592526
sg14
VYates (Db*)
p3261
sg16
VOptional
p3262
sg18
VProbability & Stochastic Processes (Coursesmart Digital)
p3263
sg20
VEbook
p3264
sg22
g515
sg24
F93.5
sasg38
V367647
p3265
sg40
VE-02
p3266
sasg38
V97905
p3267
sg40
VECE315
p3268
sa(dp3269
g5
(lp3270
(dp3271
g8
VCOCKRUM
p3272
sg10
(lp3273
(dp3274
g13
I9780073380452
sg14
VJaeger
p3275
sg16
VRequired
p3276
sg18
VMicroelectronic Circuit Design
p3277
sg20
VHardback
p3278
sg22
g590
sg24
F188.15
sa(dp3279
g13
I9780077330040
sg14
VJaeger (Db*)
p3280
sg16
VOptional
p3281
sg18
VMicroelectronic Circuit Design (Coursesmart)
p3282
sg20
VEbook
p3283
sg22
g590
sg24
F105.5
sasg38
V367648
p3284
sg40
VE-01
p3285
sasg38
V97906
p3286
sg40
VECE320
p3287
sa(dp3288
g5
(lp3289
(dp3290
g8
VOLSON
p3291
sg10
(lp3292
(dp3293
g13
I9780072283655
sg14
VHodges
p3294
sg16
VRequired
p3295
sg18
VAnalysis & Design Of Digital Integrated Circuits
p3296
sg20
VHardback
p3297
sg22
g115
sg24
F213.15
sasg38
V367651
p3298
sg40
VE-01
p3299
sasg38
V97908
p3300
sg40
VECE325
p3301
sa(dp3302
g5
(lp3303
(dp3304
g8
VOLSON
p3305
sg10
(lp3306
(dp3307
g13
I9780201543933
sg14
VPierret
p3308
sg16
VRequired
p3309
sg18
VSemiconductor Device Fundamentals
p3310
sg20
Nsg22
Nsg24
F149.0
sasg38
V367653
p3311
sg40
VE-01
p3312
sasg38
V97910
p3313
sg40
VECE330
p3314
sa(dp3315
g5
(lp3316
(dp3317
g8
VRAFIQUZZAMAN,
p3318
sg10
(lp3319
(dp3320
g13
I9780470380314
sg14
VRafiquzzaman
p3321
sg16
VRequired
p3322
sg18
VMicroprocessor Theory And Applications W/68000/68020 & Pentium
p3323
sg20
Nsg22
Nsg24
F152.0
sasg38
V367656
p3324
sg40
VE-01
p3325
sasg38
V97913
p3326
sg40
VECE343
p3327
sa(dp3328
g5
(lp3329
(dp3330
g8
VALIYAZICIOGLU
p3331
sg10
(lp3332
sg38
V367659
p3333
sg40
VE-01
p3334
sasg38
V97915
p3335
sg40
VECE405
p3336
sa(dp3337
g5
(lp3338
(dp3339
g8
VKANG
p3340
sg10
(lp3341
(dp3342
g13
I9780131873742
sg14
VProakis
p3343
sg16
VRequired
p3344
sg18
VDigital Signal Processing
p3345
sg20
VHardback
p3346
sg22
g590
sg24
F165.0
sasg38
V367661
p3347
sg40
VE-01
p3348
sasg38
V97917
p3349
sg40
VECE408
p3350
sa(dp3351
g5
(lp3352
(dp3353
g8
VLIN
p3354
sg10
(lp3355
(dp3356
g13
I9780132575669
sg14
VDeitel
p3357
sg16
VRequired
p3358
sg18
VJava: How To Program (W/Cd)
p3359
sg20
VPaperback
p3360
sg22
g1109
sg24
F126.55
sa(dp3361
g13
I9780132625043
sg14
VDeitel (Db*)
p3362
sg16
VOptional
p3363
sg18
VJava How To Program (Coursesmart)
p3364
sg20
VEbook
p3365
sg22
g1109
sg24
F54.0
sasg38
V367662
p3366
sg40
VE-01
p3367
sasg38
V97918
p3368
sg40
VECE429
p3369
sa(dp3370
g5
(lp3371
(dp3372
g8
VCOCKRUM
p3373
sg10
(lp3374
sg38
V367663
p3375
sg40
VE-01
p3376
sa(dp3377
g8
VALIYAZICIOGLU
p3378
sg10
(lp3379
sg38
V367664
p3380
sg40
VE-02
p3381
sasg38
V97919
p3382
sg40
VECE464
p3383
sa(dp3384
g5
(lp3385
(dp3386
g8
VFERGUSON  JR
p3387
sg10
(lp3388
sg38
V367619
p3389
sg40
VE-01
p3390
sasg38
V97883
p3391
sg40
VECE109L
p3392
sa(dp3393
g5
(lp3394
(dp3395
g8
VMONEMI
p3396
sg10
(lp3397
sg38
V367621
p3398
sg40
VE-01
p3399
sasg38
V97885
p3400
sg40
VECE114L
p3401
sa(dp3402
g5
(lp3403
(dp3404
g8
VSACCO
p3405
sg10
(lp3406
sg38
V367624
p3407
sg40
VE-01
p3408
sasg38
V97888
p3409
sg40
VECE205L
p3410
sa(dp3411
g5
(lp3412
(dp3413
g8
VALIYAZICIOGLU
p3414
sg10
(lp3415
sg38
V367626
p3416
sg40
VE-01
p3417
sasg38
V97890
p3418
sg40
VECE207L
p3419
sa(dp3420
g5
(lp3421
(dp3422
g8
VKANG
p3423
sg10
(lp3424
sg38
V367628
p3425
sg40
VE-01
p3426
sasg38
V97892
p3427
sg40
VECE209L
p3428
sa(dp3429
g5
(lp3430
(dp3431
g8
VMASSOUDI
p3432
sg10
(lp3433
sg38
V367630
p3434
sg40
VE-01
p3435
sa(dp3436
g8
VMASSOUDI,
p3437
sg10
(lp3438
sg38
V367631
p3439
sg40
VE-02
p3440
sasg38
V97894
p3441
sg40
VECE220L
p3442
sa(dp3443
g5
(lp3444
(dp3445
g8
VMONEMI
p3446
sg10
(lp3447
sg38
V367633
p3448
sg40
VE-01
p3449
sasg38
V97896
p3450
sg40
VECE231L
p3451
sa(dp3452
g5
(lp3453
(dp3454
g8
VCHENG
p3455
sg10
(lp3456
sg38
V367641
p3457
sg40
VE-01
p3458
sa(dp3459
g8
VALIYAZICIOGLU
p3460
sg10
(lp3461
sg38
V367642
p3462
sg40
VE-02
p3463
sasg38
V97901
p3464
sg40
VECE306L
p3465
sa(dp3466
g5
(lp3467
(dp3468
g8
VKANG
p3469
sg10
(lp3470
sg38
V367645
p3471
sg40
VE-01
p3472
sasg38
V97904
p3473
sg40
VECE309L
p3474
sa(dp3475
g5
(lp3476
(dp3477
g8
VMASSOUDI
p3478
sg10
(lp3479
sg38
V367649
p3480
sg40
VE-01
p3481
sa(dp3482
g8
VMASSOUDI,
p3483
sg10
(lp3484
sg38
V367650
p3485
sg40
VE-02
p3486
sasg38
V97907
p3487
sg40
VECE320L
p3488
sa(dp3489
g5
(lp3490
(dp3491
g8
VOLSON
p3492
sg10
(lp3493
sg38
V367652
p3494
sg40
VE-01
p3495
sasg38
V97909
p3496
sg40
VECE325L
p3497
sa(dp3498
g5
(lp3499
(dp3500
g8
VRAFIQUZZAMAN,
p3501
sg10
(lp3502
sg38
V367657
p3503
sg40
VE-01
p3504
sasg38
V97914
p3505
sg40
VECE343L
p3506
sa(dp3507
g5
(lp3508
(dp3509
g8
VKETSEOGLOU
p3510
sg10
(lp3511
sg38
V367660
p3512
sg40
VE-01
p3513
sasg38
V97916
p3514
sg40
VECE405L
p3515
sasg469
VECE
p3516
sg38
V4774
p3517
sg40
VELEC & COMP ENGR
p3518
sa(dp3519
g2
(lp3520
(dp3521
g5
(lp3522
(dp3523
g8
VLaubie
p3524
sg10
(lp3525
(dp3526
g13
I9780072866377
sg14
VTaylor
p3527
sg16
VRequired
p3528
sg18
VExceptional Students
p3529
sg20
Nsg22
Nsg24
F141.25
sa(dp3530
g13
I9780077267322
sg14
VTaylor (Db*)
p3531
sg16
VOptional
p3532
sg18
VExceptional Students (Coursesmart Digital)
p3533
sg20
Nsg22
Nsg24
F79.25
sasg38
V367665
p3534
sg40
VE-01
p3535
sasg38
V97930
p3536
sg40
VEDS403
p3537
sasg469
VEDS
p3538
sg38
V4834
p3539
sg40
VEDUCATION SPECIALIST
p3540
sa(dp3541
g2
(lp3542
(dp3543
g5
(lp3544
(dp3545
g8
VSTAFF
p3546
sg10
(lp3547
sg38
V367666
p3548
sg40
VE-01
p3549
sasg38
V97949
p3550
sg40
VEDU510
p3551
sa(dp3552
g5
(lp3553
(dp3554
g8
VSTAFF
p3555
sg10
(lp3556
sg38
V367668
p3557
sg40
VE-01
p3558
sasg38
V97920
p3559
sg40
VEDU520
p3560
sa(dp3561
g5
(lp3562
(dp3563
g8
VSTAFF
p3564
sg10
(lp3565
sg38
V367667
p3566
sg40
VE-01
p3567
sasg38
V97950
p3568
sg40
VEDU510A
p3569
sasg469
VEDU
p3570
sg38
V4812
p3571
sg40
VEDUC LEADERSHIP
p3572
sa(dp3573
g2
(lp3574
(dp3575
g5
(lp3576
(dp3577
g8
VDAVIS JR
p3578
sg10
(lp3579
(dp3580
g13
I9780451191137
sg14
VRand
p3581
sg16
VRequired
p3582
sg18
VAnthem (Centennial Edition)
p3583
sg20
Nsg22
Nsg24
F8.0
sasg38
V367669
p3584
sg40
VE-01
p3585
sa(dp3586
g8
VDAVIS JR
p3587
sg10
(lp3588
(dp3589
g13
I9780451191137
sg14
VRand
p3590
sg16
VRequired
p3591
sg18
VAnthem (Centennial Edition)
p3592
sg20
Nsg22
Nsg24
F8.0
sasg38
V367670
p3593
sg40
VE-02
p3594
sasg38
V97921
p3595
sg40
VEGR402
p3596
sa(dp3597
g5
(lp3598
(dp3599
g8
VABOLFAZLI
p3600
sg10
(lp3601
(dp3602
g13
I9780199836765
sg14
VNewnan*
p3603
sg16
VRequired
p3604
sg18
VEngineering Economic Analysis W/S.G. & Cd
p3605
sg20
VKit/Set/Package
p3606
sg22
V11
p3607
sg24
F120.0
sa(dp3608
g13
I9780199778126
sg14
VNewnan
p3609
sg16
VPart of Set
p3610
sg18
VEngineering Econ Analysis (W/Cd)
p3611
sg20
VHardback
p3612
sg22
V11
p3613
sg24
F120.0
sa(dp3614
g13
I9780199778195
sg14
VNewnan
p3615
sg16
VPart of Set
p3616
sg18
VEngineering Econ Analysis S.G.
p3617
sg20
VPaperback
p3618
sg22
V11
p3619
sg24
F19.95
sasg38
V367671
p3620
sg40
VE-01
p3621
sasg38
V97922
p3622
sg40
VEGR403
p3623
sa(dp3624
g5
(lp3625
(dp3626
g8
VTULACZ
p3627
sg10
(lp3628
(dp3629
g13
I9781888689136
sg14
VJosephson
p3630
sg16
VRequired
p3631
sg18
VMaking Ethical Decisions (Item # 500450)
p3632
sg20
Nsg22
Nsg24
F17.3
sasg38
V379888
p3633
sg40
VE-01
p3634
sasg38
V99387
p3635
sg40
VEGR445
p3636
sasg469
VEGR
p3637
sg38
V4817
p3638
sg40
VENGINEERING
p3639
sa(dp3640
g2
(lp3641
(dp3642
g5
(lp3643
(dp3644
g8
VStaff, Staff
p3645
sg10
(lp3646
(dp3647
g13
I9780132409667
sg14
VAzar
p3648
sg16
VRequired
p3649
sg18
VBasic English Grammar W/Cd W/O Ak
p3650
sg20
VPaperback
p3651
sg22
g115
sg24
F58.35
sa(dp3652
g13
I9780131995574
sg14
VButler
p3653
sg16
VRequired
p3654
sg18
VFundamentals Of Academic Writing Level 1
p3655
sg20
Nsg22
Nsg24
F46.8
sa(dp3656
g13
I9780521858137
sg14
VRichards*
p3657
sg16
VRequired
p3658
sg18
VInterchange Bk 1 W/Cd & Workbook (Value Pack)
p3659
sg20
Nsg22
Nsg24
F40.8
sasg38
V379828
p3660
sg40
VREF
p3661
sasg38
V99360
p3662
sg40
VELI001
p3663
sa(dp3664
g5
(lp3665
(dp3666
g8
VStaff, Staff
p3667
sg10
(lp3668
(dp3669
g13
I9780132414883
sg14
VHogue
p3670
sg16
VRequired
p3671
sg18
VFirst Steps In Academic Writing Level 2
p3672
sg20
VPaperback
p3673
sg22
g515
sg24
F46.8
sa(dp3674
g13
I9780132546485
sg14
VFuchs
p3675
sg16
VRequired
p3676
sg18
VFocus On Grammar 3
p3677
sg20
VPaperback
p3678
sg22
g590
sg24
F58.0
sa(dp3679
g13
I9780194756112
sg14
VBrooks
p3680
sg16
VRequired
p3681
sg18
VQ: Skills For Success-Listening & Speaking 2
p3682
sg20
Nsg22
Nsg24
F59.95
sa(dp3683
g13
I9780138143886
sg14
VJeffries
p3684
sg16
VRequired
p3685
sg18
VReading Power 2
p3686
sg20
VPaperback
p3687
sg22
g590
sg24
F45.0
sasg38
V379829
p3688
sg40
VREF
p3689
sasg38
V99361
p3690
sg40
VELI002
p3691
sa(dp3692
g5
(lp3693
(dp3694
g8
VStaff, Staff
p3695
sg10
(lp3696
(dp3697
g13
I9780132221504
sg14
VDingle
p3698
sg16
VRequired
p3699
sg18
VVocabulary Power 2
p3700
sg20
Nsg22
Nsg24
F25.45
sa(dp3701
g13
I9780132546492
sg14
VFuchs
p3702
sg16
VRequired
p3703
sg18
VFocus On Grammar 4 (W/Cd Only)
p3704
sg20
VPaperback
p3705
sg22
g590
sg24
F58.0
sa(dp3706
g13
I9780131933958
sg14
VOshima
p3707
sg16
VRequired
p3708
sg18
VIntro To Academic Writing Level 3
p3709
sg20
VPaperback
p3710
sg22
g115
sg24
F46.8
sa(dp3711
g13
I9780194756129
sg14
VCraven
p3712
sg16
VRequired
p3713
sg18
VQ: Skills For Success-Listening & Speaking 3
p3714
sg20
Nsg22
Nsg24
F59.95
sa(dp3715
g13
I9780132089036
sg14
VJeffries
p3716
sg16
VRequired
p3717
sg18
VMore Reading Power 3
p3718
sg20
VPaperback
p3719
sg22
g115
sg24
F45.0
sasg38
V379830
p3720
sg40
VREF
p3721
sasg38
V99362
p3722
sg40
VELI003
p3723
sa(dp3724
g5
(lp3725
(dp3726
g8
VStaff, Staff
p3727
sg10
(lp3728
(dp3729
g13
I9780131523593
sg14
VOshima
p3730
sg16
VRequired
p3731
sg18
VWriting Academic English
p3732
sg20
VPaperback
p3733
sg22
g590
sg24
F46.8
sa(dp3734
g13
I9780132431781
sg14
VDingle
p3735
sg16
VRequired
p3736
sg18
VVocabulary Power 3
p3737
sg20
Nsg22
Nsg24
F25.45
sa(dp3738
g13
I9780132546508
sg14
VMaurer
p3739
sg16
VRequired
p3740
sg18
VFocus On Grammar 5 (W/Cd)
p3741
sg20
VPaperback
p3742
sg22
g590
sg24
F58.0
sa(dp3743
g13
I9780131990272
sg14
VMikulecky
p3744
sg16
VRequired
p3745
sg18
VAdvanced Reading Power 4
p3746
sg20
Nsg22
Nsg24
F45.0
sa(dp3747
g13
I9780194756136
sg14
VFreire
p3748
sg16
VRequired
p3749
sg18
VQ: Skills For Success-Listening & Speaking 4
p3750
sg20
Nsg22
Nsg24
F59.95
sasg38
V379831
p3751
sg40
VREF
p3752
sasg38
V99363
p3753
sg40
VELI004
p3754
sa(dp3755
g5
(lp3756
(dp3757
g8
VStaff, Staff
p3758
sg10
(lp3759
(dp3760
g13
I9780472088560
sg14
VSwales
p3761
sg16
VRequired
p3762
sg18
VAcademic Writing For Graduate Students
p3763
sg20
VPaperback
p3764
sg22
g515
sg24
F23.95
sa(dp3765
g13
I9780143114550
sg14
VKidd
p3766
sg16
VRequired
p3767
sg18
VSecret Life Of Bees (Movie Tie-In)
p3768
sg20
Nsg22
Nsg24
F15.0
sa(dp3769
g13
I9780194756044
sg14
VEarle-Carlin
p3770
sg16
VRequired
p3771
sg18
VQ: Skills For Success-Listening & Speaking 2
p3772
sg20
Nsg22
Nsg24
F59.95
sasg38
V379832
p3773
sg40
VREF
p3774
sasg38
V99364
p3775
sg40
VELI005
p3776
sa(dp3777
g5
(lp3778
(dp3779
g8
VStaff, Staff
p3780
sg10
(lp3781
(dp3782
g13
I9780062737335
sg14
VRavitch
p3783
sg16
VRequired
p3784
sg18
VAmerican Reader (2Nd)
p3785
sg20
Nsg22
Nsg24
F20.0
sa(dp3786
g13
I9780312650315
sg14
VLunsford
p3787
sg16
VRequired
p3788
sg18
VEasy Writer W/2009 Mla & Apa Updates
p3789
sg20
VSpiral
p3790
sg22
g590
sg24
F28.65
sa(dp3791
g13
I9780077421298
sg14
VSherman
p3792
sg16
VRequired
p3793
sg18
VWest Vol 1: To 1715
p3794
sg20
Nsg22
Nsg24
F81.0
sasg38
V379833
p3795
sg40
VREF
p3796
sasg38
V99365
p3797
sg40
VELIBRIDGE
p3798
sasg469
VELI
p3799
sg38
V4777
p3800
sg40
VENGLISH LANG INST
p3801
sa(dp3802
g2
(lp3803
(dp3804
g5
(lp3805
(dp3806
g8
VSTAFF
p3807
sg10
(lp3808
sg38
V367672
p3809
sg40
VE-01
p3810
sa(dp3811
g8
VSTAFF
p3812
sg10
(lp3813
sg38
V367673
p3814
sg40
VE-02
p3815
sa(dp3816
g8
VSTAFF
p3817
sg10
(lp3818
sg38
V380191
p3819
sg40
VE-03
p3820
sasg38
V97923
p3821
sg40
VENG095
p3822
sa(dp3823
g5
(lp3824
(dp3825
g8
VSTAFF
p3826
sg10
(lp3827
sg38
V367674
p3828
sg40
VE-01
p3829
sa(dp3830
g8
VSTAFF
p3831
sg10
(lp3832
sg38
V367675
p3833
sg40
VE-02
p3834
sa(dp3835
g8
VSTAFF
p3836
sg10
(lp3837
sg38
V367676
p3838
sg40
VE-03
p3839
sa(dp3840
g8
VSTAFF
p3841
sg10
(lp3842
sg38
V367677
p3843
sg40
VE-04
p3844
sasg38
V97924
p3845
sg40
VENG096
p3846
sa(dp3847
g5
(lp3848
(dp3849
g8
VGRISWOLD
p3850
sg10
(lp3851
(dp3852
g13
I9781405820295
sg14
VLongman
p3853
sg16
VRequired
p3854
sg18
VLongman Advanced American Dictionary New Ed
p3855
sg20
Nsg22
Nsg24
F51.75
sa(dp3856
g13
I9781413008456
sg14
VHouck
p3857
sg16
VRequired
p3858
sg18
VGrammar Connection 4
p3859
sg20
Nsg22
Nsg24
F52.0
sasg38
V367678
p3860
sg40
VE-01
p3861
sasg38
V97925
p3862
sg40
VENG098
p3863
sa(dp3864
g5
(lp3865
(dp3866
g8
VGRISWOLD
p3867
sg10
(lp3868
(dp3869
g13
I9781405820295
sg14
VLongman
p3870
sg16
VRequired
p3871
sg18
VLongman Advanced American Dictionary New Ed
p3872
sg20
Nsg22
Nsg24
F51.75
sasg38
V367680
p3873
sg40
VE-01
p3874
sa(dp3875
g8
VRUSSIKOFF
p3876
sg10
(lp3877
sg38
V367681
p3878
sg40
VE-02
p3879
sasg38
V97926
p3880
sg40
VENG099
p3881
sa(dp3882
g5
(lp3883
(dp3884
g8
VCortina, Tim
p3885
sg10
(lp3886
(dp3887
g13
I9780077300753
sg14
VMaimon
p3888
sg16
VRequired
p3889
sg18
VWriter's Resource Includes 2009 Mla Update
p3890
sg20
VSpiral
p3891
sg22
g115
sg24
F67.35
sa(dp3892
g13
I9780321871893
sg14
VGoshgarian
p3893
sg16
VRequired
p3894
sg18
VContemporary Reader
p3895
sg20
VPaperback
p3896
sg22
V11
p3897
sg24
F76.4
sasg38
V367682
p3898
sg40
VE-01
p3899
sa(dp3900
g8
VVandegrift, Leonard
p3901
sg10
(lp3902
(dp3903
g13
I9780312447496
sg14
VLunsford
p3904
sg16
VRequired
p3905
sg18
VEverything's An Argument
p3906
sg20
VPaperback
p3907
sg22
g590
sg24
F42.7
sa(dp3908
g13
I9781439082485
sg14
VTrimmer
p3909
sg16
VRequired
p3910
sg18
VRiver Reader
p3911
sg20
VPaperback
p3912
sg22
V10
p3913
sg24
F77.35
sasg38
V367683
p3914
sg40
VE-02
p3915
sa(dp3916
g8
VSTAFF
p3917
sg10
(lp3918
sg38
V367684
p3919
sg40
VE-03
p3920
sasg38
V97927
p3921
sg40
VENG104
p3922
sa(dp3923
g5
(lp3924
(dp3925
g8
VSTAFF,
p3926
sg10
(lp3927
(dp3928
g13
I9780312570910
sg14
VBartholomae
p3929
sg16
VRequired
p3930
sg18
VWays Of Reading
p3931
sg20
VPaperback
p3932
sg22
g1109
sg24
F64.65
sa(dp3933
g13
I9780393911510
sg14
VBullock
p3934
sg16
VRequired
p3935
sg18
VLittle Seagull Handbook
p3936
sg20
Nsg22
Nsg24
F25.35
sasg38
V367685
p3937
sg40
VE-01
p3938
sa(dp3939
g8
VSTAFF,
p3940
sg10
(lp3941
(dp3942
g13
I9780312570910
sg14
VBartholomae
p3943
sg16
VRequired
p3944
sg18
VWays Of Reading
p3945
sg20
VPaperback
p3946
sg22
g1109
sg24
F64.65
sa(dp3947
g13
I9780393911510
sg14
VBullock
p3948
sg16
VRequired
p3949
sg18
VLittle Seagull Handbook
p3950
sg20
Nsg22
Nsg24
F25.35
sasg38
V367686
p3951
sg40
VE-02
p3952
sasg38
V97928
p3953
sg40
VENG105
p3954
sa(dp3955
g5
(lp3956
(dp3957
g8
VSTAFF,
p3958
sg10
(lp3959
(dp3960
g13
I9780802150615
sg14
VOe
p3961
sg16
VRequired
p3962
sg18
VPersonal Matter
p3963
sg20
Nsg22
Nsg24
F12.0
sa(dp3964
g13
I9780385722209
sg14
VSijie
p3965
sg16
VRequired
p3966
sg18
VBalzac & The Little Chinese Seamstress
p3967
sg20
Nsg22
Nsg24
F11.95
sa(dp3968
g13
I9781405100496
sg14
VMatz
p3969
sg16
VRequired
p3970
sg18
VModern Novel
p3971
sg20
Nsg22
Nsg24
F24.95
sa(dp3972
g13
I9780743267489
sg14
VSwarup
p3973
sg16
VRequired
p3974
sg18
VQ & A : A Novel (Slumdog Millionaire)
p3975
sg20
Nsg22
Nsg24
F15.0
sa(dp3976
g13
I9781400076949
sg14
VAdichie
p3977
sg16
VRequired
p3978
sg18
VPurple Hibiscus
p3979
sg20
Nsg22
Nsg24
F14.95
sa(dp3980
g13
I9780140031928
sg14
VKerouac
p3981
sg16
VRequired
p3982
sg18
VOn The Road
p3983
sg20
Nsg22
Nsg24
F5.95
sasg38
V367687
p3984
sg40
VE-01
p3985
sasg38
V97929
p3986
sg40
VENG201
p3987
sasg469
VENG
p3988
sg38
V4832
p3989
sg40
VENGLISH
p3990
sa(dp3991
g2
(lp3992
(dp3993
g5
(lp3994
(dp3995
g8
VSTAFF
p3996
sg10
(lp3997
sg38
V379872
p3998
sg40
VE-01
p3999
sa(dp4000
g8
VSTAFF
p4001
sg10
(lp4002
sg38
V379873
p4003
sg40
VE-02
p4004
sasg38
V99376
p4005
sg40
VESE5
p4006
sa(dp4007
g5
(lp4008
(dp4009
g8
VSTAFF
p4010
sg10
(lp4011
sg38
V380192
p4012
sg40
VE-01
p4013
sa(dp4014
g8
VSTAFF
p4015
sg10
(lp4016
sg38
V380193
p4017
sg40
VE-02
p4018
sa(dp4019
g8
VSTAFF
p4020
sg10
(lp4021
sg38
V380194
p4022
sg40
VE-03
p4023
sasg38
V100645
p4024
sg40
VESE095
p4025
sasg469
VESE
p4026
sg38
V4837
p4027
sg40
VESE
p4028
sa(dp4029
g2
(lp4030
(dp4031
g5
(lp4032
(dp4033
g8
VSTAFF
p4034
sg10
(lp4035
sg38
V380195
p4036
sg40
VE-01
p4037
sa(dp4038
g8
VSTAFF
p4039
sg10
(lp4040
sg38
V380196
p4041
sg40
VE-02
p4042
sasg38
V100646
p4043
sg40
VESM010
p4044
sa(dp4045
g5
(lp4046
(dp4047
g8
VSHIRLEY
p4048
sg10
(lp4049
sg38
V380197
p4050
sg40
VE-01
p4051
sa(dp4052
g8
VSHIRLEY
p4053
sg10
(lp4054
sg38
V380198
p4055
sg40
VE-02
p4056
sa(dp4057
g8
VSTAFF
p4058
sg10
(lp4059
sg38
V380199
p4060
sg40
VE-11
p4061
sa(dp4062
g8
VSTAFF
p4063
sg10
(lp4064
sg38
V380200
p4065
sg40
VE-21
p4066
sasg38
V100647
p4067
sg40
VESM011
p4068
sa(dp4069
g5
(lp4070
(dp4071
g8
VSTAFF
p4072
sg10
(lp4073
sg38
V380201
p4074
sg40
VE-01
p4075
sa(dp4076
g8
VGRIFFITH
p4077
sg10
(lp4078
sg38
V380202
p4079
sg40
VE-02
p4080
sa(dp4081
g8
VSTAFF
p4082
sg10
(lp4083
sg38
V380203
p4084
sg40
VE-11
p4085
sa(dp4086
g8
VSTAFF
p4087
sg10
(lp4088
sg38
V380204
p4089
sg40
VE-21
p4090
sasg38
V100648
p4091
sg40
VESM012
p4092
sasg469
VESM
p4093
sg38
V4838
p4094
sg40
VESM
p4095
sa(dp4096
g2
(lp4097
(dp4098
g5
(lp4099
(dp4100
g8
VBABIKIAN
p4101
sg10
(lp4102
sg38
V379874
p4103
sg40
VE-01
p4104
sasg38
V99371
p4105
sg40
VETC130
p4106
sa(dp4107
g5
(lp4108
(dp4109
g8
VBABIKIAN
p4110
sg10
(lp4111
sg38
V379876
p4112
sg40
VE-01
p4113
sasg38
V99373
p4114
sg40
VETC305
p4115
sa(dp4116
g5
(lp4117
(dp4118
g8
VSALEM
p4119
sg10
(lp4120
sg38
V380205
p4121
sg40
VE-01
p4122
sasg38
V99377
p4123
sg40
VETC311
p4124
sa(dp4125
g5
(lp4126
(dp4127
g8
VSALEM
p4128
sg10
(lp4129
sg38
V380107
p4130
sg40
VE-01
p4131
sasg38
V99374
p4132
sg40
VETC316
p4133
sa(dp4134
g5
(lp4135
(dp4136
g8
VSALEM
p4137
sg10
(lp4138
sg38
V380108
p4139
sg40
VE-01
p4140
sasg38
V99378
p4141
sg40
VETC499
p4142
sa(dp4143
g5
(lp4144
(dp4145
g8
VBABIKIAN
p4146
sg10
(lp4147
sg38
V379875
p4148
sg40
VE-01
p4149
sasg38
V99372
p4150
sg40
VETC130L
p4151
sasg469
VETC
p4152
sg38
V4833
p4153
sg40
VENGR TECH/CONSTRUCT
p4154
sa(dp4155
g2
(lp4156
(dp4157
g5
(lp4158
(dp4159
g8
VQAYYUM
p4160
sg10
(lp4161
sg38
V379880
p4162
sg40
VE-01
p4163
sasg38
V99375
p4164
sg40
VETE499
p4165
sa(dp4166
g5
(lp4167
(dp4168
g8
VQAYYUM
p4169
sg10
(lp4170
sg38
V379889
p4171
sg40
VE-01
p4172
sasg38
V99388
p4173
sg40
VETE499L
p4174
sasg469
VETE
p4175
sg38
V4781
p4176
sg40
VENGR TECH/ELECTRONIC
p4177
sa(dp4178
g2
(lp4179
(dp4180
g5
(lp4181
(dp4182
g8
VBABIKIAN
p4183
sg10
(lp4184
sg38
V379890
p4185
sg40
VE-01
p4186
sasg38
V99389
p4187
sg40
VETT210
p4188
sa(dp4189
g5
(lp4190
(dp4191
g8
VQAYYUM
p4192
sg10
(lp4193
sg38
V379891
p4194
sg40
VE-01
p4195
sasg38
V99390
p4196
sg40
VETT215
p4197
sa(dp4198
g5
(lp4199
(dp4200
g8
VSTAFF
p4201
sg10
(lp4202
sg38
V379893
p4203
sg40
VE-21
p4204
sasg38
V99392
p4205
sg40
VETT217
p4206
sa(dp4207
g5
(lp4208
(dp4209
g8
VSTAFF
p4210
sg10
(lp4211
sg38
V379895
p4212
sg40
VE-21
p4213
sasg38
V99393
p4214
sg40
VETT220
p4215
sa(dp4216
g5
(lp4217
(dp4218
g8
VKAUSER
p4219
sg10
(lp4220
sg38
V379898
p4221
sg40
VE-11
p4222
sasg38
V99395
p4223
sg40
VETT310
p4224
sa(dp4225
g5
(lp4226
(dp4227
g8
VSTAFF
p4228
sg10
(lp4229
sg38
V379900
p4230
sg40
VE-21
p4231
sasg38
V99397
p4232
sg40
VETT499
p4233
sa(dp4234
g5
(lp4235
(dp4236
g8
VQAYYUM
p4237
sg10
(lp4238
sg38
V379892
p4239
sg40
VE-01
p4240
sasg38
V99391
p4241
sg40
VETT215L
p4242
sa(dp4243
g5
(lp4244
(dp4245
g8
VSTAFF
p4246
sg10
(lp4247
sg38
V379896
p4248
sg40
VE-21
p4249
sasg38
V99394
p4250
sg40
VETT220L
p4251
sa(dp4252
g5
(lp4253
(dp4254
g8
VKAUSER
p4255
sg10
(lp4256
sg38
V379899
p4257
sg40
VE-11
p4258
sasg38
V99396
p4259
sg40
VETT310L
p4260
sasg469
VETT
p4261
sg38
V4818
p4262
sg40
VENGINEERING TECH
p4263
sa(dp4264
g2
(lp4265
(dp4266
g5
(lp4267
(dp4268
g8
VSTAFF
p4269
sg10
(lp4270
sg38
V367688
p4271
sg40
VE-01
p4272
sasg38
V97724
p4273
sg40
VEWS140
p4274
sa(dp4275
g5
(lp4276
(dp4277
g8
VSTAFF
p4278
sg10
(lp4279
sg38
V367689
p4280
sg40
VE-04
p4281
sasg38
V97725
p4282
sg40
VEWS375
p4283
sa(dp4284
g5
(lp4285
(dp4286
g8
VREESE
p4287
sg10
(lp4288
sg38
V367692
p4289
sg40
VE-O2
p4290
sasg38
V97727
p4291
sg40
VEWS499
p4292
sasg469
VEWS
p4293
sg38
V4695
p4294
sg40
VETHNIC & WOMEN'S ST
p4295
sa(dp4296
g2
(lp4297
(dp4298
g5
(lp4299
(dp4300
g8
VMATHIAS
p4301
sg10
(lp4302
(dp4303
g13
I9780470534786
sg14
VKimmel
p4304
sg16
VRequired
p4305
sg18
VAccounting
p4306
sg20
VHardback
p4307
sg22
g590
sg24
F230.0
sa(dp4308
g13
I9780470919859
sg14
VKimmel (Db*)
p4309
sg16
VOptional
p4310
sg18
VAccounting (Coursesmart)
p4311
sg20
VEbook
p4312
sg22
g590
sg24
F120.5
sasg38
V367693
p4313
sg40
VE-02
p4314
sasg38
V97728
p4315
sg40
VFMA224
p4316
sasg469
VFMA
p4317
sg38
V4697
p4318
sg40
VFOOD MKTNG & AGRIB
p4319
sa(dp4320
g2
(lp4321
(dp4322
g5
(lp4323
(dp4324
g8
VGORDON
p4325
sg10
(lp4326
(dp4327
g13
I9780538736558
sg14
VHales
p4328
sg16
VRequired
p4329
sg18
VInvitation To Health (14Th)
p4330
sg20
Nsg22
Nsg24
F142.2
sa(dp4331
g13
I9781111180300
sg14
VHales (Db*)
p4332
sg16
VOptional
p4333
sg18
VInvitation To Health (Coursesmart Digital)
p4334
sg20
VEbook
p4335
sg22
g590
sg24
F77.0
sasg38
V367694
p4336
sg40
VE-01
p4337
sa(dp4338
g8
VMazhar
p4339
sg10
(lp4340
(dp4341
g13
I9780538736558
sg14
VHales
p4342
sg16
VRequired
p4343
sg18
VInvitation To Health (14Th)
p4344
sg20
Nsg22
Nsg24
F142.2
sa(dp4345
g13
I9781111180300
sg14
VHales (Db*)
p4346
sg16
VOptional
p4347
sg18
VInvitation To Health (Coursesmart Digital)
p4348
sg20
VEbook
p4349
sg22
g590
sg24
F77.0
sasg38
V367695
p4350
sg40
VE-02
p4351
sasg38
V97729
p4352
sg40
VFN203
p4353
sa(dp4354
g5
(lp4355
(dp4356
g8
VWALLACE
p4357
sg10
(lp4358
(dp4359
g13
I9780495115410
sg14
VKittler
p4360
sg16
VRequired
p4361
sg18
VFood & Culture
p4362
sg20
VPaperback
p4363
sg22
g412
sg24
F139.4
sa(dp4364
g13
I9780495588214
sg14
VKittler (Db*)
p4365
sg16
VOptional
p4366
sg18
VFood & Culture  (Coursesmart Digital)
p4367
sg20
VEbook
p4368
sg22
g412
sg24
F75.5
sasg38
V367696
p4369
sg40
VE-01
p4370
sa(dp4371
g8
VSTAFF
p4372
sg10
(lp4373
(dp4374
g13
I9780495115410
sg14
VKittler
p4375
sg16
VRequired
p4376
sg18
VFood & Culture
p4377
sg20
VPaperback
p4378
sg22
g412
sg24
F139.4
sa(dp4379
g13
I9780495588214
sg14
VKittler (Db*)
p4380
sg16
VOptional
p4381
sg18
VFood & Culture  (Coursesmart Digital)
p4382
sg20
VEbook
p4383
sg22
g412
sg24
F75.5
sasg38
V367697
p4384
sg40
VE-02
p4385
sa(dp4386
g8
VIlkay
p4387
sg10
(lp4388
(dp4389
g13
I9780495115410
sg14
VKittler
p4390
sg16
VRequired
p4391
sg18
VFood & Culture
p4392
sg20
VPaperback
p4393
sg22
g412
sg24
F139.4
sa(dp4394
g13
I9780495588214
sg14
VKittler (Db*)
p4395
sg16
VOptional
p4396
sg18
VFood & Culture  (Coursesmart Digital)
p4397
sg20
VEbook
p4398
sg22
g412
sg24
F75.5
sasg38
V367698
p4399
sg40
VE-23
p4400
sasg38
V97730
p4401
sg40
VFN228
p4402
sa(dp4403
g5
(lp4404
(dp4405
g8
VMCCABE
p4406
sg10
(lp4407
(dp4408
g13
I9781449675226
sg14
VInsel
p4409
sg16
VRequired
p4410
sg18
VNutrition Myplate Update
p4411
sg20
VHardback
p4412
sg22
g590
sg24
F164.05
sasg38
V367699
p4413
sg40
VE-01
p4414
sasg38
V97731
p4415
sg40
VFN235
p4416
sa(dp4417
g5
(lp4418
(dp4419
g8
VIlkay
p4420
sg10
(lp4421
(dp4422
g13
I9781133159377
sg14
VSizer*
p4423
sg16
VRequired
p4424
sg18
VNutrition (Looseleaf) W/ Diet Analysis 10.0
p4425
sg20
VKit/Set/Package
p4426
sg22
V12
p4427
sg24
F126.25
sa(dp4428
g13
I9780757594212
sg14
VIlkay
p4429
sg16
VOptional
p4430
sg18
VFinding Your Weigh To A Healthy Lifestyle
p4431
sg20
Nsg22
Nsg24
F38.0
sa(dp4432
g13
I9780538495080
sg14
VEsha Research
p4433
sg16
VPart of Set
p4434
sg18
VDiet Analysis + Version 10.0 (Access Card Only)(New Only)
p4435
sg20
Nsg22
Nsg24
F47.35
sa(dp4436
g13
I9781133153337
sg14
VSizer
p4437
sg16
VPart of Set
p4438
sg18
VNutrition (Custom Looseleaf)
p4439
sg20
VLooseleaf
p4440
sg22
V12
p4441
sg24
F110.6
sasg38
V367700
p4442
sg40
VE-01
p4443
sa(dp4444
g8
VMazhar
p4445
sg10
(lp4446
(dp4447
g13
I9781133159377
sg14
VSizer*
p4448
sg16
VRequired
p4449
sg18
VNutrition (Looseleaf) W/ Diet Analysis 10.0
p4450
sg20
VKit/Set/Package
p4451
sg22
V12
p4452
sg24
F126.25
sa(dp4453
g13
I9780538495080
sg14
VEsha Research
p4454
sg16
VPart of Set
p4455
sg18
VDiet Analysis + Version 10.0 (Access Card Only)(New Only)
p4456
sg20
Nsg22
Nsg24
F47.35
sa(dp4457
g13
I9781133153337
sg14
VSizer
p4458
sg16
VPart of Set
p4459
sg18
VNutrition (Custom Looseleaf)
p4460
sg20
VLooseleaf
p4461
sg22
V12
p4462
sg24
F110.6
sasg38
V367701
p4463
sg40
VE-02
p4464
sa(dp4465
g8
VGORDON
p4466
sg10
(lp4467
(dp4468
g13
I9781133159377
sg14
VSizer*
p4469
sg16
VRequired
p4470
sg18
VNutrition (Looseleaf) W/ Diet Analysis 10.0
p4471
sg20
VKit/Set/Package
p4472
sg22
V12
p4473
sg24
F126.25
sa(dp4474
g13
I9780538495080
sg14
VEsha Research
p4475
sg16
VPart of Set
p4476
sg18
VDiet Analysis + Version 10.0 (Access Card Only)(New Only)
p4477
sg20
Nsg22
Nsg24
F47.35
sa(dp4478
g13
I9781133153337
sg14
VSizer
p4479
sg16
VPart of Set
p4480
sg18
VNutrition (Custom Looseleaf)
p4481
sg20
VLooseleaf
p4482
sg22
V12
p4483
sg24
F110.6
sasg38
V367702
p4484
sg40
VE-23
p4485
sasg38
V97732
p4486
sg40
VFN305
p4487
sa(dp4488
g5
(lp4489
(dp4490
g8
VSTAFF
p4491
sg10
(lp4492
sg38
V379822
p4493
sg40
VE-01
p4494
sa(dp4495
g8
VSTAFF
p4496
sg10
(lp4497
sg38
V379823
p4498
sg40
VE-02
p4499
sa(dp4500
g8
VSTAFF
p4501
sg10
(lp4502
sg38
V379824
p4503
sg40
VE-03
p4504
sasg38
V99354
p4505
sg40
VFN694
p4506
sa(dp4507
g5
(lp4508
(dp4509
g8
VSTAFF
p4510
sg10
(lp4511
sg38
V379825
p4512
sg40
VE-01
p4513
sasg38
V99355
p4514
sg40
VFN696
p4515
sasg469
VFN
p4516
sg38
V4698
p4517
sg40
VFOODS & NUTRITION
p4518
sa(dp4519
g2
(lp4520
(dp4521
g5
(lp4522
(dp4523
g8
VPEREZ
p4524
sg10
(lp4525
(dp4526
g13
I9780538470827
sg14
VClarkson
p4527
sg16
VRequired
p4528
sg18
VBusiness Law
p4529
sg20
VHardback
p4530
sg22
V12
p4531
sg24
F255.65
sa(dp4532
g13
I9781133297833
sg14
VClarkson*
p4533
sg16
VRequired
p4534
sg18
VBusiness Law (California Ed.) W/Aplia
p4535
sg20
VKit/Set/Package
p4536
sg22
V12
p4537
sg24
F171.25
sa(dp4538
g13
I9781111547295
sg14
VClarkson (Db*)
p4539
sg16
VOptional
p4540
sg18
VBusiness Law (Coursesmart)
p4541
sg20
VEbook
p4542
sg22
V12
p4543
sg24
F138.0
sasg38
V379901
p4544
sg40
VE-01
p4545
sasg38
V97733
p4546
sg40
VFRL201
p4547
sa(dp4548
g5
(lp4549
(dp4550
g8
VSTAFF
p4551
sg10
(lp4552
(dp4553
g13
I9780077694913
sg14
VRoss*
p4554
sg16
VRequired
p4555
sg18
VFundamentals Of Corporate Finance Vol. 1 Custom Looseleaf W/Connect Access Code
p4556
sg20
VLooseleaf
p4557
sg22
V10
p4558
sg24
F60.8
sa(dp4559
g13
I9780077694968
sg14
VMcgraw
p4560
sg16
VPart of Set
p4561
sg18
VConnect Access Code T/A Fundamentals Of Corp Finance (No E-Book)
p4562
sg20
Nsg22
Nsg24
F52.95
sasg38
V379902
p4563
sg40
VE-01
p4564
sa(dp4565
g8
VSTAFF
p4566
sg10
(lp4567
(dp4568
g13
I9780077694913
sg14
VRoss*
p4569
sg16
VRequired
p4570
sg18
VFundamentals Of Corporate Finance Vol. 1 Custom Looseleaf W/Connect Access Code
p4571
sg20
VLooseleaf
p4572
sg22
V10
p4573
sg24
F60.8
sa(dp4574
g13
I9780077694968
sg14
VMcgraw
p4575
sg16
VPart of Set
p4576
sg18
VConnect Access Code T/A Fundamentals Of Corp Finance (No E-Book)
p4577
sg20
Nsg22
Nsg24
F52.95
sasg38
V379903
p4578
sg40
VE-02
p4579
sasg38
V97734
p4580
sg40
VFRL300
p4581
sa(dp4582
g5
(lp4583
(dp4584
g8
VMCCLURE
p4585
sg10
(lp4586
(dp4587
g13
I9780077954079
sg14
VRoss* (Sw2)
p4588
sg16
VRequired
p4589
sg18
VFundamentals Of Corporate Finance Alt. Ed W/Connect Access Card & Csucpp Supp
p4590
sg20
VKit/Set/Package
p4591
sg22
g1109
sg24
F137.0
sa(dp4592
g13
I9780077296483
sg14
VRoss (Db*)
p4593
sg16
VOptional
p4594
sg18
VFundamentals Of Corporate Finance Alt (Coursesmart Digital)
p4595
sg20
Nsg22
Nsg24
F122.75
sa(dp4596
g13
I9780077246129
sg14
VRoss
p4597
sg16
VPart of Set
p4598
sg18
VFundamentals Of Corporate Finance Alt Ed
p4599
sg20
VHardback
p4600
sg22
g1109
sg24
F176.25
sa(dp4601
g13
I9780077326869
sg14
VRoss
p4602
sg16
VPart of Set
p4603
sg18
VConnect Access T/A Fundamentals Of Corp. Finance
p4604
sg20
VAccess Code
p4605
sg22
g1109
sg24
F58.8
sasg38
V379904
p4606
sg40
VE-01
p4607
sa(dp4608
g8
VKASHEFINEJAD
p4609
sg10
(lp4610
(dp4611
g13
I9780077954079
sg14
VRoss* (Sw2)
p4612
sg16
VRequired
p4613
sg18
VFundamentals Of Corporate Finance Alt. Ed W/Connect Access Card & Csucpp Supp
p4614
sg20
VKit/Set/Package
p4615
sg22
g1109
sg24
F137.0
sa(dp4616
g13
I9780077296483
sg14
VRoss (Db*)
p4617
sg16
VOptional
p4618
sg18
VFundamentals Of Corporate Finance Alt (Coursesmart Digital)
p4619
sg20
Nsg22
Nsg24
F122.75
sa(dp4620
g13
I9780077246129
sg14
VRoss
p4621
sg16
VPart of Set
p4622
sg18
VFundamentals Of Corporate Finance Alt Ed
p4623
sg20
VHardback
p4624
sg22
g1109
sg24
F176.25
sa(dp4625
g13
I9780077326869
sg14
VRoss
p4626
sg16
VPart of Set
p4627
sg18
VConnect Access T/A Fundamentals Of Corp. Finance
p4628
sg20
VAccess Code
p4629
sg22
g1109
sg24
F58.8
sasg38
V379905
p4630
sg40
VE-02
p4631
sasg38
V97735
p4632
sg40
VFRL301
p4633
sa(dp4634
g5
(lp4635
(dp4636
g8
VYOUNG
p4637
sg10
(lp4638
(dp4639
g13
I9780538470827
sg14
VClarkson
p4640
sg16
VRequired
p4641
sg18
VBusiness Law
p4642
sg20
VHardback
p4643
sg22
V12
p4644
sg24
F255.65
sa(dp4645
g13
I9781133297833
sg14
VClarkson*
p4646
sg16
VRequired
p4647
sg18
VBusiness Law (California Ed.) W/Aplia
p4648
sg20
VKit/Set/Package
p4649
sg22
V12
p4650
sg24
F171.25
sa(dp4651
g13
I9781111547295
sg14
VClarkson (Db*)
p4652
sg16
VOptional
p4653
sg18
VBusiness Law (Coursesmart)
p4654
sg20
VEbook
p4655
sg22
V12
p4656
sg24
F138.0
sasg38
V379906
p4657
sg40
VE-01
p4658
sasg38
V97736
p4659
sg40
VFRL302
p4660
sa(dp4661
g5
(lp4662
(dp4663
g8
VSTAFF
p4664
sg10
(lp4665
(dp4666
g13
I9780073377322
sg14
VLing
p4667
sg16
VRequired
p4668
sg18
VReal Estate Principles
p4669
sg20
VHardback
p4670
sg22
g115
sg24
F160.0
sa(dp4671
g13
I9780077296353
sg14
VLing (Db*)
p4672
sg16
VOptional
p4673
sg18
VReal Estate Principles (Coursesmart Digital)
p4674
sg20
VEbook
p4675
sg22
g115
sg24
F92.5
sasg38
V379907
p4676
sg40
VE-01
p4677
sasg38
V97737
p4678
sg40
VFRL306
p4679
sa(dp4680
g5
(lp4681
(dp4682
g8
VSARMAS
p4683
sg10
(lp4684
(dp4685
g13
I9780077606794
sg14
VRoss*
p4686
sg16
VRequired
p4687
sg18
VCorporate Finance W/Connect Plus
p4688
sg20
VKit/Set/Package
p4689
sg22
g1109
sg24
F255.0
sa(dp4690
g13
I9780077296384
sg14
VRoss (Db*)
p4691
sg16
VOptional
p4692
sg18
VCorporate Finance (Coursesmart)
p4693
sg20
VEbook
p4694
sg22
g1109
sg24
F127.25
sa(dp4695
g13
I9780077333386
sg14
VRoss
p4696
sg16
VPart of Set
p4697
sg18
VConnect Plus Access Card
p4698
sg20
Nsg22
Nsg24
F94.1
sa(dp4699
g13
I9780073382333
sg14
VRoss
p4700
sg16
VPart of Set
p4701
sg18
VCorporate Finance
p4702
sg20
VHardback
p4703
sg22
g1109
sg24
F228.75
sasg38
V379908
p4704
sg40
VE-01
p4705
sasg38
V97738
p4706
sg40
VFRL367
p4707
sa(dp4708
g5
(lp4709
(dp4710
g8
VWelke
p4711
sg10
(lp4712
(dp4713
g13
I9780073377339
sg14
VBrueggeman
p4714
sg16
VRequired
p4715
sg18
VReal Estate Finance & Investments
p4716
sg20
VHardback
p4717
sg22
V14
p4718
sg24
F185.3
sa(dp4719
g13
I9780077375256
sg14
VBrueggeman (Db*)
p4720
sg16
VOptional
p4721
sg18
VReal Estate Finance & Investments (Coursesmart)
p4722
sg20
VEbook
p4723
sg22
g590
sg24
F107.0
sasg38
V379909
p4724
sg40
VE-01
p4725
sasg38
V99398
p4726
sg40
VFRL383
p4727
sa(dp4728
g5
(lp4729
(dp4730
g8
VKHOLDY -SABETY
p4731
sg10
(lp4732
(dp4733
g13
I9780262026284
sg14
VBenninga
p4734
sg16
VRequired
p4735
sg18
VFinancial Modeling (W/Cd)
p4736
sg20
VHardback
p4737
sg22
g115
sg24
F92.0
sasg38
V379910
p4738
sg40
VE-01
p4739
sasg38
V97739
p4740
sg40
VFRL404
p4741
sa(dp4742
g5
(lp4743
(dp4744
g8
VSOLIS
p4745
sg10
(lp4746
(dp4747
g13
I9780324596168
sg14
VJentz
p4748
sg16
VRequired
p4749
sg18
VBusiness Law Alt Ed
p4750
sg20
VHardback
p4751
sg22
V11
p4752
sg24
F236.9
sa(dp4753
g13
I9781439028421
sg14
VJentz (Db*)
p4754
sg16
VOptional
p4755
sg18
VBusiness Law  Alt(Coursesmart Digital)
p4756
sg20
VEbook
p4757
sg22
VAL
p4758
sg24
F134.5
sasg38
V379911
p4759
sg40
VE-01
p4760
sasg38
V97740
p4761
sg40
VFRL408
p4762
sa(dp4763
g5
(lp4764
(dp4765
g8
VYOUNG
p4766
sg10
(lp4767
(dp4768
g13
I9780538473613
sg14
VSchaffer
p4769
sg16
VRequired
p4770
sg18
VInternational Business Law & Its Environment
p4771
sg20
VHardback
p4772
sg22
g23
sg24
F285.0
sa(dp4773
g13
I9781133835974
sg14
VSchaffer (Db*)
p4774
sg16
VOptional
p4775
sg18
VInternational Business Law & Its Environment (Coursesmart)
p4776
sg20
Nsg22
Nsg24
F140.5
sasg38
V379912
p4777
sg40
VE-01
p4778
sasg38
V97741
p4779
sg40
VFRL426
p4780
sa(dp4781
g5
(lp4782
(dp4783
g8
VSARMAS
p4784
sg10
(lp4785
(dp4786
g13
I9781285217734
sg14
VBrigham/Klein
p4787
sg16
VRequired
p4788
sg18
VEvaluation Of Financial Policy (8 Cases - Directed)
p4789
sg20
Nsg22
Nsg24
F28.0
sasg38
V379913
p4790
sg40
VE-01
p4791
sasg38
V97742
p4792
sg40
VFRL440
p4793
sa(dp4794
g5
(lp4795
(dp4796
g8
VGHAZANFARI
p4797
sg10
(lp4798
(dp4799
g13
I9780078034671
sg14
VRose
p4800
sg16
VRequired
p4801
sg18
VBank Management & Financial Services
p4802
sg20
VHardback
p4803
sg22
g1109
sg24
F212.2
sa(dp4804
g13
I9780077410568
sg14
VRose (Db*)
p4805
sg16
VOptional
p4806
sg18
VBank Management & Financial Services (Coursesmart)
p4807
sg20
VEbook
p4808
sg22
g1109
sg24
F113.25
sasg38
V379914
p4809
sg40
VE-01
p4810
sasg38
V97952
p4811
sg40
VFRL460
p4812
sasg469
VFRL
p4813
sg38
V4805
p4814
sg40
VFIN REAL EST & LAW
p4815
sa(dp4816
g2
(lp4817
(dp4818
g5
(lp4819
(dp4820
g8
VSTAFF
p4821
sg10
(lp4822
(dp4823
g13
I9780073376226
sg14
VForouzan
p4824
sg16
VRequired
p4825
sg18
VData Communications & Networking
p4826
sg20
VHardback
p4827
sg22
g412
sg24
F179.4
sa(dp4828
g13
I9780077445386
sg14
VForouzan (Db*)
p4829
sg16
VOptional
p4830
sg18
VData Communications & Networking (Coursesmart)
p4831
sg20
VEbook
p4832
sg22
g412
sg24
F95.75
sasg38
V380449
p4833
sg40
VE-01
p4834
sasg38
V97743
p4835
sg40
VGBA557
p4836
sa(dp4837
g5
(lp4838
(dp4839
g8
VEdward
p4840
sg10
(lp4841
(dp4842
g13
I9780470740941
sg14
VLocke
p4843
sg16
VRequired
p4844
sg18
VHandbook Of Principles Of Organizational Behavior
p4845
sg20
VPaperback
p4846
sg22
g515
sg24
F75.0
sasg38
V367718
p4847
sg40
VE-01
p4848
sasg38
V97744
p4849
sg40
VGBA615
p4850
sa(dp4851
g5
(lp4852
(dp4853
g8
VEdward
p4854
sg10
(lp4855
sg38
V367719
p4856
sg40
VE-01
p4857
sasg38
V97745
p4858
sg40
VGBA616
p4859
sa(dp4860
g5
(lp4861
(dp4862
g8
VHALATI
p4863
sg10
(lp4864
(dp4865
g13
I9781111532222
sg14
VAnderson
p4866
sg16
VRequired
p4867
sg18
VIntro To Management Science 13Th Rev (W/Cd)
p4868
sg20
Nsg22
Nsg24
F258.45
sa(dp4869
g13
I9781111916077
sg14
VAnderson (Db*)
p4870
sg16
VOptional
p4871
sg18
VIntro To Management Science (Coursesmart)
p4872
sg20
VEbook
p4873
sg22
V13
p4874
sg24
F148.0
sasg38
V367721
p4875
sg40
VE-01
p4876
sasg38
V97746
p4877
sg40
VGBA628
p4878
sa(dp4879
g5
(lp4880
(dp4881
g8
VHALATI
p4882
sg10
(lp4883
sg38
V367722
p4884
sg40
VE-01
p4885
sasg38
V97747
p4886
sg40
VGBA629
p4887
sa(dp4888
g5
(lp4889
(dp4890
g8
VMONCRIEF
p4891
sg10
(lp4892
(dp4893
g13
I9781412965576
sg14
VCreswell
p4894
sg16
VRequired
p4895
sg18
VResearch Design
p4896
sg20
VPaperback
p4897
sg22
g115
sg24
F75.0
sasg38
V367725
p4898
sg40
VE-01
p4899
sasg38
V97750
p4900
sg40
VGBA683
p4901
sa(dp4902
g5
(lp4903
(dp4904
g8
VMONCRIEF
p4905
sg10
(lp4906
sg38
V367726
p4907
sg40
VE-01
p4908
sasg38
V97751
p4909
sg40
VGBA684
p4910
sa(dp4911
g5
(lp4912
(dp4913
g8
VRHODES
p4914
sg10
(lp4915
(dp4916
g13
I9781450068925
sg14
VRhodes
p4917
sg16
VRequired
p4918
sg18
VReport Writing: A Survival Guide
p4919
sg20
Nsg22
Nsg24
F16.0
sa(dp4920
g13
I9780078112720
sg14
VThompson
p4921
sg16
VRequired
p4922
sg18
VCrafting & Executing Strategy: Quest For Comp Advantage
p4923
sg20
VHardback
p4924
sg22
V18
p4925
sg24
F218.15
sasg38
V367727
p4926
sg40
VE-01
p4927
sasg38
V97752
p4928
sg40
VGBA687
p4929
sa(dp4930
g5
(lp4931
(dp4932
g8
VRHODES
p4933
sg10
(lp4934
sg38
V367728
p4935
sg40
VE-01
p4936
sasg38
V97753
p4937
sg40
VGBA688
p4938
sasg469
VGBA
p4939
sg38
V4813
p4940
sg40
VGRADUATE BUS ADMIN
p4941
sa(dp4942
g2
(lp4943
(dp4944
g5
(lp4945
(dp4946
g8
VMCGARVEY
p4947
sg10
(lp4948
sg38
V367729
p4949
sg40
VE-01
p4950
sasg38
V97754
p4951
sg40
VGED400
p4952
sa(dp4953
g5
(lp4954
(dp4955
g8
VJACOBSEN
p4956
sg10
(lp4957
sg38
V367731
p4958
sg40
VE-01
p4959
sasg38
V97756
p4960
sg40
VGED532
p4961
sa(dp4962
g5
(lp4963
(dp4964
g8
VSTAFF
p4965
sg10
(lp4966
sg38
V367732
p4967
sg40
VE-01
p4968
sasg38
V97757
p4969
sg40
VGED550
p4970
sa(dp4971
g5
(lp4972
(dp4973
g8
VJACOBSEN
p4974
sg10
(lp4975
sg38
V367733
p4976
sg40
VE-01
p4977
sasg38
V97758
p4978
sg40
VGED690
p4979
sa(dp4980
g5
(lp4981
(dp4982
g8
VSTAFF
p4983
sg10
(lp4984
sg38
V367734
p4985
sg40
VE-01
p4986
sasg38
V97759
p4987
sg40
VGED691
p4988
sa(dp4989
g5
(lp4990
(dp4991
g8
VJACOBSEN
p4992
sg10
(lp4993
sg38
V367735
p4994
sg40
VE-01
p4995
sasg38
V97760
p4996
sg40
VGED693
p4997
sa(dp4998
g5
(lp4999
(dp5000
g8
VMCGARVEY
p5001
sg10
(lp5002
sg38
V367730
p5003
sg40
VE-01
p5004
sasg38
V97755
p5005
sg40
VGED400L
p5006
sasg469
VGED
p5007
sg38
V4702
p5008
sg40
VGRADUATE & PROF ST
p5009
sa(dp5010
g2
(lp5011
(dp5012
g5
(lp5013
(dp5014
g8
VNICOLL
p5015
sg10
(lp5016
(dp5017
g13
I9780470134863
sg14
VStrahler
p5018
sg16
VRequired
p5019
sg18
VIntroducing Physical Geography
p5020
sg20
VPaperback
p5021
sg22
g412
sg24
F145.0
sa(dp5022
g13
I9780470416501
sg14
VStrahler (Db*)
p5023
sg16
VOptional
p5024
sg18
VIntro Physical Geography (Coursesmart)
p5025
sg20
VEbook
p5026
sg22
g412
sg24
F70.5
sasg38
V367736
p5027
sg40
VE-01
p5028
sasg38
V97761
p5029
sg40
VGEO101
p5030
sa(dp5031
g5
(lp5032
(dp5033
g8
VPlatt
p5034
sg10
(lp5035
(dp5036
g13
I9780321769664
sg14
VKnox
p5037
sg16
VRequired
p5038
sg18
VHuman Geography
p5039
sg20
VPaperback
p5040
sg22
g169
sg24
F145.5
sa(dp5041
g13
I9780321821324
sg14
VKnox (Db*)
p5042
sg16
VOptional
p5043
sg18
VHuman Geography (Coursesmart)
p5044
sg20
VEbook
p5045
sg22
g169
sg24
F83.0
sasg38
V367737
p5046
sg40
VE-01
p5047
sasg38
V97762
p5048
sg40
VGEO102
p5049
sa(dp5050
g5
(lp5051
(dp5052
g8
VPlatt
p5053
sg10
(lp5054
(dp5055
g13
I9780757570605
sg14
VHyslop
p5056
sg16
VRequired
p5057
sg18
VCalifornia Eclectic
p5058
sg20
Nsg22
Nsg24
F79.95
sasg38
V367738
p5059
sg40
VE-01
p5060
sasg38
V97763
p5061
sg40
VGEO351
p5062
sasg469
VGEO
p5063
sg38
V4703
p5064
sg40
VGEOGRAPHY
p5065
sa(dp5066
g2
(lp5067
(dp5068
g5
(lp5069
(dp5070
g8
VROUMELIS
p5071
sg10
(lp5072
(dp5073
g13
I9780393935189
sg14
VMarshak
p5074
sg16
VRequired
p5075
sg18
VEarth
p5076
sg20
VPaperback
p5077
sg22
g590
sg24
F127.5
sa(dp5078
g13
I9780393120660
sg14
VMarshak (Db*)
p5079
sg16
VOptional
p5080
sg18
VEarth (Coursesmart)
p5081
sg20
VEbook
p5082
sg22
g590
sg24
F56.7
sasg38
V379915
p5083
sg40
VE-01
p5084
sasg38
V99379
p5085
sg40
VGSC321
p5086
sa(dp5087
g5
(lp5088
(dp5089
g8
VROUMELIS
p5090
sg10
(lp5091
(dp5092
g13
I9780757523687
sg14
VNourse
p5093
sg16
VRequired
p5094
sg18
VPractical Earth Science Exercises (Revised 2Nd)
p5095
sg20
VPaperback
p5096
sg22
g515
sg24
F58.8
sasg38
V379916
p5097
sg40
VE-01
p5098
sasg38
V99380
p5099
sg40
VGSC321L
p5100
sasg469
VGSC
p5101
sg38
V4811
p5102
sg40
VGEOLOGICAL SCIENCE
p5103
sa(dp5104
g2
(lp5105
(dp5106
g5
(lp5107
(dp5108
g8
VIrvin
p5109
sg10
(lp5110
sg38
V380206
p5111
sg40
VE-01
p5112
sasg38
V97764
p5113
sg40
VHST101
p5114
sa(dp5115
g5
(lp5116
(dp5117
g8
VARREOLA
p5118
sg10
(lp5119
(dp5120
g13
I9781121438767
sg14
VArreola
p5121
sg16
VRequired
p5122
sg18
VHistory Of Civilization/Middle Period (Custom)
p5123
sg20
Nsg22
Nsg24
F57.4
sasg38
V367740
p5124
sg40
VE-01
p5125
sa(dp5126
g8
VIrvin
p5127
sg10
(lp5128
sg38
V380209
p5129
sg40
VE-02
p5130
sasg38
V97765
p5131
sg40
VHST102
p5132
sa(dp5133
g5
(lp5134
(dp5135
g8
VMANSOUR
p5136
sg10
(lp5137
(dp5138
g13
I9780312666934
sg14
VMckay
p5139
sg16
VRequired
p5140
sg18
VHistory Of World Societies Vol Ii
p5141
sg20
VPaperback
p5142
sg22
g1109
sg24
F110.65
sa(dp5143
g13
I9780312569792
sg14
VMckay (Db*)
p5144
sg16
VOptional
p5145
sg18
VA History Of World Societies Vol 2 Since 1450 (Coursesmart)
p5146
sg20
VEbook
p5147
sg22
g1109
sg24
F52.0
sasg38
V367742
p5148
sg40
VE-01
p5149
sasg38
V97766
p5150
sg40
VHST103
p5151
sa(dp5152
g5
(lp5153
(dp5154
g8
VBATES
p5155
sg10
(lp5156
sg38
V367743
p5157
sg40
VE-01
p5158
sasg38
V97767
p5159
sg40
VHST201
p5160
sa(dp5161
g5
(lp5162
(dp5163
g8
VHOIKKALA
p5164
sg10
(lp5165
(dp5166
g13
I9781256751274
sg14
VDivine*
p5167
sg16
VRequired
p5168
sg18
VAmerica: Past & Present Vol. 2 W/Myhistorylab (Making The Grade)
p5169
sg20
VKit/Set/Package
p5170
sg22
g1109
sg24
F76.0
sa(dp5171
g13
I9780205206544
sg14
VPearson
p5172
sg16
VPart of Set
p5173
sg18
VMyhistorylab W/E-Text
p5174
sg20
Nsg22
Nsg24
F23.55
sa(dp5175
g13
I9780205723577
sg14
VDivine
p5176
sg16
VPart of Set
p5177
sg18
VAmerica: Past & Present Vol. 2 (Books A La Carte)
p5178
sg20
VPaperback
p5179
sg22
g1109
sg24
F0.0
sasg38
V367744
p5180
sg40
VE-02
p5181
sa(dp5182
g8
VBATES
p5183
sg10
(lp5184
sg38
V380446
p5185
sg40
VE-02C
p5186
sa(dp5187
g8
VMANSOUR
p5188
sg10
(lp5189
(dp5190
g13
I9780393130362
sg14
VFoner*
p5191
sg16
VRequired
p5192
sg18
VGive Me Liberty Vol. 2 Brief W/Voices Of Freedom Vol. 2
p5193
sg20
VKit/Set/Package
p5194
sg22
g115
sg24
F66.65
sa(dp5195
g13
I9780393120301
sg14
VFoner (Db*)
p5196
sg16
VOptional
p5197
sg18
VGive Me Liberty Brief Vol 2 (Coursesmart)
p5198
sg20
VEbook
p5199
sg22
g115
sg24
F22.25
sa(dp5200
g13
I9780393935684
sg14
VFoner
p5201
sg16
VPart of Set
p5202
sg18
VVoices Of Freedom Vol Two
p5203
sg20
VPaperback
p5204
sg22
g115
sg24
F26.65
sa(dp5205
g13
I9780393935530
sg14
VFoner
p5206
sg16
VPart of Set
p5207
sg18
VGive Me Liberty Brief Vol 2
p5208
sg20
VPaperback
p5209
sg22
g115
sg24
F66.65
sasg38
V367745
p5210
sg40
VE-03
p5211
sasg38
V97768
p5212
sg40
VHST202
p5213
sa(dp5214
g5
(lp5215
(dp5216
g8
VBATES
p5217
sg10
(lp5218
sg38
V367746
p5219
sg40
VE-01
p5220
sa(dp5221
g8
VHOIKKALA
p5222
sg10
(lp5223
(dp5224
g13
I9780618594962
sg14
VCherny/Chan*(Sw)
p5225
sg16
VRequired
p5226
sg18
VCompeting Visions W/Major Problems In California History
p5227
sg20
Nsg22
Nsg24
F134.4
sa(dp5228
g13
I9780669275889
sg14
VChan
p5229
sg16
VPart of Set
p5230
sg18
VMajor Problems In California History
p5231
sg20
Nsg22
Nsg24
F68.2
sa(dp5232
g13
I9780395959640
sg14
VCherny
p5233
sg16
VPart of Set
p5234
sg18
VCompeting Visions: History Of California
p5235
sg20
Nsg22
Nsg24
F130.0
sasg38
V367747
p5236
sg40
VE-02
p5237
sasg38
V97955
p5238
sg40
VHST370
p5239
sasg469
VHST
p5240
sg38
V4707
p5241
sg40
VHISTORY
p5242
sa(dp5243
g2
(lp5244
(dp5245
g5
(lp5246
(dp5247
g8
VMULYANTO
p5248
sg10
(lp5249
(dp5250
g13
I9780136090984
sg14
VCavusgil
p5251
sg16
VRequired
p5252
sg18
VInternational Business
p5253
sg20
VHardback
p5254
sg22
g515
sg24
F187.5
sa(dp5255
g13
I9780136090724
sg14
VCavusgil (Db*)
p5256
sg16
VOptional
p5257
sg18
VInternational Business (Coursesmart)
p5258
sg20
VEbook
p5259
sg22
g515
sg24
F80.0
sasg38
V367748
p5260
sg40
VE-01
p5261
sasg38
V97956
p5262
sg40
VIBM300
p5263
sa(dp5264
g5
(lp5265
(dp5266
g8
VMYERS
p5267
sg10
(lp5268
(dp5269
g13
I9780324789287
sg14
VLamb
p5270
sg16
VRequired
p5271
sg18
VMktg 3
p5272
sg20
Nsg22
Nsg24
F54.95
sasg38
V367749
p5273
sg40
VE-01
p5274
sa(dp5275
g8
VBRYANT
p5276
sg10
(lp5277
(dp5278
g13
I9780132620000
sg14
VLevens*
p5279
sg16
VRequired
p5280
sg18
VMarketing Sve W/Mymarketinglab Sac
p5281
sg20
VKit/Set/Package
p5282
sg22
g515
sg24
F66.45
sa(dp5283
g13
I9780132177474
sg14
VLevens
p5284
sg16
VPart of Set
p5285
sg18
VMarketing St Value Ed (Loose-Leaf)
p5286
sg20
VPaperback
p5287
sg22
g515
sg24
F57.2
sa(dp5288
g13
I9780132175920
sg14
VPearson
p5289
sg16
VPart of Set
p5290
sg18
VMymarketinglab Sac
p5291
sg20
VAccess Code
p5292
sg22
g515
sg24
F96.0
sasg38
V367750
p5293
sg40
VE-02
p5294
sasg38
V97957
p5295
sg40
VIBM301
p5296
sa(dp5297
g5
(lp5298
(dp5299
g8
VVERCILLO
p5300
sg10
(lp5301
(dp5302
g13
I9780538467384
sg14
VFerrell
p5303
sg16
VRequired
p5304
sg18
VMarketing Strategy
p5305
sg20
VPaperback
p5306
sg22
g412
sg24
F197.8
sasg38
V367751
p5307
sg40
VE-01
p5308
sasg38
V97958
p5309
sg40
VIBM302
p5310
sa(dp5311
g5
(lp5312
(dp5313
g8
VASSUMMA
p5314
sg10
(lp5315
sg38
V367752
p5316
sg40
VE-01
p5317
sasg38
V97959
p5318
sg40
VIBM306
p5319
sa(dp5320
g5
(lp5321
(dp5322
g8
VSWARTZ
p5323
sg10
(lp5324
(dp5325
g13
I9780073404868
sg14
VBelch
p5326
sg16
VRequired
p5327
sg18
VAdvertising & Promotion
p5328
sg20
VHardback
p5329
sg22
g1109
sg24
F203.15
sa(dp5330
g13
I9780077325367
sg14
VBelch (Db*)
p5331
sg16
VOptional
p5332
sg18
VAdvertising & Promotion (Coursesmart)
p5333
sg20
VEbook
p5334
sg22
g1109
sg24
F117.25
sasg38
V367753
p5335
sg40
VE-01
p5336
sasg38
V97960
p5337
sg40
VIBM307
p5338
sa(dp5339
g5
(lp5340
(dp5341
g8
VVERCILLO
p5342
sg10
(lp5343
sg38
V367754
p5344
sg40
VE-01
p5345
sasg38
V97961
p5346
sg40
VIBM320
p5347
sa(dp5348
g5
(lp5349
(dp5350
g8
VMYERS
p5351
sg10
(lp5352
(dp5353
g13
I9780132147552
sg14
VStrauss
p5354
sg16
VRequired
p5355
sg18
VE-Marketing
p5356
sg20
VPaperback
p5357
sg22
g169
sg24
F131.25
sa(dp5358
g13
I9780132147613
sg14
VStrauss (Db*)
p5359
sg16
VOptional
p5360
sg18
VE-Marketing (Coursesmart)
p5361
sg20
VEbook
p5362
sg22
g169
sg24
F56.0
sasg38
V367755
p5363
sg40
VE-01
p5364
sasg38
V97962
p5365
sg40
VIBM403
p5366
sa(dp5367
g5
(lp5368
(dp5369
g8
VHOSSAIN
p5370
sg10
(lp5371
(dp5372
g13
I9780324305418
sg14
VChurchill
p5373
sg16
VRequired
p5374
sg18
VBasic Marketing Research
p5375
sg20
VHardback
p5376
sg22
g169
sg24
F133.65
sasg38
V367756
p5377
sg40
VE-01
p5378
sasg38
V97963
p5379
sg40
VIBM408
p5380
sa(dp5381
g5
(lp5382
(dp5383
g8
VWHITSON
p5384
sg10
(lp5385
(dp5386
g13
I9780135053010
sg14
VSchiffman
p5387
sg16
VRequired
p5388
sg18
VConsumer Behavior
p5389
sg20
VHardback
p5390
sg22
V10
p5391
sg24
F203.0
sa(dp5392
g13
I9780135053072
sg14
VSchiffman (Db*)
p5393
sg16
VOptional
p5394
sg18
VConsumer Behavior (Coursesmart Digital)
p5395
sg20
VEbook
p5396
sg22
V10
p5397
sg24
F85.0
sasg38
V367757
p5398
sg40
VE-01
p5399
sasg38
V97964
p5400
sg40
VIBM411
p5401
sa(dp5402
g5
(lp5403
(dp5404
g8
VROXAS
p5405
sg10
(lp5406
(dp5407
g13
I9780073529943
sg14
VCateora
p5408
sg16
VRequired
p5409
sg18
VInternational Marketing
p5410
sg20
VHardback
p5411
sg22
V15
p5412
sg24
F210.65
sa(dp5413
g13
I9780077446963
sg14
VCateora (Db*)
p5414
sg16
VOptional
p5415
sg18
VInternational Marketing (Coursesmart)
p5416
sg20
VEbook
p5417
sg22
g412
sg24
F112.25
sasg38
V367758
p5418
sg40
VE-01
p5419
sasg38
V97965
p5420
sg40
VIBM414
p5421
sa(dp5422
g5
(lp5423
(dp5424
g8
VOzkaya
p5425
sg10
(lp5426
(dp5427
g13
I9780160869532
sg14
VInternational Trade
p5428
sg16
VRequired
p5429
sg18
VBasic Guide To Exporting
p5430
sg20
Nsg22
Nsg24
F27.5
sasg38
V367759
p5431
sg40
VE-01
p5432
sasg38
V97966
p5433
sg40
VIBM416
p5434
sa(dp5435
g5
(lp5436
(dp5437
g8
VASSUMMA
p5438
sg10
(lp5439
(dp5440
g13
I9780136107064
sg14
VKerin
p5441
sg16
VRequired
p5442
sg18
VStrategic Marketing Problems
p5443
sg20
VHardback
p5444
sg22
V12
p5445
sg24
F206.25
sasg38
V367760
p5446
sg40
VE-01
p5447
sasg38
V97967
p5448
sg40
VIBM421
p5449
sa(dp5450
g5
(lp5451
(dp5452
g8
VSWARTZ,
p5453
sg10
(lp5454
(dp5455
g13
I9780324322842
sg14
VQuelch
p5456
sg16
VRequired
p5457
sg18
VGlobal Marketing Management
p5458
sg20
VPaperback
p5459
sg22
g412
sg24
F222.5
sasg38
V379918
p5460
sg40
VE-01
p5461
sasg38
V99399
p5462
sg40
VIBM480
p5463
sasg469
VIBM
p5464
sg38
V4822
p5465
sg40
VINTERNL BUS & MARKET
p5466
sa(dp5467
g2
(lp5468
(dp5469
g5
(lp5470
(dp5471
g8
VLAMPHIER
p5472
sg10
(lp5473
(dp5474
g13
I9780553212471
sg14
VShelley
p5475
sg16
VRequired
p5476
sg18
VFrankenstein
p5477
sg20
Nsg22
Nsg24
F4.95
sa(dp5478
g13
I9780449220603
sg14
VPiercy
p5479
sg16
VRequired
p5480
sg18
VHe, She & It (Rack Size)
p5481
sg20
Nsg22
Nsg24
F7.5
sasg38
V379919
p5482
sg40
VE-01
p5483
sasg38
V97968
p5484
sg40
VIGE320
p5485
sasg469
VIGE
p5486
sg38
V4712
p5487
sg40
VINTERDISPL GEN EDUC
p5488
sa(dp5489
g2
(lp5490
(dp5491
g5
(lp5492
(dp5493
g8
VCHASE
p5494
sg10
(lp5495
(dp5496
g13
I9780073407432
sg14
VBassham
p5497
sg16
VRequired
p5498
sg18
VCritical Thinking
p5499
sg20
VPaperback
p5500
sg22
g590
sg24
F127.65
sa(dp5501
g13
I9780077304478
sg14
VBassham (Db*)
p5502
sg16
VOptional
p5503
sg18
VCritical Thinking: A Student's Introduction (Coursesmart)
p5504
sg20
Nsg22
Nsg24
F62.0
sasg38
V367762
p5505
sg40
V01
p5506
sa(dp5507
g8
VCHASE
p5508
sg10
(lp5509
(dp5510
g13
I9780073407432
sg14
VBassham
p5511
sg16
VRequired
p5512
sg18
VCritical Thinking
p5513
sg20
VPaperback
p5514
sg22
g590
sg24
F127.65
sa(dp5515
g13
I9780077304478
sg14
VBassham (Db*)
p5516
sg16
VOptional
p5517
sg18
VCritical Thinking: A Student's Introduction (Coursesmart)
p5518
sg20
Nsg22
Nsg24
F62.0
sasg38
V367763
p5519
sg40
V02
p5520
sasg38
V97969
p5521
sg40
VKIN209
p5522
sa(dp5523
g5
(lp5524
(dp5525
g8
VLIANG
p5526
sg10
(lp5527
(dp5528
g13
I9780321523013
sg14
VPowers
p5529
sg16
VRequired
p5530
sg18
VTotal Fitness & Wellness
p5531
sg20
VHardback
p5532
sg22
g412
sg24
F72.8
sasg38
V367764
p5533
sg40
V01
p5534
sasg38
V97970
p5535
sg40
VKIN301
p5536
sa(dp5537
g5
(lp5538
(dp5539
g8
VMOUSTAFA
p5540
sg10
(lp5541
(dp5542
g13
I9780736055833
sg14
VWilmore
p5543
sg16
VRequired
p5544
sg18
VPhysiology Of Sport & Exercise
p5545
sg20
VHardback
p5546
sg22
g590
sg24
F92.0
sasg38
V367765
p5547
sg40
V01
p5548
sasg38
V97971
p5549
sg40
VKIN303
p5550
sa(dp5551
g5
(lp5552
(dp5553
g8
VKANG
p5554
sg10
(lp5555
(dp5556
g13
I9780073376431
sg14
VFloyd
p5557
sg16
VRequired
p5558
sg18
VManual Of Structural Kinesiology
p5559
sg20
VPaperback
p5560
sg22
V17
p5561
sg24
F82.0
sa(dp5562
g13
I9780736051019
sg14
VMcginnis
p5563
sg16
VRequired
p5564
sg18
VBiomechanics Of Sport & Exercise
p5565
sg20
VHardback
p5566
sg22
g515
sg24
F83.0
sa(dp5567
g13
I9780077283506
sg14
VFloyd (Db*)
p5568
sg16
VOptional
p5569
sg18
VManual Of Structural Kinesiology I (Coursesmart Digital)
p5570
sg20
VEbook
p5571
sg22
g75
sg24
F50.25
sasg38
V367768
p5572
sg40
V01
p5573
sasg38
V97973
p5574
sg40
VKIN304
p5575
sa(dp5576
g5
(lp5577
(dp5578
g8
VMETZKER
p5579
sg10
(lp5580
(dp5581
g13
I9780073376509
sg14
VGallahue
p5582
sg16
VRequired
p5583
sg18
VUnderstanding Motor Development
p5584
sg20
VHardback
p5585
sg22
g75
sg24
F141.9
sa(dp5586
g13
I9780077378769
sg14
VGallahue (Db*)
p5587
sg16
VOptional
p5588
sg18
VUnderstanding Motor Development (Coursesmart)
p5589
sg20
VEbook
p5590
sg22
g75
sg24
F79.5
sasg38
V367770
p5591
sg40
V01
p5592
sasg38
V97975
p5593
sg40
VKIN312
p5594
sa(dp5595
g5
(lp5596
(dp5597
g8
VMETZKER
p5598
sg10
(lp5599
(dp5600
g13
I9780801116056
sg14
VCalif Dept Educ
p5601
sg16
VRequired
p5602
sg18
VPhysical Education Model Content Standards For Calif. Public Schools
p5603
sg20
Nsg22
Nsg24
F21.25
sasg38
V367772
p5604
sg40
V01
p5605
sasg38
V97977
p5606
sg40
VKIN328
p5607
sa(dp5608
g5
(lp5609
(dp5610
g8
VSPALDING
p5611
sg10
(lp5612
sg38
V367774
p5613
sg40
V01
p5614
sa(dp5615
g8
VSPALDING
p5616
sg10
(lp5617
sg38
V367775
p5618
sg40
V02
p5619
sa(dp5620
g8
VFISH
p5621
sg10
(lp5622
sg38
V367776
p5623
sg40
V03
p5624
sa(dp5625
g8
VFISH
p5626
sg10
(lp5627
sg38
V367777
p5628
sg40
V04
p5629
sa(dp5630
g8
VHANSEN
p5631
sg10
(lp5632
sg38
V367778
p5633
sg40
V05
p5634
sasg38
V97979
p5635
sg40
VKIN370
p5636
sa(dp5637
g5
(lp5638
(dp5639
g8
VMOUSTAFA
p5640
sg10
(lp5641
(dp5642
g13
I9780736055833
sg14
VWilmore
p5643
sg16
VRequired
p5644
sg18
VPhysiology Of Sport & Exercise
p5645
sg20
VHardback
p5646
sg22
g590
sg24
F92.0
sasg38
V367779
p5647
sg40
V01
p5648
sasg38
V97980
p5649
sg40
VKIN403
p5650
sa(dp5651
g5
(lp5652
(dp5653
g8
VHANSEN
p5654
sg10
(lp5655
sg38
V367782
p5656
sg40
V01
p5657
sa(dp5658
g8
VHANSEN
p5659
sg10
(lp5660
sg38
V367783
p5661
sg40
V02
p5662
sasg38
V97982
p5663
sg40
VKIN441
p5664
sa(dp5665
g5
(lp5666
(dp5667
g8
VCHASE
p5668
sg10
(lp5669
(dp5670
g13
I9781612050324
sg14
VEitzen
p5671
sg16
VRequired
p5672
sg18
VSport In Contemporary Society
p5673
sg20
VPaperback
p5674
sg22
g1109
sg24
F54.95
sasg38
V367784
p5675
sg40
V01
p5676
sasg38
V98070
p5677
sg40
VKIN449
p5678
sa(dp5679
g5
(lp5680
(dp5681
g8
VLIANG
p5682
sg10
(lp5683
(dp5684
g13
I9780781769037
sg14
VAmer Coll Sport
p5685
sg16
VRequired
p5686
sg18
VAcsm's Guidelines For Exercise Testing & Prescription
p5687
sg20
Nsg22
Nsg24
F41.0
sa(dp5688
g13
I9781609130299
sg14
VAmer College (Db*)
p5689
sg16
VOptional
p5690
sg18
VAcsm's Guidelines For Exercise Testing & Prescription (Coursesmart)
p5691
sg20
VEbook
p5692
sg22
g23
sg24
F23.0
sasg38
V367785
p5693
sg40
V01
p5694
sasg38
V97983
p5695
sg40
VKIN453
p5696
sa(dp5697
g5
(lp5698
(dp5699
g8
VLIANG
p5700
sg10
(lp5701
(dp5702
g13
I9780781768702
sg14
VAmer Coll Spor
p5703
sg16
VRequired
p5704
sg18
VAcsm's Resources For Clinical Exercise Physiology
p5705
sg20
VPaperback
p5706
sg22
g515
sg24
F58.95
sa(dp5707
g13
I9781609130329
sg14
VAcsm (Db*)
p5708
sg16
VOptional
p5709
sg18
VAcsm's Resources For Clinical Exercise Physiology (Coursesmart)
p5710
sg20
VEbook
p5711
sg22
g515
sg24
F34.0
sasg38
V367786
p5712
sg40
V01
p5713
sasg38
V98071
p5714
sg40
VKIN455
p5715
sa(dp5716
g5
(lp5717
(dp5718
g8
VMOUSTAFA
p5719
sg10
(lp5720
(dp5721
g13
I9780781797818
sg14
VMcardle
p5722
sg16
VRequired
p5723
sg18
VExercise Physiology
p5724
sg20
VHardback
p5725
sg22
g75
sg24
F113.0
sa(dp5726
g13
I9781608319367
sg14
VMcardle (Db*)
p5727
sg16
VOptional
p5728
sg18
VExercise Physiology Energy, Nutrition & Human Performance (Coursesmart)
p5729
sg20
VEbook
p5730
sg22
g75
sg24
F65.0
sasg38
V367787
p5731
sg40
V01
p5732
sasg38
V97984
p5733
sg40
VKIN456
p5734
sa(dp5735
g5
(lp5736
(dp5737
g8
VMOUSTAFA
p5738
sg10
(lp5739
(dp5740
g13
I9780073376592
sg14
VBeam
p5741
sg16
VRequired
p5742
sg18
VExercise Physiology Laboratory Manual
p5743
sg20
VSpiral
p5744
sg22
g169
sg24
F105.35
sasg38
V367766
p5745
sg40
V01
p5746
sa(dp5747
g8
VSTAFF
p5748
sg10
(lp5749
(dp5750
g13
I9780073376592
sg14
VBeam
p5751
sg16
VRequired
p5752
sg18
VExercise Physiology Laboratory Manual
p5753
sg20
VSpiral
p5754
sg22
g169
sg24
F105.35
sasg38
V367767
p5755
sg40
V02
p5756
sasg38
V97972
p5757
sg40
VKIN303L
p5758
sa(dp5759
g5
(lp5760
(dp5761
g8
VKANG
p5762
sg10
(lp5763
sg38
V367769
p5764
sg40
V01
p5765
sasg38
V97974
p5766
sg40
VKIN304L
p5767
sa(dp5768
g5
(lp5769
(dp5770
g8
VMETZKER
p5771
sg10
(lp5772
sg38
V367771
p5773
sg40
V01
p5774
sasg38
V97976
p5775
sg40
VKIN312A
p5776
sa(dp5777
g5
(lp5778
(dp5779
g8
VMETZKER
p5780
sg10
(lp5781
sg38
V367773
p5782
sg40
V01
p5783
sasg38
V97978
p5784
sg40
VKIN328A
p5785
sa(dp5786
g5
(lp5787
(dp5788
g8
VMOUSTAFA
p5789
sg10
(lp5790
sg38
V367780
p5791
sg40
V01
p5792
sa(dp5793
g8
VMOUSTAFA
p5794
sg10
(lp5795
sg38
V367781
p5796
sg40
V02
p5797
sasg38
V97981
p5798
sg40
VKIN403L
p5799
sasg469
VKIN
p5800
sg38
V4806
p5801
sg40
VKINESIOLOGY
p5802
sa(dp5803
g2
(lp5804
(dp5805
g5
(lp5806
(dp5807
g8
VSTAFF
p5808
sg10
(lp5809
(dp5810
g13
I9780077594497
sg14
VMessersmith*
p5811
sg16
VRequired
p5812
sg18
VBeginning & Intermediate Algebra W/Connect
p5813
sg20
VKit/Set/Package
p5814
sg22
g115
sg24
F114.65
sa(dp5815
g13
I9780077594473
sg14
VMessersmith
p5816
sg16
VPart of Set
p5817
sg18
VBeginning & Intermediate Algebra
p5818
sg20
VPaperback
p5819
sg22
g115
sg24
F114.65
sa(dp5820
g13
I9780077594480
sg14
VMcgraw
p5821
sg16
VPart of Set
p5822
sg18
VConnect Access Card T/A Beginning & Intermediate Algebra
p5823
sg20
Nsg22
Nsg24
F66.65
sasg38
V367788
p5824
sg40
VE-01
p5825
sa(dp5826
g8
VSTAFF
p5827
sg10
(lp5828
(dp5829
g13
I9780077594497
sg14
VMessersmith*
p5830
sg16
VRequired
p5831
sg18
VBeginning & Intermediate Algebra W/Connect
p5832
sg20
VKit/Set/Package
p5833
sg22
g115
sg24
F114.65
sa(dp5834
g13
I9780077594473
sg14
VMessersmith
p5835
sg16
VPart of Set
p5836
sg18
VBeginning & Intermediate Algebra
p5837
sg20
VPaperback
p5838
sg22
g115
sg24
F114.65
sa(dp5839
g13
I9780077594480
sg14
VMcgraw
p5840
sg16
VPart of Set
p5841
sg18
VConnect Access Card T/A Beginning & Intermediate Algebra
p5842
sg20
Nsg22
Nsg24
F66.65
sasg38
V367789
p5843
sg40
VE-02
p5844
sasg38
V97985
p5845
sg40
VMAT010
p5846
sa(dp5847
g5
(lp5848
(dp5849
g8
VSHIRLEY
p5850
sg10
(lp5851
(dp5852
g13
I9780077594497
sg14
VMessersmith*
p5853
sg16
VRequired
p5854
sg18
VBeginning & Intermediate Algebra W/Connect
p5855
sg20
VKit/Set/Package
p5856
sg22
g115
sg24
F114.65
sa(dp5857
g13
I9780077594473
sg14
VMessersmith
p5858
sg16
VPart of Set
p5859
sg18
VBeginning & Intermediate Algebra
p5860
sg20
VPaperback
p5861
sg22
g115
sg24
F114.65
sa(dp5862
g13
I9780077594480
sg14
VMcgraw
p5863
sg16
VPart of Set
p5864
sg18
VConnect Access Card T/A Beginning & Intermediate Algebra
p5865
sg20
Nsg22
Nsg24
F66.65
sasg38
V367790
p5866
sg40
VE-01
p5867
sa(dp5868
g8
VSHIRLEY
p5869
sg10
(lp5870
(dp5871
g13
I9780077594497
sg14
VMessersmith*
p5872
sg16
VRequired
p5873
sg18
VBeginning & Intermediate Algebra W/Connect
p5874
sg20
VKit/Set/Package
p5875
sg22
g115
sg24
F114.65
sa(dp5876
g13
I9780077594473
sg14
VMessersmith
p5877
sg16
VPart of Set
p5878
sg18
VBeginning & Intermediate Algebra
p5879
sg20
VPaperback
p5880
sg22
g115
sg24
F114.65
sa(dp5881
g13
I9780077594480
sg14
VMcgraw
p5882
sg16
VPart of Set
p5883
sg18
VConnect Access Card T/A Beginning & Intermediate Algebra
p5884
sg20
Nsg22
Nsg24
F66.65
sasg38
V367791
p5885
sg40
VE-02
p5886
sa(dp5887
g8
VSHIRLEY,
p5888
sg10
(lp5889
(dp5890
g13
I9780077594497
sg14
VMessersmith*
p5891
sg16
VRequired
p5892
sg18
VBeginning & Intermediate Algebra W/Connect
p5893
sg20
VKit/Set/Package
p5894
sg22
g115
sg24
F114.65
sa(dp5895
g13
I9780077594473
sg14
VMessersmith
p5896
sg16
VPart of Set
p5897
sg18
VBeginning & Intermediate Algebra
p5898
sg20
VPaperback
p5899
sg22
g115
sg24
F114.65
sa(dp5900
g13
I9780077594480
sg14
VMcgraw
p5901
sg16
VPart of Set
p5902
sg18
VConnect Access Card T/A Beginning & Intermediate Algebra
p5903
sg20
Nsg22
Nsg24
F66.65
sasg38
V367792
p5904
sg40
VE-03
p5905
sa(dp5906
g8
VSTAFF
p5907
sg10
(lp5908
(dp5909
g13
I9780077594497
sg14
VMessersmith*
p5910
sg16
VRequired
p5911
sg18
VBeginning & Intermediate Algebra W/Connect
p5912
sg20
VKit/Set/Package
p5913
sg22
g115
sg24
F114.65
sa(dp5914
g13
I9780077594473
sg14
VMessersmith
p5915
sg16
VPart of Set
p5916
sg18
VBeginning & Intermediate Algebra
p5917
sg20
VPaperback
p5918
sg22
g115
sg24
F114.65
sa(dp5919
g13
I9780077594480
sg14
VMcgraw
p5920
sg16
VPart of Set
p5921
sg18
VConnect Access Card T/A Beginning & Intermediate Algebra
p5922
sg20
Nsg22
Nsg24
F66.65
sasg38
V367793
p5923
sg40
VE-11
p5924
sa(dp5925
g8
VSTAFF
p5926
sg10
(lp5927
(dp5928
g13
I9780077594497
sg14
VMessersmith*
p5929
sg16
VRequired
p5930
sg18
VBeginning & Intermediate Algebra W/Connect
p5931
sg20
VKit/Set/Package
p5932
sg22
g115
sg24
F114.65
sa(dp5933
g13
I9780077594473
sg14
VMessersmith
p5934
sg16
VPart of Set
p5935
sg18
VBeginning & Intermediate Algebra
p5936
sg20
VPaperback
p5937
sg22
g115
sg24
F114.65
sa(dp5938
g13
I9780077594480
sg14
VMcgraw
p5939
sg16
VPart of Set
p5940
sg18
VConnect Access Card T/A Beginning & Intermediate Algebra
p5941
sg20
Nsg22
Nsg24
F66.65
sasg38
V379920
p5942
sg40
VE-21
p5943
sasg38
V97986
p5944
sg40
VMAT011
p5945
sa(dp5946
g5
(lp5947
(dp5948
g8
VSTAFF
p5949
sg10
(lp5950
(dp5951
g13
I9780077594534
sg14
VMessersmith*
p5952
sg16
VRequired
p5953
sg18
VBeginning & Intermediate Algebra (Customized Ch. 9-13) W/Connect
p5954
sg20
VKit/Set/Package
p5955
sg22
g115
sg24
F100.0
sa(dp5956
g13
I9780077594497
sg14
VMessersmith*
p5957
sg16
VOptional
p5958
sg18
VBeginning & Intermediate Algebra W/Connect
p5959
sg20
VKit/Set/Package
p5960
sg22
g115
sg24
F114.65
sa(dp5961
g13
I9780077594510
sg14
VMessersmith
p5962
sg16
VPart of Set
p5963
sg18
VBeginning & Intermediate Algebra (Customized - Ch. 9-13)
p5964
sg20
VPaperback
p5965
sg22
g115
sg24
F100.0
sa(dp5966
g13
I9780077594527
sg14
VMcgraw
p5967
sg16
VPart of Set
p5968
sg18
VConnect Access Card T/A Beginning & Intermediate Algebra (Customized - Ch. 9-13)
p5969
sg20
Nsg22
Nsg24
F58.8
sasg38
V367794
p5970
sg40
VE-01
p5971
sa(dp5972
g8
VGRIFFITH
p5973
sg10
(lp5974
(dp5975
g13
I9780077594534
sg14
VMessersmith*
p5976
sg16
VRequired
p5977
sg18
VBeginning & Intermediate Algebra (Customized Ch. 9-13) W/Connect
p5978
sg20
VKit/Set/Package
p5979
sg22
g115
sg24
F100.0
sa(dp5980
g13
I9780077594497
sg14
VMessersmith*
p5981
sg16
VOptional
p5982
sg18
VBeginning & Intermediate Algebra W/Connect
p5983
sg20
VKit/Set/Package
p5984
sg22
g115
sg24
F114.65
sa(dp5985
g13
I9780077594510
sg14
VMessersmith
p5986
sg16
VPart of Set
p5987
sg18
VBeginning & Intermediate Algebra (Customized - Ch. 9-13)
p5988
sg20
VPaperback
p5989
sg22
g115
sg24
F100.0
sa(dp5990
g13
I9780077594527
sg14
VMcgraw
p5991
sg16
VPart of Set
p5992
sg18
VConnect Access Card T/A Beginning & Intermediate Algebra (Customized - Ch. 9-13)
p5993
sg20
Nsg22
Nsg24
F58.8
sasg38
V367795
p5994
sg40
VE-02
p5995
sa(dp5996
g8
VSTAFF
p5997
sg10
(lp5998
(dp5999
g13
I9780077594534
sg14
VMessersmith*
p6000
sg16
VRequired
p6001
sg18
VBeginning & Intermediate Algebra (Customized Ch. 9-13) W/Connect
p6002
sg20
VKit/Set/Package
p6003
sg22
g115
sg24
F100.0
sa(dp6004
g13
I9780077594497
sg14
VMessersmith*
p6005
sg16
VOptional
p6006
sg18
VBeginning & Intermediate Algebra W/Connect
p6007
sg20
VKit/Set/Package
p6008
sg22
g115
sg24
F114.65
sa(dp6009
g13
I9780077594510
sg14
VMessersmith
p6010
sg16
VPart of Set
p6011
sg18
VBeginning & Intermediate Algebra (Customized - Ch. 9-13)
p6012
sg20
VPaperback
p6013
sg22
g115
sg24
F100.0
sa(dp6014
g13
I9780077594527
sg14
VMcgraw
p6015
sg16
VPart of Set
p6016
sg18
VConnect Access Card T/A Beginning & Intermediate Algebra (Customized - Ch. 9-13)
p6017
sg20
Nsg22
Nsg24
F58.8
sasg38
V367796
p6018
sg40
VE-11
p6019
sa(dp6020
g8
VSTAFF
p6021
sg10
(lp6022
(dp6023
g13
I9780077594534
sg14
VMessersmith*
p6024
sg16
VRequired
p6025
sg18
VBeginning & Intermediate Algebra (Customized Ch. 9-13) W/Connect
p6026
sg20
VKit/Set/Package
p6027
sg22
g115
sg24
F100.0
sa(dp6028
g13
I9780077594497
sg14
VMessersmith*
p6029
sg16
VOptional
p6030
sg18
VBeginning & Intermediate Algebra W/Connect
p6031
sg20
VKit/Set/Package
p6032
sg22
g115
sg24
F114.65
sa(dp6033
g13
I9780077594510
sg14
VMessersmith
p6034
sg16
VPart of Set
p6035
sg18
VBeginning & Intermediate Algebra (Customized - Ch. 9-13)
p6036
sg20
VPaperback
p6037
sg22
g115
sg24
F100.0
sa(dp6038
g13
I9780077594527
sg14
VMcgraw
p6039
sg16
VPart of Set
p6040
sg18
VConnect Access Card T/A Beginning & Intermediate Algebra (Customized - Ch. 9-13)
p6041
sg20
Nsg22
Nsg24
F58.8
sasg38
V367797
p6042
sg40
VE-21
p6043
sa(dp6044
g8
VSTAFF
p6045
sg10
(lp6046
(dp6047
g13
I9780077594534
sg14
VMessersmith*
p6048
sg16
VRequired
p6049
sg18
VBeginning & Intermediate Algebra (Customized Ch. 9-13) W/Connect
p6050
sg20
VKit/Set/Package
p6051
sg22
g115
sg24
F100.0
sa(dp6052
g13
I9780077594497
sg14
VMessersmith*
p6053
sg16
VOptional
p6054
sg18
VBeginning & Intermediate Algebra W/Connect
p6055
sg20
VKit/Set/Package
p6056
sg22
g115
sg24
F114.65
sa(dp6057
g13
I9780077594510
sg14
VMessersmith
p6058
sg16
VPart of Set
p6059
sg18
VBeginning & Intermediate Algebra (Customized - Ch. 9-13)
p6060
sg20
VPaperback
p6061
sg22
g115
sg24
F100.0
sa(dp6062
g13
I9780077594527
sg14
VMcgraw
p6063
sg16
VPart of Set
p6064
sg18
VConnect Access Card T/A Beginning & Intermediate Algebra (Customized - Ch. 9-13)
p6065
sg20
Nsg22
Nsg24
F58.8
sasg38
V379921
p6066
sg40
VE-22
p6067
sasg38
V97987
p6068
sg40
VMAT012
p6069
sa(dp6070
g5
(lp6071
(dp6072
g8
VMC DONALD
p6073
sg10
(lp6074
(dp6075
g13
I9781118177419
sg14
VYoung*
p6076
sg16
VRequired
p6077
sg18
VAlgebra & Trigonometry W/Wiley Plus (Cal Poly Custom)
p6078
sg20
VKit/Set/Package
p6079
sg22
g515
sg24
F105.35
sa(dp6080
g13
I9780470247471
sg14
VWiley
p6081
sg16
VPart of Set
p6082
sg18
VWiley Plus Stand-Alone Access T/A Alg & Trig 2E
p6083
sg20
VAccess Code
p6084
sg22
g515
sg24
F100.6
sa(dp6085
g13
I9781118177402
sg14
VYoung
p6086
sg16
VPart of Set
p6087
sg18
VCollege Algebra & Trigonometry For Cal Poly Pomona (Custom)
p6088
sg20
Nsg22
Nsg24
F100.0
sasg38
V367798
p6089
sg40
VE-01
p6090
sa(dp6091
g8
VGRIFFITH
p6092
sg10
(lp6093
(dp6094
g13
I9781118177419
sg14
VYoung*
p6095
sg16
VRequired
p6096
sg18
VAlgebra & Trigonometry W/Wiley Plus (Cal Poly Custom)
p6097
sg20
VKit/Set/Package
p6098
sg22
g515
sg24
F105.35
sa(dp6099
g13
I9780470247471
sg14
VWiley
p6100
sg16
VPart of Set
p6101
sg18
VWiley Plus Stand-Alone Access T/A Alg & Trig 2E
p6102
sg20
VAccess Code
p6103
sg22
g515
sg24
F100.6
sa(dp6104
g13
I9781118177402
sg14
VYoung
p6105
sg16
VPart of Set
p6106
sg18
VCollege Algebra & Trigonometry For Cal Poly Pomona (Custom)
p6107
sg20
Nsg22
Nsg24
F100.0
sasg38
V367799
p6108
sg40
VE-02
p6109
sasg38
V97988
p6110
sg40
VMAT105
p6111
sa(dp6112
g5
(lp6113
(dp6114
g8
VGREEN
p6115
sg10
(lp6116
(dp6117
g13
I9781118177419
sg14
VYoung*
p6118
sg16
VRequired
p6119
sg18
VAlgebra & Trigonometry W/Wiley Plus (Cal Poly Custom)
p6120
sg20
VKit/Set/Package
p6121
sg22
g515
sg24
F105.35
sa(dp6122
g13
I9780470247471
sg14
VWiley
p6123
sg16
VPart of Set
p6124
sg18
VWiley Plus Stand-Alone Access T/A Alg & Trig 2E
p6125
sg20
VAccess Code
p6126
sg22
g515
sg24
F100.6
sa(dp6127
g13
I9781118177402
sg14
VYoung
p6128
sg16
VPart of Set
p6129
sg18
VCollege Algebra & Trigonometry For Cal Poly Pomona (Custom)
p6130
sg20
Nsg22
Nsg24
F100.0
sasg38
V367800
p6131
sg40
VE-01
p6132
sa(dp6133
g8
VGREEN
p6134
sg10
(lp6135
(dp6136
g13
I9781118177419
sg14
VYoung*
p6137
sg16
VRequired
p6138
sg18
VAlgebra & Trigonometry W/Wiley Plus (Cal Poly Custom)
p6139
sg20
VKit/Set/Package
p6140
sg22
g515
sg24
F105.35
sa(dp6141
g13
I9780470247471
sg14
VWiley
p6142
sg16
VPart of Set
p6143
sg18
VWiley Plus Stand-Alone Access T/A Alg & Trig 2E
p6144
sg20
VAccess Code
p6145
sg22
g515
sg24
F100.6
sa(dp6146
g13
I9781118177402
sg14
VYoung
p6147
sg16
VPart of Set
p6148
sg18
VCollege Algebra & Trigonometry For Cal Poly Pomona (Custom)
p6149
sg20
Nsg22
Nsg24
F100.0
sasg38
V367801
p6150
sg40
VE-02
p6151
sasg38
V97989
p6152
sg40
VMAT106
p6153
sa(dp6154
g5
(lp6155
(dp6156
g8
VSTAFF
p6157
sg10
(lp6158
(dp6159
g13
I9781133295327
sg14
VStewart* (Sw2)
p6160
sg16
VRequired
p6161
sg18
VCalculus Early Transcendentals (California Edition) W/Ewa Code
p6162
sg20
VHardback
p6163
sg22
g75
sg24
F171.25
sa(dp6164
g13
I9781133295334
sg14
VStewart* (Sw2)
p6165
sg16
VRequired
p6166
sg18
VCalculus Single Variable Early Transcendentals  (Ca Ed) W/Ewa Code
p6167
sg20
VPaperback
p6168
sg22
g75
sg24
F146.25
sa(dp6169
g13
I9780840049346
sg14
VStewart
p6170
sg16
VOptional
p6171
sg18
VSingle Variable Calculus: Early Transcendentals St Sol Man
p6172
sg20
VPaperback
p6173
sg22
g75
sg24
F77.0
sasg38
V367802
p6174
sg40
VE-01
p6175
sasg38
V97990
p6176
sg40
VMAT112
p6177
sa(dp6178
g5
(lp6179
(dp6180
g8
VKRINIK
p6181
sg10
(lp6182
(dp6183
g13
I9781133295327
sg14
VStewart* (Sw2)
p6184
sg16
VRequired
p6185
sg18
VCalculus Early Transcendentals (California Edition) W/Ewa Code
p6186
sg20
VHardback
p6187
sg22
g75
sg24
F171.25
sa(dp6188
g13
I9781133295334
sg14
VStewart* (Sw2)
p6189
sg16
VRequired
p6190
sg18
VCalculus Single Variable Early Transcendentals  (Ca Ed) W/Ewa Code
p6191
sg20
VPaperback
p6192
sg22
g75
sg24
F146.25
sa(dp6193
g13
I9780840049346
sg14
VStewart
p6194
sg16
VOptional
p6195
sg18
VSingle Variable Calculus: Early Transcendentals St Sol Man
p6196
sg20
VPaperback
p6197
sg22
g75
sg24
F77.0
sa(dp6198
g13
I9780495988281
sg14
VStewart
p6199
sg16
VPart of Set
p6200
sg18
VCalculus Early Transcendentals (Custom California Ed)
p6201
sg20
VHardback
p6202
sg22
g75
sg24
F179.85
sa(dp6203
g13
I9780495978480
sg14
VStewart
p6204
sg16
VPart of Set
p6205
sg18
VCalculus Early Transcendntals Single Variable (Ca Custom Ed)
p6206
sg20
VPaperback
p6207
sg22
g75
sg24
F152.55
sa(dp6208
g13
I9780538738071
sg14
VCengage
p6209
sg16
VPart of Set
p6210
sg18
VEnhanced Web Assign Access W/Loe Ebook
p6211
sg20
Nsg22
Nsg24
F95.0
sasg38
V367803
p6212
sg40
VE-01
p6213
sa(dp6214
g8
VKRINIK
p6215
sg10
(lp6216
(dp6217
g13
I9781133295327
sg14
VStewart* (Sw2)
p6218
sg16
VRequired
p6219
sg18
VCalculus Early Transcendentals (California Edition) W/Ewa Code
p6220
sg20
VHardback
p6221
sg22
g75
sg24
F171.25
sa(dp6222
g13
I9781133295334
sg14
VStewart* (Sw2)
p6223
sg16
VRequired
p6224
sg18
VCalculus Single Variable Early Transcendentals  (Ca Ed) W/Ewa Code
p6225
sg20
VPaperback
p6226
sg22
g75
sg24
F146.25
sa(dp6227
g13
I9780840049346
sg14
VStewart
p6228
sg16
VOptional
p6229
sg18
VSingle Variable Calculus: Early Transcendentals St Sol Man
p6230
sg20
VPaperback
p6231
sg22
g75
sg24
F77.0
sa(dp6232
g13
I9780495988281
sg14
VStewart
p6233
sg16
VPart of Set
p6234
sg18
VCalculus Early Transcendentals (Custom California Ed)
p6235
sg20
VHardback
p6236
sg22
g75
sg24
F179.85
sa(dp6237
g13
I9780495978480
sg14
VStewart
p6238
sg16
VPart of Set
p6239
sg18
VCalculus Early Transcendntals Single Variable (Ca Custom Ed)
p6240
sg20
VPaperback
p6241
sg22
g75
sg24
F152.55
sa(dp6242
g13
I9780538738071
sg14
VCengage
p6243
sg16
VPart of Set
p6244
sg18
VEnhanced Web Assign Access W/Loe Ebook
p6245
sg20
Nsg22
Nsg24
F95.0
sasg38
V367804
p6246
sg40
VE-02
p6247
sasg38
V97991
p6248
sg40
VMAT114
p6249
sa(dp6250
g5
(lp6251
(dp6252
g8
VSWIFT  JR
p6253
sg10
(lp6254
(dp6255
g13
I9781133295327
sg14
VStewart* (Sw2)
p6256
sg16
VRequired
p6257
sg18
VCalculus Early Transcendentals (California Edition) W/Ewa Code
p6258
sg20
VHardback
p6259
sg22
g75
sg24
F171.25
sa(dp6260
g13
I9781133295334
sg14
VStewart* (Sw2)
p6261
sg16
VRequired
p6262
sg18
VCalculus Single Variable Early Transcendentals  (Ca Ed) W/Ewa Code
p6263
sg20
VPaperback
p6264
sg22
g75
sg24
F146.25
sa(dp6265
g13
I9780840049346
sg14
VStewart
p6266
sg16
VOptional
p6267
sg18
VSingle Variable Calculus: Early Transcendentals St Sol Man
p6268
sg20
VPaperback
p6269
sg22
g75
sg24
F77.0
sa(dp6270
g13
I9780495988281
sg14
VStewart
p6271
sg16
VPart of Set
p6272
sg18
VCalculus Early Transcendentals (Custom California Ed)
p6273
sg20
VHardback
p6274
sg22
g75
sg24
F179.85
sa(dp6275
g13
I9780495978480
sg14
VStewart
p6276
sg16
VPart of Set
p6277
sg18
VCalculus Early Transcendntals Single Variable (Ca Custom Ed)
p6278
sg20
VPaperback
p6279
sg22
g75
sg24
F152.55
sa(dp6280
g13
I9780538738071
sg14
VCengage
p6281
sg16
VPart of Set
p6282
sg18
VEnhanced Web Assign Access W/Loe Ebook
p6283
sg20
Nsg22
Nsg24
F95.0
sasg38
V367805
p6284
sg40
VE-01
p6285
sa(dp6286
g8
VSWIFT  JR
p6287
sg10
(lp6288
(dp6289
g13
I9781133295327
sg14
VStewart* (Sw2)
p6290
sg16
VRequired
p6291
sg18
VCalculus Early Transcendentals (California Edition) W/Ewa Code
p6292
sg20
VHardback
p6293
sg22
g75
sg24
F171.25
sa(dp6294
g13
I9781133295334
sg14
VStewart* (Sw2)
p6295
sg16
VRequired
p6296
sg18
VCalculus Single Variable Early Transcendentals  (Ca Ed) W/Ewa Code
p6297
sg20
VPaperback
p6298
sg22
g75
sg24
F146.25
sa(dp6299
g13
I9780840049346
sg14
VStewart
p6300
sg16
VOptional
p6301
sg18
VSingle Variable Calculus: Early Transcendentals St Sol Man
p6302
sg20
VPaperback
p6303
sg22
g75
sg24
F77.0
sa(dp6304
g13
I9780495988281
sg14
VStewart
p6305
sg16
VPart of Set
p6306
sg18
VCalculus Early Transcendentals (Custom California Ed)
p6307
sg20
VHardback
p6308
sg22
g75
sg24
F179.85
sa(dp6309
g13
I9780495978480
sg14
VStewart
p6310
sg16
VPart of Set
p6311
sg18
VCalculus Early Transcendntals Single Variable (Ca Custom Ed)
p6312
sg20
VPaperback
p6313
sg22
g75
sg24
F152.55
sa(dp6314
g13
I9780538738071
sg14
VCengage
p6315
sg16
VPart of Set
p6316
sg18
VEnhanced Web Assign Access W/Loe Ebook
p6317
sg20
Nsg22
Nsg24
F95.0
sasg38
V367806
p6318
sg40
VE-02
p6319
sasg38
V97992
p6320
sg40
VMAT115
p6321
sa(dp6322
g5
(lp6323
(dp6324
g8
VMC DONALD
p6325
sg10
(lp6326
(dp6327
g13
I9781133295327
sg14
VStewart* (Sw2)
p6328
sg16
VRequired
p6329
sg18
VCalculus Early Transcendentals (California Edition) W/Ewa Code
p6330
sg20
VHardback
p6331
sg22
g75
sg24
F171.25
sa(dp6332
g13
I9781133295334
sg14
VStewart* (Sw2)
p6333
sg16
VRequired
p6334
sg18
VCalculus Single Variable Early Transcendentals  (Ca Ed) W/Ewa Code
p6335
sg20
VPaperback
p6336
sg22
g75
sg24
F146.25
sa(dp6337
g13
I9780840049346
sg14
VStewart
p6338
sg16
VOptional
p6339
sg18
VSingle Variable Calculus: Early Transcendentals St Sol Man
p6340
sg20
VPaperback
p6341
sg22
g75
sg24
F77.0
sa(dp6342
g13
I9780495988281
sg14
VStewart
p6343
sg16
VPart of Set
p6344
sg18
VCalculus Early Transcendentals (Custom California Ed)
p6345
sg20
VHardback
p6346
sg22
g75
sg24
F179.85
sa(dp6347
g13
I9780495978480
sg14
VStewart
p6348
sg16
VPart of Set
p6349
sg18
VCalculus Early Transcendntals Single Variable (Ca Custom Ed)
p6350
sg20
VPaperback
p6351
sg22
g75
sg24
F152.55
sa(dp6352
g13
I9780538738071
sg14
VCengage
p6353
sg16
VPart of Set
p6354
sg18
VEnhanced Web Assign Access W/Loe Ebook
p6355
sg20
Nsg22
Nsg24
F95.0
sasg38
V367807
p6356
sg40
VE-01
p6357
sa(dp6358
g8
VGILL
p6359
sg10
(lp6360
(dp6361
g13
I9781133295327
sg14
VStewart* (Sw2)
p6362
sg16
VRequired
p6363
sg18
VCalculus Early Transcendentals (California Edition) W/Ewa Code
p6364
sg20
VHardback
p6365
sg22
g75
sg24
F171.25
sa(dp6366
g13
I9781133295334
sg14
VStewart* (Sw2)
p6367
sg16
VRequired
p6368
sg18
VCalculus Single Variable Early Transcendentals  (Ca Ed) W/Ewa Code
p6369
sg20
VPaperback
p6370
sg22
g75
sg24
F146.25
sa(dp6371
g13
I9780840049346
sg14
VStewart
p6372
sg16
VOptional
p6373
sg18
VSingle Variable Calculus: Early Transcendentals St Sol Man
p6374
sg20
VPaperback
p6375
sg22
g75
sg24
F77.0
sa(dp6376
g13
I9780495988281
sg14
VStewart
p6377
sg16
VPart of Set
p6378
sg18
VCalculus Early Transcendentals (Custom California Ed)
p6379
sg20
VHardback
p6380
sg22
g75
sg24
F179.85
sa(dp6381
g13
I9780495978480
sg14
VStewart
p6382
sg16
VPart of Set
p6383
sg18
VCalculus Early Transcendntals Single Variable (Ca Custom Ed)
p6384
sg20
VPaperback
p6385
sg22
g75
sg24
F152.55
sa(dp6386
g13
I9780538738071
sg14
VCengage
p6387
sg16
VPart of Set
p6388
sg18
VEnhanced Web Assign Access W/Loe Ebook
p6389
sg20
Nsg22
Nsg24
F95.0
sasg38
V367808
p6390
sg40
VE-02
p6391
sasg38
V97993
p6392
sg40
VMAT116
p6393
sa(dp6394
g5
(lp6395
(dp6396
g8
VSHIRLEY
p6397
sg10
(lp6398
(dp6399
g13
I9780470170526
sg14
VHughes-Hallett
p6400
sg16
VRequired
p6401
sg18
VApplied Calculus
p6402
sg20
VPaperback
p6403
sg22
g590
sg24
F161.25
sa(dp6404
g13
I9780470564813
sg14
VHughes (Db*)
p6405
sg16
VOptional
p6406
sg18
VApplied Calculus (Coursesmart)
p6407
sg20
VEbook
p6408
sg22
g590
sg24
F86.5
sa(dp6409
g13
I9780470170533
sg14
VHughes-Hallett
p6410
sg16
VOptional
p6411
sg18
VApplied Calculus St Sol Man
p6412
sg20
VPaperback
p6413
sg22
g590
sg24
F61.35
sasg38
V367809
p6414
sg40
VE-01
p6415
sasg38
V97994
p6416
sg40
VMAT120
p6417
sa(dp6418
g5
(lp6419
(dp6420
g8
VBARRO
p6421
sg10
(lp6422
(dp6423
g13
I9780077292737
sg14
VHoffmann
p6424
sg16
VRequired
p6425
sg18
VCalculus For Bus, Econ & Soc & Life Sci Brief
p6426
sg20
VHardback
p6427
sg22
V10
p6428
sg24
F169.7
sa(dp6429
g13
I9780073349022
sg14
VHoffmann
p6430
sg16
VOptional
p6431
sg18
VCalculus For Bus, Econ & Soc & Life Sci St Sol Man
p6432
sg20
VPaperback
p6433
sg22
V10
p6434
sg24
F86.35
sasg38
V367810
p6435
sg40
VE-01
p6436
sa(dp6437
g8
VBARRO
p6438
sg10
(lp6439
(dp6440
g13
I9780077292737
sg14
VHoffmann
p6441
sg16
VRequired
p6442
sg18
VCalculus For Bus, Econ & Soc & Life Sci Brief
p6443
sg20
VHardback
p6444
sg22
V10
p6445
sg24
F169.7
sa(dp6446
g13
I9780073349022
sg14
VHoffmann
p6447
sg16
VOptional
p6448
sg18
VCalculus For Bus, Econ & Soc & Life Sci St Sol Man
p6449
sg20
VPaperback
p6450
sg22
V10
p6451
sg24
F86.35
sasg38
V367811
p6452
sg40
VE-02
p6453
sa(dp6454
g8
VBARRO
p6455
sg10
(lp6456
sg38
V383410
p6457
sg40
VE-03
p6458
sasg38
V97995
p6459
sg40
VMAT125
p6460
sa(dp6461
g5
(lp6462
(dp6463
g8
VGREEN
p6464
sg10
(lp6465
(dp6466
g13
I9780486639468
sg14
VEves
p6467
sg16
VRequired
p6468
sg18
VElementary Matrix Theory
p6469
sg20
Nsg22
Nsg24
F16.95
sa(dp6470
g13
I9780486660141
sg14
VSchneider
p6471
sg16
VRequired
p6472
sg18
VMatrices & Linear Algebra
p6473
sg20
Nsg22
Nsg24
F16.95
sasg38
V367812
p6474
sg40
VE-01
p6475
sasg38
V97996
p6476
sg40
VMAT208
p6477
sa(dp6478
g5
(lp6479
(dp6480
g8
VSWIFT  JR
p6481
sg10
(lp6482
(dp6483
g13
I9781424086122
sg14
VStewart
p6484
sg16
VRequired
p6485
sg18
VCalculus Early Transcendentals - California Edition
p6486
sg20
VHardback
p6487
sg22
g169
sg24
F200.3
sa(dp6488
g13
I9780495011729
sg14
VStewart
p6489
sg16
VRequired
p6490
sg18
VMultivariable Calculus Early Transcendentals
p6491
sg20
VHardback
p6492
sg22
g169
sg24
F164.1
sa(dp6493
g13
I9780495544289
sg14
VStewart (Db*)
p6494
sg16
VOptional
p6495
sg18
VMultivariable Calculus: Early Transcendentals (Coursesmart)
p6496
sg20
VEbook
p6497
sg22
g169
sg24
F88.0
sa(dp6498
g13
I9780495012283
sg14
VStewart
p6499
sg16
VOptional
p6500
sg18
VMultivariable Calculus St Sol Man
p6501
sg20
VPaperback
p6502
sg22
g169
sg24
F59.25
sasg38
V367813
p6503
sg40
VE-01
p6504
sasg38
V97997
p6505
sg40
VMAT214
p6506
sa(dp6507
g5
(lp6508
(dp6509
g8
VGREEN
p6510
sg10
(lp6511
(dp6512
g13
I9781424086122
sg14
VStewart
p6513
sg16
VRequired
p6514
sg18
VCalculus Early Transcendentals - California Edition
p6515
sg20
VHardback
p6516
sg22
g169
sg24
F200.3
sa(dp6517
g13
I9780495011729
sg14
VStewart
p6518
sg16
VRequired
p6519
sg18
VMultivariable Calculus Early Transcendentals
p6520
sg20
VHardback
p6521
sg22
g169
sg24
F164.1
sa(dp6522
g13
I9780495544289
sg14
VStewart (Db*)
p6523
sg16
VOptional
p6524
sg18
VMultivariable Calculus: Early Transcendentals (Coursesmart)
p6525
sg20
VEbook
p6526
sg22
g169
sg24
F88.0
sa(dp6527
g13
I9780495012283
sg14
VStewart
p6528
sg16
VOptional
p6529
sg18
VMultivariable Calculus St Sol Man
p6530
sg20
VPaperback
p6531
sg22
g169
sg24
F59.25
sasg38
V367814
p6532
sg40
VE-01
p6533
sa(dp6534
g8
VKRINIK
p6535
sg10
(lp6536
(dp6537
g13
I9781424086122
sg14
VStewart
p6538
sg16
VRequired
p6539
sg18
VCalculus Early Transcendentals - California Edition
p6540
sg20
VHardback
p6541
sg22
g169
sg24
F200.3
sa(dp6542
g13
I9780495011729
sg14
VStewart
p6543
sg16
VRequired
p6544
sg18
VMultivariable Calculus Early Transcendentals
p6545
sg20
VHardback
p6546
sg22
g169
sg24
F164.1
sa(dp6547
g13
I9780495544289
sg14
VStewart (Db*)
p6548
sg16
VOptional
p6549
sg18
VMultivariable Calculus: Early Transcendentals (Coursesmart)
p6550
sg20
VEbook
p6551
sg22
g169
sg24
F88.0
sa(dp6552
g13
I9780495012283
sg14
VStewart
p6553
sg16
VOptional
p6554
sg18
VMultivariable Calculus St Sol Man
p6555
sg20
VPaperback
p6556
sg22
g169
sg24
F59.25
sasg38
V367815
p6557
sg40
VE-02
p6558
sasg38
V97998
p6559
sg40
VMAT215
p6560
sa(dp6561
g5
(lp6562
(dp6563
g8
VSWIFT  JR
p6564
sg10
(lp6565
(dp6566
g13
I9781584884767
sg14
VSwift
p6567
sg16
VRequired
p6568
sg18
VCourse In Ordinary Differential Equations
p6569
sg20
Nsg22
Nsg24
F99.95
sasg38
V367816
p6570
sg40
VE-01
p6571
sasg38
V97999
p6572
sg40
VMAT216
p6573
sa(dp6574
g5
(lp6575
(dp6576
g8
VXIE
p6577
sg10
(lp6578
(dp6579
g13
I9780201662122
sg14
VPeterson
p6580
sg16
VRequired
p6581
sg18
VLinear Algebra & Differential Equations
p6582
sg20
Nsg22
Nsg24
F90.65
sa(dp6583
g13
I9780321725066
sg14
VPeterson (Db*)
p6584
sg16
VOptional
p6585
sg18
VLinear Algebra & Differential Equations (Coursesmart)
p6586
sg20
Nsg22
Nsg24
F42.0
sa(dp6587
g13
I9780201662139
sg14
VPeterson
p6588
sg16
VOptional
p6589
sg18
VLinear Algebra & Differential Equations St Sol Man
p6590
sg20
VPaperback
p6591
sg22
V1
p6592
sg24
F36.7
sasg38
V367817
p6593
sg40
VE-01
p6594
sasg38
V98000
p6595
sg40
VMAT224
p6596
sa(dp6597
g5
(lp6598
(dp6599
g8
VKRINIK
p6600
sg10
(lp6601
(dp6602
g13
I9780321390530
sg14
VChartrand
p6603
sg16
VRequired
p6604
sg18
VMathematical Proofs
p6605
sg20
VHardback
p6606
sg22
g515
sg24
F124.0
sa(dp6607
g13
I9780321549631
sg14
VChartrand (Db*)
p6608
sg16
VOptional
p6609
sg18
VMathematical Proofs (Coursesmart Digital)
p6610
sg20
VEbook
p6611
sg22
g515
sg24
F51.0
sasg38
V367818
p6612
sg40
VE-01
p6613
sasg38
V98001
p6614
sg40
VMAT310
p6615
sasg469
VMAT
p6616
sg38
V4719
p6617
sg40
VMATHEMATICS
p6618
sa(dp6619
g2
(lp6620
(dp6621
g5
(lp6622
(dp6623
g8
VKIM
p6624
sg10
(lp6625
(dp6626
g13
I9780077381134
sg14
VBeer
p6627
sg16
VRequired
p6628
sg18
VVector Mechanics For Engineers: Statics (Custom)
p6629
sg20
VPaperback
p6630
sg22
g1109
sg24
F119.65
sasg38
V379922
p6631
sg40
VE-01
p6632
sa(dp6633
g8
VSTAFF
p6634
sg10
(lp6635
(dp6636
g13
I9780077381134
sg14
VBeer
p6637
sg16
VRequired
p6638
sg18
VVector Mechanics For Engineers: Statics (Custom)
p6639
sg20
VPaperback
p6640
sg22
g1109
sg24
F119.65
sasg38
V379923
p6641
sg40
VE-02
p6642
sasg38
V98002
p6643
sg40
VME214
p6644
sa(dp6645
g5
(lp6646
(dp6647
g8
VPIROOZAN
p6648
sg10
(lp6649
(dp6650
g13
I9780470499788
sg14
VMeriam
p6651
sg16
VRequired
p6652
sg18
VEngineering Mechanics: Dynamics Sixth Ed. Update (Student Value)
p6653
sg20
VPaperback
p6654
sg22
g169
sg24
F117.5
sasg38
V379924
p6655
sg40
VE-01
p6656
sa(dp6657
g8
VLIPOVETSKY
p6658
sg10
(lp6659
(dp6660
g13
I9780470499788
sg14
VMeriam
p6661
sg16
VRequired
p6662
sg18
VEngineering Mechanics: Dynamics Sixth Ed. Update (Student Value)
p6663
sg20
VPaperback
p6664
sg22
g169
sg24
F117.5
sasg38
V379925
p6665
sg40
VE-02
p6666
sasg38
V98003
p6667
sg40
VME215
p6668
sa(dp6669
g5
(lp6670
(dp6671
g8
VLIPOVETSKY
p6672
sg10
(lp6673
(dp6674
g13
I9780136022305
sg14
VHibbeler
p6675
sg16
VRequired
p6676
sg18
VMechanics Of Materials
p6677
sg20
VHardback
p6678
sg22
g23
sg24
F184.7
sa(dp6679
g13
I9780136023159
sg14
VHibbeler (Db*)
p6680
sg16
VOptional
p6681
sg18
VMechanics Of Materials (Coursesmart)
p6682
sg20
VEbook
p6683
sg22
g23
sg24
F79.0
sasg38
V379926
p6684
sg40
VE-01
p6685
sa(dp6686
g8
VGhazinejad,
p6687
sg10
(lp6688
(dp6689
g13
I9780136022305
sg14
VHibbeler
p6690
sg16
VRequired
p6691
sg18
VMechanics Of Materials
p6692
sg20
VHardback
p6693
sg22
g23
sg24
F184.7
sa(dp6694
g13
I9780136023159
sg14
VHibbeler (Db*)
p6695
sg16
VOptional
p6696
sg18
VMechanics Of Materials (Coursesmart)
p6697
sg20
VEbook
p6698
sg22
g23
sg24
F79.0
sasg38
V379927
p6699
sg40
VE-02
p6700
sasg38
V98004
p6701
sg40
VME218
p6702
sa(dp6703
g5
(lp6704
(dp6705
g8
VPIROOZAN
p6706
sg10
(lp6707
(dp6708
g13
I9780136022305
sg14
VHibbeler
p6709
sg16
VRequired
p6710
sg18
VMechanics Of Materials
p6711
sg20
VHardback
p6712
sg22
g23
sg24
F184.7
sa(dp6713
g13
I9780136023159
sg14
VHibbeler (Db*)
p6714
sg16
VOptional
p6715
sg18
VMechanics Of Materials (Coursesmart)
p6716
sg20
VEbook
p6717
sg22
g23
sg24
F79.0
sasg38
V379928
p6718
sg40
VE-01
p6719
sasg38
V98005
p6720
sg40
VME219
p6721
sa(dp6722
g5
(lp6723
(dp6724
g8
VSHIH
p6725
sg10
(lp6726
(dp6727
g13
I9780132396677
sg14
VChapra
p6728
sg16
VRequired
p6729
sg18
VIntro To Vba For Excel
p6730
sg20
VPaperback
p6731
sg22
g515
sg24
F47.0
sa(dp6732
g13
I9780136093114
sg14
VChapra (Db*)
p6733
sg16
VOptional
p6734
sg18
VIntro To Vba For Excel (Coursesmart)
p6735
sg20
VEbook
p6736
sg22
g515
sg24
F20.0
sasg38
V379931
p6737
sg40
VE-01
p6738
sasg38
V98007
p6739
sg40
VME232
p6740
sa(dp6741
g5
(lp6742
(dp6743
g8
VXUE
p6744
sg10
(lp6745
(dp6746
g13
I9780077986704
sg14
VCengel* (Sw2)
p6747
sg16
VRequired
p6748
sg18
VThermodynamics W/Cd Pkgd W/Property Tables Booklet
p6749
sg20
VKit/Set/Package
p6750
sg22
g75
sg24
F214.05
sa(dp6751
g13
I9780077366742
sg14
VCengel
p6752
sg16
VPart of Set
p6753
sg18
VThermodynamics (W/Cd)
p6754
sg20
VHardback
p6755
sg22
g75
sg24
F211.9
sa(dp6756
g13
I9780077359997
sg14
VCengel
p6757
sg16
VPart of Set
p6758
sg18
VThermodynamics Property Tables Booklet
p6759
sg20
VPaperback
p6760
sg22
g75
sg24
F39.0
sasg38
V379933
p6761
sg40
VE-01
p6762
sasg38
V98009
p6763
sg40
VME301
p6764
sa(dp6765
g5
(lp6766
(dp6767
g8
VXUE
p6768
sg10
(lp6769
(dp6770
g13
I9780077366742
sg14
VCengel
p6771
sg16
VPart of Set
p6772
sg18
VThermodynamics (W/Cd)
p6773
sg20
VHardback
p6774
sg22
g75
sg24
F211.9
sa(dp6775
g13
I9780077359997
sg14
VCengel
p6776
sg16
VPart of Set
p6777
sg18
VThermodynamics Property Tables Booklet
p6778
sg20
VPaperback
p6779
sg22
g75
sg24
F39.0
sasg38
V379934
p6780
sg40
VE-01
p6781
sasg38
V98010
p6782
sg40
VME302
p6783
sa(dp6784
g5
(lp6785
(dp6786
g8
VANDERSON
p6787
sg10
(lp6788
(dp6789
g13
I9781118116135
sg14
VMunson
p6790
sg16
VRequired
p6791
sg18
VFundamentals Of Fluid Mechanics
p6792
sg20
VHardback
p6793
sg22
g75
sg24
F210.0
sasg38
V379935
p6794
sg40
VE-01
p6795
sa(dp6796
g8
VANDERSON
p6797
sg10
(lp6798
(dp6799
g13
I9781118116135
sg14
VMunson
p6800
sg16
VRequired
p6801
sg18
VFundamentals Of Fluid Mechanics
p6802
sg20
VHardback
p6803
sg22
g75
sg24
F210.0
sasg38
V379936
p6804
sg40
VE-02
p6805
sasg38
V98011
p6806
sg40
VME311
p6807
sa(dp6808
g5
(lp6809
(dp6810
g8
VXUE
p6811
sg10
(lp6812
(dp6813
g13
I9780470262849
sg14
VMunson
p6814
sg16
VRequired
p6815
sg18
VFundamentals Of Fluid Mechanics
p6816
sg20
VHardback
p6817
sg22
g169
sg24
F203.75
sa(dp6818
g13
I9780470416259
sg14
VMunson (Db*)
p6819
sg16
VOptional
p6820
sg18
VFundamentals Of Fluid Mechanics (Coursesmart Digital)
p6821
sg20
VEbook
p6822
sg22
g169
sg24
F107.5
sasg38
V379937
p6823
sg40
VE-01
p6824
sasg38
V98012
p6825
sg40
VME312
p6826
sa(dp6827
g5
(lp6828
(dp6829
g8
VGhazinejad
p6830
sg10
(lp6831
(dp6832
g13
I9780495773436
sg14
VAskeland*
p6833
sg16
VRequired
p6834
sg18
VEssentials Of Materials Science & Engineering (Custom Bundle)
p6835
sg20
VNone
p6836
sg22
g515
sg24
F211.55
sasg38
V379939
p6837
sg40
VE-01
p6838
sasg38
V99400
p6839
sg40
VME315
p6840
sa(dp6841
g5
(lp6842
(dp6843
g8
VDINSMORE
p6844
sg10
(lp6845
(dp6846
g13
I9780470528006
sg14
VMeriam* (Sw2)
p6847
sg16
VRequired
p6848
sg18
VEngineering Mechanics Dynamic Sve W/Wiley Plus
p6849
sg20
VKit/Set/Package
p6850
sg22
g169
sg24
F123.75
sa(dp6851
g13
I9780470499788
sg14
VMeriam
p6852
sg16
VPart of Set
p6853
sg18
VEngineering Mechanics: Dynamics Sixth Ed. Update (Student Value)
p6854
sg20
VPaperback
p6855
sg22
g169
sg24
F117.5
sa(dp6856
g13
I9780470106365
sg14
VMeriam/Wiley
p6857
sg16
VPart of Set
p6858
sg18
VWiley Plus T/A Engineering Dynamics (Stand Alone Access Code)
p6859
sg20
Nsg22
Nsg24
F79.4
sasg38
V379940
p6860
sg40
VE-01
p6861
sa(dp6862
g8
VDINSMORE
p6863
sg10
(lp6864
(dp6865
g13
I9780470528006
sg14
VMeriam* (Sw2)
p6866
sg16
VRequired
p6867
sg18
VEngineering Mechanics Dynamic Sve W/Wiley Plus
p6868
sg20
VKit/Set/Package
p6869
sg22
g169
sg24
F123.75
sa(dp6870
g13
I9780470499788
sg14
VMeriam
p6871
sg16
VPart of Set
p6872
sg18
VEngineering Mechanics: Dynamics Sixth Ed. Update (Student Value)
p6873
sg20
VPaperback
p6874
sg22
g169
sg24
F117.5
sa(dp6875
g13
I9780470106365
sg14
VMeriam/Wiley
p6876
sg16
VPart of Set
p6877
sg18
VWiley Plus T/A Engineering Dynamics (Stand Alone Access Code)
p6878
sg20
Nsg22
Nsg24
F79.4
sasg38
V379941
p6879
sg40
VE-02
p6880
sa(dp6881
g8
VSTAFF
p6882
sg10
(lp6883
(dp6884
g13
I9780470499788
sg14
VMeriam
p6885
sg16
VRequired
p6886
sg18
VEngineering Mechanics: Dynamics Sixth Ed. Update (Student Value)
p6887
sg20
VPaperback
p6888
sg22
g169
sg24
F117.5
sasg38
V379942
p6889
sg40
VE-03
p6890
sasg38
V98014
p6891
sg40
VME316
p6892
sa(dp6893
g5
(lp6894
(dp6895
g8
VPIROOZAN
p6896
sg10
(lp6897
(dp6898
g13
I9780077300555
sg14
VBudynas (Db*)
p6899
sg16
VRequired
p6900
sg18
VShigley's Mechanical Engineering Design (Coursesmart)
p6901
sg20
Nsg22
Nsg24
F119.25
sa(dp6902
g13
I9780073529288
sg14
VBudynas
p6903
sg16
VRequired
p6904
sg18
VShigley's Mechanical Engineering Design
p6905
sg20
VHardback
p6906
sg22
g1109
sg24
F180.0
sasg38
V379943
p6907
sg40
VE-01
p6908
sasg38
V98015
p6909
sg40
VME319
p6910
sa(dp6911
g5
(lp6912
(dp6913
g8
VKIM
p6914
sg10
(lp6915
(dp6916
g13
I9780073529288
sg14
VBudynas
p6917
sg16
VRequired
p6918
sg18
VShigley's Mechanical Engineering Design
p6919
sg20
VHardback
p6920
sg22
g1109
sg24
F180.0
sa(dp6921
g13
I9780077300555
sg14
VBudynas (Db*)
p6922
sg16
VOptional
p6923
sg18
VShigley's Mechanical Engineering Design (Coursesmart)
p6924
sg20
Nsg22
Nsg24
F119.25
sasg38
V379944
p6925
sg40
VE-01
p6926
sasg38
V98016
p6927
sg40
VME325
p6928
sa(dp6929
g5
(lp6930
(dp6931
g8
VLIPOVETSKY
p6932
sg10
(lp6933
(dp6934
g13
I9780495668251
sg14
VLogan
p6935
sg16
VRequired
p6936
sg18
VFirst Course In Finite Element Method
p6937
sg20
VHardback
p6938
sg22
g412
sg24
F214.7
sa(dp6939
g13
I9781111895099
sg14
VLogan (Db*)
p6940
sg16
VOptional
p6941
sg18
VFirst Course In The Finite Element Method (Coursesmart)
p6942
sg20
VEbook
p6943
sg22
g412
sg24
F116.0
sasg38
V379948
p6944
sg40
VE-01
p6945
sasg38
V98019
p6946
sg40
VME406
p6947
sa(dp6948
g5
(lp6949
(dp6950
g8
VDINSMORE
p6951
sg10
(lp6952
(dp6953
g13
I9780470501962
sg14
VBergman
p6954
sg16
VRequired
p6955
sg18
VIntro To Heat Transfer
p6956
sg20
VHardback
p6957
sg22
g169
sg24
F227.5
sa(dp6958
g13
I9780470919620
sg14
VIncropera (Db*)
p6959
sg16
VOptional
p6960
sg18
VIntro To Heat Transfer (Coursesmart)
p6961
sg20
VEbook
p6962
sg22
g169
sg24
F116.5
sasg38
V379950
p6963
sg40
VE-01
p6964
sasg38
V98021
p6965
sg40
VME415
p6966
sa(dp6967
g5
(lp6968
(dp6969
g8
VANDERSON
p6970
sg10
(lp6971
(dp6972
g13
I9780470496626
sg14
VLee
p6973
sg16
VRequired
p6974
sg18
VThermal Design
p6975
sg20
Nsg22
Nsg24
F150.0
sa(dp6976
g13
I9780470951606
sg14
VLee (Db*)
p6977
sg16
VOptional
p6978
sg18
VThermal Design (Coursesmart)
p6979
sg20
Nsg22
Nsg24
F105.0
sasg38
V379951
p6980
sg40
VE-01
p6981
sasg38
V98022
p6982
sg40
VME427
p6983
sa(dp6984
g5
(lp6985
(dp6986
g8
VANDERSON
p6987
sg10
(lp6988
(dp6989
g13
I9780201847659
sg14
VBeckwith
p6990
sg16
VRequired
p6991
sg18
VMechanical Measurements
p6992
sg20
VHardback
p6993
sg22
g169
sg24
F183.75
sasg38
V379952
p6994
sg40
VE-01
p6995
sasg38
V98023
p6996
sg40
VME435
p6997
sa(dp6998
g5
(lp6999
(dp7000
g8
VDINSMORE
p7001
sg10
(lp7002
(dp7003
g13
I9780136024583
sg14
VDorf
p7004
sg16
VRequired
p7005
sg18
VModern Control Systems
p7006
sg20
VHardback
p7007
sg22
V12
p7008
sg24
F177.2
sa(dp7009
g13
I9780136024941
sg14
VDorf (Db*)
p7010
sg16
VOptional
p7011
sg18
VModern Control Systems (Coursesmart)
p7012
sg20
VEbook
p7013
sg22
V12
p7014
sg24
F73.0
sasg38
V379954
p7015
sg40
VE-01
p7016
sasg38
V98025
p7017
sg40
VME439
p7018
sa(dp7019
g5
(lp7020
(dp7021
g8
VSHIH
p7022
sg10
(lp7023
sg38
V379956
p7024
sg40
VE-01
p7025
sasg38
V99401
p7026
sg40
VME499
p7027
sa(dp7028
g5
(lp7029
(dp7030
g8
VREZAEI
p7031
sg10
(lp7032
sg38
V379929
p7033
sg40
VE-01
p7034
sa(dp7035
g8
VREZAEI
p7036
sg10
(lp7037
sg38
V379930
p7038
sg40
VE-02
p7039
sasg38
V98006
p7040
sg40
VME220L
p7041
sa(dp7042
g5
(lp7043
(dp7044
g8
VKIM
p7045
sg10
(lp7046
sg38
V380110
p7047
sg40
VE-01
p7048
sasg38
V99501
p7049
sg40
VME224L
p7050
sa(dp7051
g5
(lp7052
(dp7053
g8
V
p7054
sg10
(lp7055
sg38
V383514
p7056
sg40
V01
p7057
sasg38
V100844
p7058
sg40
VME224L
p7059
sa(dp7060
g5
(lp7061
(dp7062
g8
VSHIH
p7063
sg10
(lp7064
(dp7065
g13
I9780470767856
sg14
VGilat
p7066
sg16
VRequired
p7067
sg18
VMatlab
p7068
sg20
VPaperback
p7069
sg22
g590
sg24
F104.0
sa(dp7070
g13
I9780470919491
sg14
VGilat (Db*)
p7071
sg16
VOptional
p7072
sg18
VMatlab (Coursesmart)
p7073
sg20
VEbook
p7074
sg22
g590
sg24
F50.5
sasg38
V379932
p7075
sg40
VE-01
p7076
sasg38
V98008
p7077
sg40
VME232A
p7078
sa(dp7079
g5
(lp7080
(dp7081
g8
VXUE
p7082
sg10
(lp7083
sg38
V379938
p7084
sg40
VE-01
p7085
sasg38
V98013
p7086
sg40
VME313L
p7087
sa(dp7088
g5
(lp7089
(dp7090
g8
VKIM
p7091
sg10
(lp7092
sg38
V379945
p7093
sg40
VE-01
p7094
sasg38
V98017
p7095
sg40
VME325L
p7096
sa(dp7097
g5
(lp7098
(dp7099
g8
VVALDEZ
p7100
sg10
(lp7101
sg38
V379946
p7102
sg40
VE-01
p7103
sa(dp7104
g8
VVALDEZ
p7105
sg10
(lp7106
sg38
V379947
p7107
sg40
VE-02
p7108
sasg38
V98018
p7109
sg40
VME350L
p7110
sa(dp7111
g5
(lp7112
(dp7113
g8
VLIPOVETSKY
p7114
sg10
(lp7115
sg38
V379949
p7116
sg40
VE-01
p7117
sasg38
V98020
p7118
sg40
VME406A
p7119
sa(dp7120
g5
(lp7121
(dp7122
g8
VANDERSON
p7123
sg10
(lp7124
sg38
V379953
p7125
sg40
VE-01
p7126
sasg38
V98024
p7127
sg40
VME435L
p7128
sa(dp7129
g5
(lp7130
(dp7131
g8
VDINSMORE
p7132
sg10
(lp7133
sg38
V379955
p7134
sg40
VE-01
p7135
sasg38
V98026
p7136
sg40
VME439L
p7137
sasg469
VME
p7138
sg38
V4821
p7139
sg40
VMECHANICAL ENGR
p7140
sa(dp7141
g2
(lp7142
(dp7143
g5
(lp7144
(dp7145
g8
VDAVIS JR
p7146
sg10
(lp7147
(dp7148
g13
I9781118169254
sg14
VDegarmo*
p7149
sg16
VRequired
p7150
sg18
VMaterials & Processess In Manufacturing (W/Access Code)
p7151
sg20
VSpiral
p7152
sg22
V11
p7153
sg24
F124.0
sasg38
V367852
p7154
sg40
VE-01
p7155
sasg38
V98027
p7156
sg40
VMFE201
p7157
sa(dp7158
g5
(lp7159
(dp7160
g8
VDAVIS JR
p7161
sg10
(lp7162
sg38
V367853
p7163
sg40
VE-01
p7164
sa(dp7165
g8
VDAVIS JR
p7166
sg10
(lp7167
sg38
V367854
p7168
sg40
VE-02
p7169
sasg38
V98028
p7170
sg40
VMFE201L
p7171
sasg469
VMFE
p7172
sg38
V4721
p7173
sg40
VMANUFACTURING ENGR
p7174
sa(dp7175
g2
(lp7176
(dp7177
g5
(lp7178
(dp7179
g8
VALMARAZ
p7180
sg10
(lp7181
sg38
V379957
p7182
sg40
VE-01
p7183
sasg38
V99402
p7184
sg40
VMHR201
p7185
sa(dp7186
g5
(lp7187
(dp7188
g8
VSHARIFZADEH
p7189
sg10
(lp7190
sg38
V379958
p7191
sg40
VE-01
p7192
sasg38
V99403
p7193
sg40
VMHR301
p7194
sa(dp7195
g5
(lp7196
(dp7197
g8
VDELGADO
p7198
sg10
(lp7199
(dp7200
g13
I9780538453158
sg14
VMathis
p7201
sg16
VRequired
p7202
sg18
VHuman Resource Management
p7203
sg20
VHardback
p7204
sg22
V13
p7205
sg24
F213.15
sa(dp7206
g13
I9781111547226
sg14
VMathis (Db*)
p7207
sg16
VOptional
p7208
sg18
VHuman Resource Management (Coursesmart)
p7209
sg20
VEbook
p7210
sg22
V13
p7211
sg24
F92.0
sasg38
V379959
p7212
sg40
VE-01
p7213
sasg38
V99404
p7214
sg40
VMHR311
p7215
sa(dp7216
g5
(lp7217
(dp7218
g8
VGONZALEZ
p7219
sg10
(lp7220
sg38
V379960
p7221
sg40
VE-01
p7222
sa(dp7223
g8
VMax
p7224
sg10
(lp7225
(dp7226
g13
I9781118129319
sg14
VSchermerhorn
p7227
sg16
VRequired
p7228
sg18
VOrganizational Behavior (Looseleaf)
p7229
sg20
VLooseleaf
p7230
sg22
V12
p7231
sg24
F138.75
sasg38
V379961
p7232
sg40
VE-02
p7233
sasg38
V99405
p7234
sg40
VMHR318
p7235
sa(dp7236
g5
(lp7237
(dp7238
g8
VWORSHAM
p7239
sg10
(lp7240
(dp7241
g13
I9781133430339
sg14
VLongenecker*
p7242
sg16
VRequired
p7243
sg18
VSmall Business Management W/Management Coursemate & E-Book Acccess
p7244
sg20
VKit/Set/Package
p7245
sg22
V16
p7246
sg24
F155.8
sa(dp7247
g13
I9781111532871
sg14
VLongenecker
p7248
sg16
VPart of Set
p7249
sg18
VSmall Business Mgmt
p7250
sg20
VHardback
p7251
sg22
V16
p7252
sg24
F227.2
sa(dp7253
g13
I9781111578343
sg14
VLongenecker
p7254
sg16
VPart of Set
p7255
sg18
VManagement Coursemate W/E-Book (Access Card)
p7256
sg20
Nsg22
Nsg24
F112.05
sasg38
V379962
p7257
sg40
VE-01
p7258
sasg38
V99406
p7259
sg40
VMHR320
p7260
sa(dp7261
g5
(lp7262
(dp7263
g8
VWORSHAM
p7264
sg10
(lp7265
(dp7266
g13
I9781111821227
sg14
VGuffey
p7267
sg16
VRequired
p7268
sg18
VEssentials Of Business Communication
p7269
sg20
VPaperback
p7270
sg22
g1109
sg24
F162.8
sa(dp7271
g13
I9781133473459
sg14
VGuffey (Db*)
p7272
sg16
VOptional
p7273
sg18
VEssentials Of Business Communication (Coursesmart)
p7274
sg20
Nsg22
Nsg24
F80.5
sasg38
V379963
p7275
sg40
VE-01
p7276
sasg38
V99407
p7277
sg40
VMHR324
p7278
sa(dp7279
g5
(lp7280
(dp7281
g8
VMax
p7282
sg10
(lp7283
sg38
V379964
p7284
sg40
VE-01
p7285
sasg38
V99408
p7286
sg40
VMHR401
p7287
sa(dp7288
g5
(lp7289
(dp7290
g8
VDELGADO
p7291
sg10
(lp7292
(dp7293
g13
I9780136078326
sg14
VBlanchard
p7294
sg16
VRequired
p7295
sg18
VEffective Training
p7296
sg20
VPaperback
p7297
sg22
g590
sg24
F134.5
sa(dp7298
g13
I9780136078371
sg14
VBlanchard (Db*)
p7299
sg16
VOptional
p7300
sg18
VEffective Training (Coursesmart Digital)
p7301
sg20
VEbook
p7302
sg22
g590
sg24
F57.0
sasg38
V379965
p7303
sg40
VE-01
p7304
sasg38
V99409
p7305
sg40
VMHR405
p7306
sa(dp7307
g5
(lp7308
(dp7309
g8
VWATERS
p7310
sg10
(lp7311
(dp7312
g13
I9781121523715
sg14
VWaters
p7313
sg16
VRequired
p7314
sg18
VStrategic Management (Mhr 410 - Summer/Fall 2012)
p7315
sg20
Nsg22
Nsg24
F51.1
sasg38
V379966
p7316
sg40
VE-01
p7317
sasg38
V99410
p7318
sg40
VMHR410
p7319
sa(dp7320
g5
(lp7321
(dp7322
g8
VALMARAZ
p7323
sg10
(lp7324
sg38
V379967
p7325
sg40
VE-01
p7326
sasg38
V99411
p7327
sg40
VMHR441
p7328
sa(dp7329
g5
(lp7330
(dp7331
g8
VSTAFF
p7332
sg10
(lp7333
sg38
V379968
p7334
sg40
VE-01
p7335
sasg38
V99412
p7336
sg40
VMHR442
p7337
sa(dp7338
g5
(lp7339
(dp7340
g8
VEdward
p7341
sg10
(lp7342
(dp7343
g13
I9781578514861
sg14
VGoleman
p7344
sg16
VRequired
p7345
sg18
VPrimal Leadership
p7346
sg20
Nsg22
Nsg24
F26.95
sa(dp7347
g13
I9780060835910
sg14
VRock
p7348
sg16
VRequired
p7349
sg18
VQuiet Leadership
p7350
sg20
Nsg22
Nsg24
F16.0
sa(dp7351
g13
I9780787984915
sg14
VKouzes
p7352
sg16
VRequired
p7353
sg18
VLeadership Challenge
p7354
sg20
VHardback
p7355
sg22
g590
sg24
F29.95
sasg38
V379969
p7356
sg40
VE-01
p7357
sasg38
V99413
p7358
sg40
VMHR450
p7359
sasg469
VMHR
p7360
sg38
V4823
p7361
sg40
VMGMT & HUMAN RESOUR
p7362
sa(dp7363
g2
(lp7364
(dp7365
g5
(lp7366
(dp7367
g8
VSTATHOPOULOS
p7368
sg10
(lp7369
(dp7370
g13
I9780878936854
sg14
VStaley
p7371
sg16
VRequired
p7372
sg18
VMicrobial Life
p7373
sg20
VHardback
p7374
sg22
g515
sg24
F144.95
sasg38
V367855
p7375
sg40
VE-01
p7376
sasg38
V98029
p7377
sg40
VMIC201
p7378
sa(dp7379
g5
(lp7380
(dp7381
g8
VSTAFF
p7382
sg10
(lp7383
sg38
V367856
p7384
sg40
VE-01
p7385
sa(dp7386
g8
VSTAFF
p7387
sg10
(lp7388
sg38
V367857
p7389
sg40
VE-02
p7390
sa(dp7391
g8
VSTAFF
p7392
sg10
(lp7393
sg38
V367858
p7394
sg40
VE-04
p7395
sasg38
V98030
p7396
sg40
VMIC201L
p7397
sasg469
VMIC
p7398
sg38
V4814
p7399
sg40
VMICROBIOLOGY
p7400
sa(dp7401
g2
(lp7402
(dp7403
g5
(lp7404
(dp7405
g8
VEMERSON
p7406
sg10
(lp7407
sg38
V379970
p7408
sg40
VE-01
p7409
sasg38
V99425
p7410
sg40
VMPA599
p7411
sasg469
VMPA
p7412
sg38
V4824
p7413
sg40
VMASTERS OF PUBLIC AD
p7414
sa(dp7415
g2
(lp7416
(dp7417
g5
(lp7418
(dp7419
g8
VRAVI
p7420
sg10
(lp7421
sg38
V383411
p7422
sg40
V01
p7423
sasg38
V100773
p7424
sg40
VMTE207
p7425
sasg469
VMTE
p7426
sg38
V4726
p7427
sg40
VMATERIALS ENGR
p7428
sa(dp7429
g2
(lp7430
(dp7431
g5
(lp7432
(dp7433
g8
VKOPPLIN
p7434
sg10
(lp7435
(dp7436
g13
I9780977927685
sg14
VConnect Ed
p7437
sg16
VRequired
p7438
sg18
VOn Music Fundamentals Access Code Card
p7439
sg20
Nsg22
Nsg24
F106.25
sasg38
V379971
p7440
sg40
VE-01
p7441
sasg38
V99414
p7442
sg40
VMU100
p7443
sa(dp7444
g5
(lp7445
(dp7446
g8
VWINER
p7447
sg10
(lp7448
(dp7449
g13
I9780634009594
sg14
VThompson
p7450
sg16
VRequired
p7451
sg18
VUnderstanding Audio
p7452
sg20
Nsg22
Nsg24
F25.0
sa(dp7453
g13
I9780240811444
sg14
VBartlett
p7454
sg16
VRequired
p7455
sg18
VPractical Recording Techniques
p7456
sg20
VPaperback
p7457
sg22
g412
sg24
F46.95
sasg38
V379972
p7458
sg40
VE-13
p7459
sasg38
V99415
p7460
sg40
VMU228
p7461
sa(dp7462
g5
(lp7463
(dp7464
g8
VHUFF
p7465
sg10
(lp7466
sg38
V379973
p7467
sg40
VE-02
p7468
sasg38
V99346
p7469
sg40
VMU310
p7470
sa(dp7471
g5
(lp7472
(dp7473
g8
VWINER
p7474
sg10
(lp7475
sg38
V380111
p7476
sg40
VE-01
p7477
sasg38
V99416
p7478
sg40
VMU392
p7479
sasg469
VMU
p7480
sg38
V4727
p7481
sg40
VMUSIC
p7482
sa(dp7483
g2
(lp7484
(dp7485
g5
(lp7486
(dp7487
g8
VMARKLE
p7488
sg10
(lp7489
(dp7490
g13
I9780495603955
sg14
VSinnott-Armstrong
p7491
sg16
VRequired
p7492
sg18
VUnderstanding Arguments:An Introduction To Informal Log
p7493
sg20
VPaperback
p7494
sg22
g23
sg24
F70.5
sa(dp7495
g13
I9781439023846
sg14
VSinnott-Armstrong (Db*)
p7496
sg16
VOptional
p7497
sg18
VUnderstanding Arguments (Coursesmart)
p7498
sg20
VEbook
p7499
sg22
g23
sg24
F44.5
sasg38
V370486
p7500
sg40
V01
p7501
sasg38
V99349
p7502
sg40
VPHL202
p7503
sasg469
VPHL
p7504
sg38
V4728
p7505
sg40
VPHILOSOPHY
p7506
sa(dp7507
g2
(lp7508
(dp7509
g5
(lp7510
(dp7511
g8
VNawpar
p7512
sg10
(lp7513
(dp7514
g13
I9781256777465
sg14
VWalker*
p7515
sg16
VRequired
p7516
sg18
VPhysics W/Mastering Physics & Iclicker Rebate 2012-2013
p7517
sg20
VKit/Set/Package
p7518
sg22
g590
sg24
F219.4
sa(dp7519
g13
I9781256704782
sg14
VWalker*
p7520
sg16
VRequired
p7521
sg18
VPhysics Vol. 1 W/Mastering Physics & Iclicker Rebate 2012-2013
p7522
sg20
VKit/Set/Package
p7523
sg22
g590
sg24
F147.1
sa(dp7524
g13
I9780321611130
sg14
VWalker
p7525
sg16
VPart of Set
p7526
sg18
VPhysics Vol I
p7527
sg20
VPaperback
p7528
sg22
g590
sg24
F113.75
sa(dp7529
g13
I9780321611116
sg14
VWalker
p7530
sg16
VPart of Set
p7531
sg18
VPhysics
p7532
sg20
VHardback
p7533
sg22
g590
sg24
F163.0
sa(dp7534
g13
I9780558422882
sg14
VWalker
p7535
sg16
VPart of Set
p7536
sg18
VMastering Physics T/A Physics (No Ebook)
p7537
sg20
Nsg22
Nsg24
F59.5
sasg38
V367859
p7538
sg40
VE-01
p7539
sasg38
V98031
p7540
sg40
VPHY121
p7541
sa(dp7542
g5
(lp7543
(dp7544
g8
VRhee
p7545
sg10
(lp7546
(dp7547
g13
I9781256777465
sg14
VWalker*
p7548
sg16
VRequired
p7549
sg18
VPhysics W/Mastering Physics & Iclicker Rebate 2012-2013
p7550
sg20
VKit/Set/Package
p7551
sg22
g590
sg24
F219.4
sa(dp7552
g13
I9781256704782
sg14
VWalker*
p7553
sg16
VRequired
p7554
sg18
VPhysics Vol. 1 W/Mastering Physics & Iclicker Rebate 2012-2013
p7555
sg20
VKit/Set/Package
p7556
sg22
g590
sg24
F147.1
sa(dp7557
g13
I9781256777441
sg14
VWalker*
p7558
sg16
VRequired
p7559
sg18
VPhysics Vol. 2 W/Mastering Physics & Iclicker Rebate 2012-2013
p7560
sg20
VKit/Set/Package
p7561
sg22
g590
sg24
F138.6
sa(dp7562
g13
I9780321611130
sg14
VWalker
p7563
sg16
VPart of Set
p7564
sg18
VPhysics Vol I
p7565
sg20
VPaperback
p7566
sg22
g590
sg24
F113.75
sa(dp7567
g13
I9780321611116
sg14
VWalker
p7568
sg16
VPart of Set
p7569
sg18
VPhysics
p7570
sg20
VHardback
p7571
sg22
g590
sg24
F163.0
sa(dp7572
g13
I9780321611123
sg14
VWalker
p7573
sg16
VPart of Set
p7574
sg18
VPhysics Vol Ii
p7575
sg20
VPaperback
p7576
sg22
g590
sg24
F111.6
sasg38
V367861
p7577
sg40
VE-01
p7578
sasg38
V98033
p7579
sg40
VPHY122
p7580
sa(dp7581
g5
(lp7582
(dp7583
g8
VKhakpour
p7584
sg10
(lp7585
(dp7586
g13
I9781256777465
sg14
VWalker*
p7587
sg16
VRequired
p7588
sg18
VPhysics W/Mastering Physics & Iclicker Rebate 2012-2013
p7589
sg20
VKit/Set/Package
p7590
sg22
g590
sg24
F219.4
sa(dp7591
g13
I9781256777441
sg14
VWalker*
p7592
sg16
VRequired
p7593
sg18
VPhysics Vol. 2 W/Mastering Physics & Iclicker Rebate 2012-2013
p7594
sg20
VKit/Set/Package
p7595
sg22
g590
sg24
F138.6
sa(dp7596
g13
I9780321601995
sg14
VWalker
p7597
sg16
VOptional
p7598
sg18
VPhysics Vol 2 Sg & Solutions Manual
p7599
sg20
VPaperback
p7600
sg22
g590
sg24
F32.2
sa(dp7601
g13
I9780321611116
sg14
VWalker
p7602
sg16
VPart of Set
p7603
sg18
VPhysics
p7604
sg20
VHardback
p7605
sg22
g590
sg24
F163.0
sa(dp7606
g13
I9780321611123
sg14
VWalker
p7607
sg16
VPart of Set
p7608
sg18
VPhysics Vol Ii
p7609
sg20
VPaperback
p7610
sg22
g590
sg24
F111.6
sasg38
V367863
p7611
sg40
VE-01
p7612
sasg38
V98035
p7613
sg40
VPHY123
p7614
sa(dp7615
g5
(lp7616
(dp7617
g8
VLAM
p7618
sg10
(lp7619
(dp7620
g13
I9781118309193
sg14
VHalliday (Sw2)
p7621
sg16
VRequired
p7622
sg18
VFundamentals Of Physics Vol 1 For Csupomona W/ Wiley Plus
p7623
sg20
VKit/Set/Package
p7624
sg22
g1109
sg24
F120.65
sa(dp7625
g13
I9781118144374
sg14
VHalliday
p7626
sg16
VPart of Set
p7627
sg18
VFundamentals Of Physics Cpp Custom Qtr 1-3 (Ch 1-30)
p7628
sg20
VLooseleaf
p7629
sg22
g1109
sg24
F114.0
sa(dp7630
g13
I9780470524725
sg14
VHalliday/Wiley
p7631
sg16
VPart of Set
p7632
sg18
VWiley Plus Access Card T/A Fundamenta S Of Physics
p7633
sg20
VAccess Code
p7634
sg22
g1109
sg24
F100.0
sasg38
V367865
p7635
sg40
VE-01
p7636
sasg38
V98037
p7637
sg40
VPHY131
p7638
sa(dp7639
g5
(lp7640
(dp7641
g8
VCHRISTENSEN  JR
p7642
sg10
(lp7643
(dp7644
g13
I9781118309193
sg14
VHalliday (Sw2)
p7645
sg16
VRequired
p7646
sg18
VFundamentals Of Physics Vol 1 For Csupomona W/ Wiley Plus
p7647
sg20
VKit/Set/Package
p7648
sg22
g1109
sg24
F120.65
sa(dp7649
g13
I9781118144374
sg14
VHalliday
p7650
sg16
VPart of Set
p7651
sg18
VFundamentals Of Physics Cpp Custom Qtr 1-3 (Ch 1-30)
p7652
sg20
VLooseleaf
p7653
sg22
g1109
sg24
F114.0
sa(dp7654
g13
I9780470524725
sg14
VHalliday/Wiley
p7655
sg16
VPart of Set
p7656
sg18
VWiley Plus Access Card T/A Fundamenta S Of Physics
p7657
sg20
VAccess Code
p7658
sg22
g1109
sg24
F100.0
sasg38
V367867
p7659
sg40
VE-01
p7660
sasg38
V98039
p7661
sg40
VPHY132
p7662
sa(dp7663
g5
(lp7664
(dp7665
g8
VMYLANDER
p7666
sg10
(lp7667
(dp7668
g13
I9781118309193
sg14
VHalliday (Sw2)
p7669
sg16
VRequired
p7670
sg18
VFundamentals Of Physics Vol 1 For Csupomona W/ Wiley Plus
p7671
sg20
VKit/Set/Package
p7672
sg22
g1109
sg24
F120.65
sa(dp7673
g13
I9781118144374
sg14
VHalliday
p7674
sg16
VPart of Set
p7675
sg18
VFundamentals Of Physics Cpp Custom Qtr 1-3 (Ch 1-30)
p7676
sg20
VLooseleaf
p7677
sg22
g1109
sg24
F114.0
sa(dp7678
g13
I9780470524725
sg14
VHalliday/Wiley
p7679
sg16
VPart of Set
p7680
sg18
VWiley Plus Access Card T/A Fundamenta S Of Physics
p7681
sg20
VAccess Code
p7682
sg22
g1109
sg24
F100.0
sasg38
V367869
p7683
sg40
VE-01
p7684
sasg38
V98041
p7685
sg40
VPHY133
p7686
sa(dp7687
g5
(lp7688
(dp7689
g8
VShareghi
p7690
sg10
(lp7691
sg38
V367860
p7692
sg40
VE-11
p7693
sa(dp7694
g8
VSTAFF,
p7695
sg10
(lp7696
sg38
V379816
p7697
sg40
VE-12
p7698
sasg38
V98032
p7699
sg40
VPHY121L
p7700
sa(dp7701
g5
(lp7702
(dp7703
g8
VRhee
p7704
sg10
(lp7705
sg38
V367862
p7706
sg40
VE-11
p7707
sa(dp7708
g8
VSTAFF,
p7709
sg10
(lp7710
sg38
V379817
p7711
sg40
VE-12
p7712
sasg38
V98034
p7713
sg40
VPHY122L
p7714
sa(dp7715
g5
(lp7716
(dp7717
g8
VKhakpour
p7718
sg10
(lp7719
sg38
V367864
p7720
sg40
VE-11
p7721
sa(dp7722
g8
VSTAFF,
p7723
sg10
(lp7724
sg38
V379818
p7725
sg40
VE-12
p7726
sasg38
V98036
p7727
sg40
VPHY123L
p7728
sa(dp7729
g5
(lp7730
(dp7731
g8
VLAM
p7732
sg10
(lp7733
sg38
V367866
p7734
sg40
VE-11
p7735
sa(dp7736
g8
VSTAFF,
p7737
sg10
(lp7738
sg38
V379819
p7739
sg40
VE-12
p7740
sasg38
V98038
p7741
sg40
VPHY131L
p7742
sa(dp7743
g5
(lp7744
(dp7745
g8
VBenzahra
p7746
sg10
(lp7747
sg38
V367868
p7748
sg40
VE-11
p7749
sa(dp7750
g8
VBenzahra
p7751
sg10
(lp7752
sg38
V379820
p7753
sg40
VE-12
p7754
sasg38
V98040
p7755
sg40
VPHY132L
p7756
sa(dp7757
g5
(lp7758
(dp7759
g8
VMYLANDER
p7760
sg10
(lp7761
sg38
V367870
p7762
sg40
VE-11
p7763
sa(dp7764
g8
VSTAFF,
p7765
sg10
(lp7766
sg38
V379821
p7767
sg40
VE-12
p7768
sasg38
V98042
p7769
sg40
VPHY133L
p7770
sasg469
VPHY
p7771
sg38
V4828
p7772
sg40
VPHYSICS
p7773
sa(dp7774
g2
(lp7775
(dp7776
g5
(lp7777
(dp7778
g8
VREESE
p7779
sg10
(lp7780
(dp7781
g13
I9780759392809
sg14
VSquire
p7782
sg16
VRequired
p7783
sg18
VDynamics Of Democracy
p7784
sg20
VPaperback
p7785
sg22
g412
sg24
F92.5
sasg38
V379975
p7786
sg40
VE-01
p7787
sa(dp7788
g8
VREESE
p7789
sg10
(lp7790
sg38
V383412
p7791
sg40
VE-02
p7792
sasg38
V99417
p7793
sg40
VPLS201
p7794
sa(dp7795
g5
(lp7796
(dp7797
g8
VEMERSON
p7798
sg10
(lp7799
sg38
V379977
p7800
sg40
VE-01
p7801
sasg38
V99419
p7802
sg40
VPLS205
p7803
sa(dp7804
g5
(lp7805
(dp7806
g8
VREESE
p7807
sg10
(lp7808
sg38
V379979
p7809
sg40
VE-01
p7810
sa(dp7811
g8
VREESE
p7812
sg10
(lp7813
sg38
V383413
p7814
sg40
VE-02
p7815
sasg38
V99421
p7816
sg40
VPLS382
p7817
sa(dp7818
g5
(lp7819
(dp7820
g8
VEMERSON
p7821
sg10
(lp7822
sg38
V379978
p7823
sg40
VE-01
p7824
sasg38
V99420
p7825
sg40
VPLS205A
p7826
sasg469
VPLS
p7827
sg38
V4825
p7828
sg40
VPOLITICAL SCIENCE
p7829
sa(dp7830
g2
(lp7831
(dp7832
g5
(lp7833
(dp7834
g8
VKaufmann
p7835
sg10
(lp7836
(dp7837
g13
I9780738003351
sg14
VKaae
p7838
sg16
VRequired
p7839
sg18
VTravels With My Antlion (Agb 300)
p7840
sg20
VSpiral
p7841
sg22
V5R
p7842
sg24
F44.55
sasg38
V370485
p7843
sg40
VE-01
p7844
sasg38
V99348
p7845
sg40
VPLT300
p7846
sasg469
VPLT
p7847
sg38
V4826
p7848
sg40
VPLANT SCIENCES
p7849
sa(dp7850
g2
(lp7851
(dp7852
g5
(lp7853
(dp7854
g8
VTHOMAS
p7855
sg10
(lp7856
(dp7857
g13
I9781133618904
sg14
VWeiten*
p7858
sg16
VRequired
p7859
sg18
VPsychology Applied To Modern Life (Loose Leaf) W/Custom Webtutor On Blackboard
p7860
sg20
VKit/Set/Package
p7861
sg22
V10
p7862
sg24
F124.0
sa(dp7863
g13
I9781111561352
sg14
VWeiten (Db*)
p7864
sg16
VOptional
p7865
sg18
VPsychology Applied To Modern Life (Coursesmart)
p7866
sg20
VEbook
p7867
sg22
V10
p7868
sg24
F90.0
sa(dp7869
g13
I9781133445265
sg14
VCengage/Weiten*
p7870
sg16
VPart of Set
p7871
sg18
VAcp Pac Cc On Bl Psych Applied To Mod Life Webutor Access
p7872
sg20
VAccess Code
p7873
sg22
V10
p7874
sg24
F25.0
sa(dp7875
g13
I9781111297985
sg14
VWeiten
p7876
sg16
VPart of Set
p7877
sg18
VPsychology Applied To Modern Life Advantage Series (Loose Leaf)
p7878
sg20
VPaperback
p7879
sg22
V10
p7880
sg24
F108.35
sasg38
V367871
p7881
sg40
VE-01
p7882
sasg38
V98043
p7883
sg40
VPSY201
p7884
sa(dp7885
g5
(lp7886
(dp7887
g8
VVon Glahn
p7888
sg10
(lp7889
(dp7890
g13
I9780470392225
sg14
VWitte
p7891
sg16
VRequired
p7892
sg18
VStatistics
p7893
sg20
VHardback
p7894
sg22
g1109
sg24
F182.5
sa(dp7895
g13
I9780470566114
sg14
VWitte (Db*)
p7896
sg16
VOptional
p7897
sg18
VStatistics (Coursesmart Digital)
p7898
sg20
VEbook
p7899
sg22
g1109
sg24
F93.5
sasg38
V367873
p7900
sg40
VE-01
p7901
sasg38
V98044
p7902
sg40
VPSY307
p7903
sa(dp7904
g5
(lp7905
(dp7906
g8
VSTURGES
p7907
sg10
(lp7908
(dp7909
g13
I9780078035197
sg14
VTaylor
p7910
sg16
VRequired
p7911
sg18
VHealth Psychology
p7912
sg20
VHardback
p7913
sg22
g23
sg24
F181.25
sa(dp7914
g13
I9780077378318
sg14
VTaylor (Db*)
p7915
sg16
VOptional
p7916
sg18
VHealth Psychology (Coursesmart)
p7917
sg20
VEbook
p7918
sg22
g23
sg24
F95.0
sasg38
V367875
p7919
sg40
VE-01
p7920
sasg38
V98046
p7921
sg40
VPSY326
p7922
sa(dp7923
g5
(lp7924
(dp7925
g8
VHORNER
p7926
sg10
(lp7927
(dp7928
g13
I9780205579808
sg14
VFoley
p7929
sg16
VRequired
p7930
sg18
VSensation & Perception
p7931
sg20
VHardback
p7932
sg22
g412
sg24
F130.4
sa(dp7933
g13
I9780205654376
sg14
VFoley (Db*)
p7934
sg16
VOptional
p7935
sg18
VSensation & Perception (Coursesmart)
p7936
sg20
VEbook
p7937
sg22
g412
sg24
F51.0
sasg38
V367876
p7938
sg40
VE-01
p7939
sasg38
V98047
p7940
sg40
VPSY460
p7941
sa(dp7942
g5
(lp7943
(dp7944
g8
VVon Glahn
p7945
sg10
(lp7946
sg38
V367874
p7947
sg40
VE-01
p7948
sasg38
V98045
p7949
sg40
VPSY307A
p7950
sa(dp7951
g5
(lp7952
(dp7953
g8
VHORNER
p7954
sg10
(lp7955
sg38
V367877
p7956
sg40
VE-01
p7957
sasg38
V98048
p7958
sg40
VPSY460A
p7959
sasg469
VPSY
p7960
sg38
V4829
p7961
sg40
VPSYCHOLOGY
p7962
sa(dp7963
g2
(lp7964
(dp7965
g5
(lp7966
(dp7967
g8
VSTAFF
p7968
sg10
(lp7969
(dp7970
g13
I9780495094685
sg14
VBabbie
p7971
sg16
VRequired
p7972
sg18
VBasics Of Social Research
p7973
sg20
VPaperback
p7974
sg22
g590
sg24
F118.35
sa(dp7975
g13
I9780495517467
sg14
VBabbie (Db*)
p7976
sg16
VOptional
p7977
sg18
VThe Basics Of Social Research (Coursesmart)
p7978
sg20
VEbook
p7979
sg22
g590
sg24
F60.0
sasg38
V367878
p7980
sg40
VE-01
p7981
sasg38
V98049
p7982
sg40
VSOC204
p7983
sa(dp7984
g5
(lp7985
(dp7986
g8
VSTAFF
p7987
sg10
(lp7988
(dp7989
g13
I9780761929949
sg14
VBeckett
p7990
sg16
VRequired
p7991
sg18
VPolitics Of Injustice
p7992
sg20
VPaperback
p7993
sg22
g515
sg24
F53.0
sa(dp7994
g13
I9780802141446
sg14
VShakur
p7995
sg16
VRequired
p7996
sg18
VMonster
p7997
sg20
Nsg22
Nsg24
F14.95
sa(dp7998
g13
I9781583227435
sg14
VLoo
p7999
sg16
VRequired
p8000
sg18
VImpeach The President
p8001
sg20
VPaperback
p8002
sg22
V97
p8003
sg24
F17.95
sa(dp8004
g13
I9780132350068
sg14
VBarkan
p8005
sg16
VRequired
p8006
sg18
VCriminology
p8007
sg20
VHardback
p8008
sg22
g590
sg24
F120.05
sa(dp8009
g13
I9780135031834
sg14
VBarkan (Db*)
p8010
sg16
VOptional
p8011
sg18
VCriminology (Coursesmart Digital)
p8012
sg20
VEbook
p8013
sg22
g590
sg24
F64.0
sasg38
V367879
p8014
sg40
VE-01
p8015
sasg38
V98050
p8016
sg40
VSOC302
p8017
sasg469
VSOC
p8018
sg38
V4830
p8019
sg40
VSOCIOLOGY
p8020
sa(dp8021
g2
(lp8022
(dp8023
g5
(lp8024
(dp8025
g8
VDICKSON
p8026
sg10
(lp8027
(dp8028
g13
I9781428250246
sg14
VLong* (Sw2)
p8029
sg16
VRequired
p8030
sg18
VNexos Custom Vol 1 W/Ilrn Access Code
p8031
sg20
VKit/Set/Package
p8032
sg22
g515
sg24
F125.6
sa(dp8033
g13
I9781111006990
sg14
VLong*
p8034
sg16
VPart of Set
p8035
sg18
VNexos Custom Vol 1  (Acp For Cpp) 1111006997
p8036
sg20
VPaperback
p8037
sg22
g515
sg24
F80.0
sasg38
V367880
p8038
sg40
VE-01
p8039
sa(dp8040
g8
VVogel
p8041
sg10
(lp8042
(dp8043
g13
I9781428250246
sg14
VLong* (Sw2)
p8044
sg16
VRequired
p8045
sg18
VNexos Custom Vol 1 W/Ilrn Access Code
p8046
sg20
VKit/Set/Package
p8047
sg22
g515
sg24
F125.6
sa(dp8048
g13
I9781111006990
sg14
VLong*
p8049
sg16
VPart of Set
p8050
sg18
VNexos Custom Vol 1  (Acp For Cpp) 1111006997
p8051
sg20
VPaperback
p8052
sg22
g515
sg24
F80.0
sasg38
V367881
p8053
sg40
VE-02
p8054
sasg38
V98051
p8055
sg40
VSPN151
p8056
sasg469
VSPN
p8057
sg38
V4736
p8058
sg40
VSPANISH
p8059
sa(dp8060
g2
(lp8061
(dp8062
g5
(lp8063
(dp8064
g8
VKIM
p8065
sg10
(lp8066
(dp8067
g13
I9781118299876
sg14
VMann
p8068
sg16
VRequired
p8069
sg18
VStatistics (Custom)
p8070
sg20
VPaperback
p8071
sg22
g75
sg24
F105.35
sasg38
V367882
p8072
sg40
VE-01
p8073
sa(dp8074
g8
VGILL
p8075
sg10
(lp8076
(dp8077
g13
I9781118299876
sg14
VMann
p8078
sg16
VRequired
p8079
sg18
VStatistics (Custom)
p8080
sg20
VPaperback
p8081
sg22
g75
sg24
F105.35
sasg38
V367883
p8082
sg40
VE-02
p8083
sa(dp8084
g8
VGILL
p8085
sg10
(lp8086
(dp8087
g13
I9781118299876
sg14
VMann
p8088
sg16
VRequired
p8089
sg18
VStatistics (Custom)
p8090
sg20
VPaperback
p8091
sg22
g75
sg24
F105.35
sasg38
V367884
p8092
sg40
VE-03
p8093
sasg38
V98052
p8094
sg40
VSTA120
p8095
sa(dp8096
g5
(lp8097
(dp8098
g8
VGILL
p8099
sg10
(lp8100
(dp8101
g13
I9780321640772
sg14
VJohnson
p8102
sg16
VRequired
p8103
sg18
VMiller & Freund's Prob & Stats For Engineers
p8104
sg20
VHardback
p8105
sg22
g23
sg24
F150.0
sa(dp8106
g13
I9780321641724
sg14
VJohnson (Db*)
p8107
sg16
VOptional
p8108
sg18
VMiller & Freunds Probability & Statistics For Engrs (Coursesmart)
p8109
sg20
VEbook
p8110
sg22
g23
sg24
F64.0
sasg38
V367885
p8111
sg40
VE-01
p8112
sasg38
V98053
p8113
sg40
VSTA309
p8114
sasg469
VSTA
p8115
sg38
V4739
p8116
sg40
VSTATISTICS
p8117
sa(dp8118
g2
(lp8119
(dp8120
g5
(lp8121
(dp8122
g8
VDjonne
p8123
sg10
(lp8124
(dp8125
g13
I9780534274252
sg14
VWiseman
p8126
sg16
VRequired
p8127
sg18
VBecoming A Teacher In A Field-Based Setting
p8128
sg20
VPaperback
p8129
sg22
g115
sg24
F118.65
sa(dp8130
g13
I9780805880502
sg14
VZeichner
p8131
sg16
VRequired
p8132
sg18
VReflective Teaching
p8133
sg20
Nsg22
Nsg24
F22.95
sasg38
V367886
p8134
sg40
VE-01
p8135
sasg38
V98054
p8136
sg40
VTED405
p8137
sa(dp8138
g5
(lp8139
(dp8140
g8
VFINE
p8141
sg10
(lp8142
(dp8143
g13
I9780205459469
sg14
VWoolfolk
p8144
sg16
VRequired
p8145
sg18
VEducational Psychology
p8146
sg20
VPaperback
p8147
sg22
V10
p8148
sg24
F152.5
sa(dp8149
g13
I9780137144549
sg14
VWoolfolk
p8150
sg16
VRequired
p8151
sg18
VEducational Psychology
p8152
sg20
VPaperback
p8153
sg22
V11
p8154
sg24
F148.75
sa(dp8155
g13
I9780136064138
sg14
VWoolfolk (Db*)
p8156
sg16
VOptional
p8157
sg18
VEducational Psychology (Coursesmart)
p8158
sg20
VEbook
p8159
sg22
V11
p8160
sg24
F100.0
sa(dp8161
g13
I9780137034666
sg14
VCharles (Db*)
p8162
sg16
VOptional
p8163
sg18
VBuilding Classroom Discipline (Coursesmart)
p8164
sg20
VEbook
p8165
sg22
V10
p8166
sg24
F35.0
sa(dp8167
g13
I9780137034055
sg14
VCharles
p8168
sg16
VOptional
p8169
sg18
VBuilding Classroom Discipline
p8170
sg20
VPaperback
p8171
sg22
V10
p8172
sg24
F86.65
sasg38
V367887
p8173
sg40
VE-01
p8174
sasg38
V98055
p8175
sg40
VTED406
p8176
sa(dp8177
g5
(lp8178
(dp8179
g8
VNAVARRO
p8180
sg10
(lp8181
sg38
V367888
p8182
sg40
VE-01
p8183
sasg38
V98056
p8184
sg40
VTED407
p8185
sa(dp8186
g5
(lp8187
(dp8188
g8
VSTAFF
p8189
sg10
(lp8190
sg38
V380207
p8191
sg40
V01
p8192
sasg38
V100649
p8193
sg40
VTED441
p8194
sasg469
VTED
p8195
sg38
V4831
p8196
sg40
VTEACHER EDUCATION
p8197
sa(dp8198
g2
(lp8199
(dp8200
g5
(lp8201
(dp8202
g8
VBISESTI
p8203
sg10
(lp8204
sg38
V379982
p8205
sg40
VE-01
p8206
sasg38
V99424
p8207
sg40
VTH441L
p8208
sasg469
VTH
p8209
sg38
V4742
p8210
sg40
VTHEATRE
p8211
sa(dp8212
g2
(lp8213
(dp8214
g5
(lp8215
(dp8216
g8
VXU
p8217
sg10
(lp8218
(dp8219
g13
I9780538479134
sg14
VCollier
p8220
sg16
VRequired
p8221
sg18
VOm 3 Student Ed
p8222
sg20
VPaperback
p8223
sg22
g115
sg24
F59.95
sa(dp8224
g13
I9781133148678
sg14
VCollier (Db*)
p8225
sg16
VOptional
p8226
sg18
VOm (Coursesmart)
p8227
sg20
VEbook
p8228
sg22
g115
sg24
F60.0
sasg38
V367889
p8229
sg40
VE-01
p8230
sa(dp8231
g8
VXU
p8232
sg10
(lp8233
(dp8234
g13
I9780538479134
sg14
VCollier
p8235
sg16
VRequired
p8236
sg18
VOm 3 Student Ed
p8237
sg20
VPaperback
p8238
sg22
g115
sg24
F59.95
sa(dp8239
g13
I9781133148678
sg14
VCollier (Db*)
p8240
sg16
VOptional
p8241
sg18
VOm (Coursesmart)
p8242
sg20
VEbook
p8243
sg22
g115
sg24
F60.0
sasg38
V367890
p8244
sg40
VE-02
p8245
sasg38
V98057
p8246
sg40
VTOM301
p8247
sa(dp8248
g5
(lp8249
(dp8250
g8
VHE
p8251
sg10
(lp8252
(dp8253
g13
I9781111634261
sg14
VWeiers* (Cp)
p8254
sg16
VRequired
p8255
sg18
VManagerial Statistics Custom Ed
p8256
sg20
VLooseleaf
p8257
sg22
g75
sg24
F150.0
sasg38
V367891
p8258
sg40
VE-01
p8259
sa(dp8260
g8
VCO
p8261
sg10
(lp8262
(dp8263
g13
I9781111634261
sg14
VWeiers* (Cp)
p8264
sg16
VRequired
p8265
sg18
VManagerial Statistics Custom Ed
p8266
sg20
VLooseleaf
p8267
sg22
g75
sg24
F150.0
sasg38
V367892
p8268
sg40
VE-02
p8269
sa(dp8270
g8
VCO
p8271
sg10
(lp8272
(dp8273
g13
I9781111634261
sg14
VWeiers* (Cp)
p8274
sg16
VRequired
p8275
sg18
VManagerial Statistics Custom Ed
p8276
sg20
VLooseleaf
p8277
sg22
g75
sg24
F150.0
sasg38
V367893
p8278
sg40
VE-03
p8279
sa(dp8280
g8
VHALATI
p8281
sg10
(lp8282
(dp8283
g13
I9781111634261
sg14
VWeiers* (Cp)
p8284
sg16
VRequired
p8285
sg18
VManagerial Statistics Custom Ed
p8286
sg20
VLooseleaf
p8287
sg22
g75
sg24
F150.0
sasg38
V367894
p8288
sg40
VE-04
p8289
sasg38
V98058
p8290
sg40
VTOM302
p8291
sa(dp8292
g5
(lp8293
(dp8294
g8
VHALATI
p8295
sg10
(lp8296
(dp8297
g13
I9781439043271
sg14
VAnderson
p8298
sg16
VRequired
p8299
sg18
VIntro To Management Science (W/Cd)
p8300
sg20
VHardback
p8301
sg22
V13
p8302
sg24
F220.65
sa(dp8303
g13
I9781111278526
sg14
VAnderson (Db*)
p8304
sg16
VOptional
p8305
sg18
VIntro To Management Science (Coursesmart)
p8306
sg20
VEbook
p8307
sg22
V13
p8308
sg24
F102.0
sasg38
V367896
p8309
sg40
VE-01
p8310
sasg38
V98060
p8311
sg40
VTOM315
p8312
sa(dp8313
g5
(lp8314
(dp8315
g8
VSTAFF
p8316
sg10
(lp8317
(dp8318
g13
I9780077284091
sg14
VStevenson*
p8319
sg16
VRequired
p8320
sg18
VOperations Management (W/Cd)
p8321
sg20
VHardback
p8322
sg22
V10
p8323
sg24
F195.95
sa(dp8324
g13
I9780077271459
sg14
VStevenson (Db*)
p8325
sg16
VOptional
p8326
sg18
VOperations Management (Coursesmart Digital)
p8327
sg20
VEbook
p8328
sg22
V10
p8329
sg24
F113.5
sa(dp8330
g13
I9780073377841
sg14
VStevenson
p8331
sg16
VPart of Set
p8332
sg18
VOperations Management
p8333
sg20
VHardback
p8334
sg22
V10
p8335
sg24
F156.75
sasg38
V367897
p8336
sg40
VE-01
p8337
sasg38
V98061
p8338
sg40
VTOM332
p8339
sa(dp8340
g5
(lp8341
(dp8342
g8
VRHODES
p8343
sg10
(lp8344
(dp8345
g13
I9781450068925
sg14
VRhodes
p8346
sg16
VRequired
p8347
sg18
VReport Writing: A Survival Guide
p8348
sg20
Nsg22
Nsg24
F16.0
sa(dp8349
g13
I9780136006695
sg14
VHunger
p8350
sg16
VRequired
p8351
sg18
VEssentials Of Strategic Management
p8352
sg20
VPaperback
p8353
sg22
g412
sg24
F104.0
sa(dp8354
g13
I9780135100004
sg14
VHunger (Db*)
p8355
sg16
VOptional
p8356
sg18
VEssentials Of Strategic Management (Coursesmart)
p8357
sg20
VEbook
p8358
sg22
g412
sg24
F42.0
sasg38
V367898
p8359
sg40
VE-01
p8360
sasg38
V98062
p8361
sg40
VTOM411
p8362
sasg469
VTOM
p8363
sg38
V4809
p8364
sg40
VTECH & OPER MGMT
p8365
sa(dp8366
g2
(lp8367
(dp8368
g5
(lp8369
(dp8370
g8
VDELGADO
p8371
sg10
(lp8372
sg38
V367899
p8373
sg40
VE-01
p8374
sasg38
V98063
p8375
sg40
VURP104
p8376
sa(dp8377
g5
(lp8378
(dp8379
g8
VZIMMER
p8380
sg10
(lp8381
sg38
V367900
p8382
sg40
VE-01
p8383
sasg38
V98064
p8384
sg40
VURP466
p8385
sa(dp8386
g5
(lp8387
(dp8388
g8
VDELGADO
p8389
sg10
(lp8390
sg38
V367901
p8391
sg40
VE-01
p8392
sasg38
V98072
p8393
sg40
VURP475
p8394
sa(dp8395
g5
(lp8396
(dp8397
g8
VDELGADO
p8398
sg10
(lp8399
sg38
V367902
p8400
sg40
VE-01
p8401
sa(dp8402
g8
VZIMMER
p8403
sg10
(lp8404
sg38
V367903
p8405
sg40
VE-02
p8406
sasg38
V98065
p8407
sg40
VURP499
p8408
sasg469
VURP
p8409
sg38
V4744
p8410
sg40
VURBAN & REG PLANNING
p8411
sa(dp8412
g2
(lp8413
(dp8414
g5
(lp8415
(dp8416
g8
VKIDD
p8417
sg10
(lp8418
(dp8419
g13
I9780073378091
sg14
VMckinley
p8420
sg16
VRequired
p8421
sg18
VHuman Anatomy
p8422
sg20
VHardback
p8423
sg22
g115
sg24
F227.2
sa(dp8424
g13
I9780077308919
sg14
VMckinley (Db*)
p8425
sg16
VOptional
p8426
sg18
VHuman Anatomy (Coursesmart)
p8427
sg20
VEbook
p8428
sg22
g115
sg24
F121.25
sasg38
V367904
p8429
sg40
VE-01
p8430
sasg38
V98066
p8431
sg40
VZOO234
p8432
sa(dp8433
g5
(lp8434
(dp8435
g8
VSPENCER
p8436
sg10
(lp8437
(dp8438
g13
I9780077350062
sg14
VFox
p8439
sg16
VRequired
p8440
sg18
VHuman Physiology
p8441
sg20
VHardback
p8442
sg22
V12
p8443
sg24
F193.75
sasg38
V367909
p8444
sg40
VE-01
p8445
sasg38
V98068
p8446
sg40
VZOO235
p8447
sa(dp8448
g5
(lp8449
(dp8450
g8
VSTAFF
p8451
sg10
(lp8452
sg38
V367905
p8453
sg40
VE-01
p8454
sa(dp8455
g8
VSTAFF
p8456
sg10
(lp8457
sg38
V367906
p8458
sg40
VE-02
p8459
sa(dp8460
g8
VSTAFF
p8461
sg10
(lp8462
sg38
V367907
p8463
sg40
VE-03
p8464
sa(dp8465
g8
VSTAFF
p8466
sg10
(lp8467
sg38
V367908
p8468
sg40
VE-04
p8469
sasg38
V98067
p8470
sg40
VZOO234L
p8471
sa(dp8472
g5
(lp8473
(dp8474
g8
VSTAFF
p8475
sg10
(lp8476
sg38
V367910
p8477
sg40
VE-01
p8478
sa(dp8479
g8
VSTAFF
p8480
sg10
(lp8481
sg38
V367911
p8482
sg40
VE-02
p8483
sa(dp8484
g8
VSTAFF
p8485
sg10
(lp8486
sg38
V367912
p8487
sg40
VE-03
p8488
sa(dp8489
g8
VSTAFF
p8490
sg10
(lp8491
sg38
V367913
p8492
sg40
VE-04
p8493
sasg38
V98069
p8494
sg40
VZOO235L
p8495
sasg469
VZOO
p8496
sg38
V4745
p8497
sg40
VZOOLOGY
p8498
sa.