(lp0
(dp1
S'name'
p2
VCAL POLY POMONA - SUMMER 2012
p3
sS'departments'
p4
(lp5
(dp6
S'courses'
p7
(lp8
(dp9
S'sections'
p10
(lp11
(dp12
S'instructor'
p13
VAHADIAT
p14
sS'books'
p15
(lp16
sS'id'
p17
V379837
p18
sg2
VE-01
p19
sasg17
V97771
p20
sg2
VACC208A
p21
sasg17
V4815
p22
sg2
VACCOUNTING
p23
sS'abrev'
p24
VACC
p25
sa(dp26
g7
(lp27
(dp28
g10
(lp29
(dp30
g13
VMATHIAS
p31
sg15
(lp32
(dp33
S'ISBN'
p34
L9780195306200L
sS'author'
p35
VWeston
p36
sS'isRequired'
p37
VRequired
p38
sS'title'
p39
VCreative Problem-Solving In Ethics
p40
sS'binding'
p41
NsS'edition'
p42
NsS'broncoListPrice'
p43
F19.95
sa(dp44
g34
L9781405111546L
sg35
VDriver
p45
sg37
g38
sg39
VEthics
p46
sg41
Nsg42
Nsg43
F29.95
sasg17
V367433
p47
sg2
g19
sa(dp48
g13
VMERLINO
p49
sg15
(lp50
(dp51
g34
L9780195306200L
sg35
g36
sg37
g38
sg39
g40
sg41
Nsg42
Nsg43
F19.95
sa(dp52
g34
L9781405111546L
sg35
g45
sg37
g38
sg39
g46
sg41
Nsg42
Nsg43
F29.95
sa(dp53
g34
L9780923568962L
sg35
VHoughton
p54
sg37
g38
sg39
VApa: The Easy Way!
p55
sg41
VPaperback
p56
sg42
V2
p57
sg43
F10.95
sasg17
V367434
p58
sg2
VE-11
p59
sa(dp60
g13
g49
sg15
(lp61
(dp62
g34
L9780195306200L
sg35
g36
sg37
g38
sg39
g40
sg41
Nsg42
Nsg43
F19.95
sa(dp63
g34
L9781405111546L
sg35
g45
sg37
g38
sg39
g46
sg41
Nsg42
Nsg43
F29.95
sa(dp64
g34
L9780923568962L
sg35
g54
sg37
g38
sg39
g55
sg41
g56
sg42
g57
sg43
F10.95
sasg17
V367435
p65
sg2
VE-12
p66
sa(dp67
g13
VPHILLIPS
p68
sg15
(lp69
(dp70
g34
L9780073386713L
sg35
VRachels
p71
sg37
g38
sg39
VElements Of Moral Philosophy
p72
sg41
g56
sg42
V6
p73
sg43
F55.0
sa(dp74
g34
L9780787985387L
sg35
VUkens
p75
sg37
g38
sg39
VWhat Would You Do? Workbook
p76
sg41
Nsg42
Nsg43
F15.0
sa(dp77
g34
L9780077318499L
sg35
VRachels (Db*)
p78
sg37
VOptional
p79
sg39
VElements Of Moral Philosophy (Coursesmart)
p80
sg41
VEbook
p81
sg42
g73
sg43
F29.0
sasg17
V367436
p82
sg2
VE-22
p83
sasg17
V97784
p84
sg2
VAG401
p85
sasg17
V4748
p86
sg2
VAGRICULTURAL SCIENCE
p87
sg24
VAG
p88
sa(dp89
g7
(lp90
(dp91
g10
(lp92
(dp93
g13
VTUCKER,
p94
sg15
(lp95
(dp96
g34
L9780073530024L
sg35
VLevy
p97
sg37
g38
sg39
VRetailing Management
p98
sg41
VHardback
p99
sg42
V8
p100
sg43
F196.25
sasg17
V367446
p101
sg2
g19
sasg17
V97794
p102
sg2
VAMM497A
p103
sasg17
V4807
p104
sg2
VAPPAREL MERCH & MGMT
p105
sg24
VAMM
p106
sa(dp107
g7
(lp108
(dp109
g10
(lp110
(dp111
g13
VRACHELE
p112
sg15
(lp113
(dp114
g34
L9780078140013L
sg35
VMoro
p115
sg37
g38
sg39
VMagic, Witchcraft & Religion
p116
sg41
g56
sg42
g100
sg43
F67.2
sasg17
V367449
p117
sg2
g19
sasg17
V97797
p118
sg2
VANT360
p119
sasg17
V4754
p120
sg2
VANTHROPOLOGY
p121
sg24
VANT
p122
sa(dp123
g7
(lp124
(dp125
g10
(lp126
(dp127
g13
VSHEINE
p128
sg15
(lp129
sg17
V367473
p130
sg2
g19
sa(dp131
g13
VRamirez, Irma
p132
sg15
(lp133
sg17
V380337
p134
sg2
VE-02
p135
sasg17
V97805
p136
sg2
VARC602L
p137
sasg17
V4755
p138
sg2
VARCHITECTURE
p139
sg24
VARC
p140
sa(dp141
g7
(lp142
(dp143
g10
(lp144
(dp145
g13
VBHANDARI
p146
sg15
(lp147
(dp148
g34
L9780131866140L
sg35
VPhillips
p149
sg37
g38
sg39
VFeedback Control Systems
p150
sg41
g99
sg42
V5
p151
sg43
F177.2
sa(dp152
g34
L9780131393028L
sg35
VPhillips (Db*)
p153
sg37
g79
sg39
VFeedback Control Systems (Coursesmart)
p154
sg41
g81
sg42
g151
sg43
F73.0
sasg17
V379811
p155
sg2
V01
p156
sasg17
V99351
p157
sg2
VARO499
p158
sasg17
V4756
p159
sg2
VAEROSPACE ENGR
p160
sg24
VARO
p161
sa(dp162
g7
(lp163
(dp164
g10
(lp165
(dp166
g13
V,
p167
sg15
(lp168
sg17
V380163
p169
sg2
g19
sa(dp170
g13
g167
sg15
(lp171
sg17
V380164
p172
sg2
g135
sasg17
V100635
p173
sg2
VAVS499A
p174
sasg17
V4758
p175
sg2
VANIMAL & VET SCIENCE
p176
sg24
VAVS
p177
sa(dp178
g7
(lp179
(dp180
g10
(lp181
(dp182
g13
VSTAFF
p183
sg15
(lp184
sg17
V367505
p185
sg2
g19
sasg17
V97821
p186
sg2
VBIO488S
p187
sasg17
V4760
p188
sg2
VBIOLOGY
p189
sg24
VBIO
p190
sa(dp191
g7
(lp192
(dp193
g10
(lp194
(dp195
g13
VYadegari
p196
sg15
(lp197
sg17
V379885
p198
sg2
g19
sasg17
V99385
p199
sg2
VCE433L
p200
sasg17
V4763
p201
sg2
VCIVIL ENGINEERING
p202
sg24
VCE
p203
sa(dp204
g7
(lp205
(dp206
g10
(lp207
(dp208
g13
VBromley, Barbara
p209
sg15
(lp210
(dp211
g34
L9780131181700L
sg35
VHeflin
p212
sg37
g38
sg39
VStudents With Autism Spectrum Disorders
p213
sg41
Nsg42
Nsg43
F56.0
sasg17
V383510
p214
sg2
g156
sasg17
V100839
p215
sg2
VCEUEDS 532
p216
sasg17
V4786
p217
sg2
VCONTINUING EDUCATION
p218
sg24
VCEU
p219
sa(dp220
g7
(lp221
(dp222
g10
(lp223
(dp224
g13
VLI
p225
sg15
(lp226
sg17
V380190
p227
sg2
g156
sasg17
V100644
p228
sg2
VCHE299
p229
sasg17
V4764
p230
sg2
VCHEM & MATRLS ENGR
p231
sg24
VCHE
p232
sa(dp233
g7
(lp234
(dp235
g10
(lp236
(dp237
g13
VOPOTOWSKY
p238
sg15
(lp239
sg17
V367591
p240
sg2
g19
sa(dp241
g13
g238
sg15
(lp242
sg17
V367592
p243
sg2
g135
sasg17
V97860
p244
sg2
VCHM329L
p245
sasg17
V4803
p246
sg2
VCHEMISTRY
p247
sg24
VCHM
p248
sa(dp249
g7
(lp250
(dp251
g10
(lp252
(dp253
g13
VHWANG
p254
sg15
(lp255
(dp256
g34
L9780735627406L
sg35
VNorthrup
p257
sg37
g38
sg39
VWeb Applications Development With Microsoft.Net Framework 4
p258
sg41
Nsg42
Nsg43
F70.0
sasg17
V379861
p259
sg2
g19
sasg17
V97867
p260
sg2
VCIS311
p261
sasg17
V4766
p262
sg2
VCOMPUTER INFO SYST
p263
sg24
VCIS
p264
sa(dp265
g7
(lp266
(dp267
g10
(lp268
(dp269
g13
g183
sg15
(lp270
(dp271
g34
L9781412977821L
sg35
VJowett
p272
sg37
g38
sg39
VPropaganda & Persuasion
p273
sg41
g56
sg42
g151
sg43
F64.0
sasg17
V379871
p274
sg2
g156
sasg17
V99370
p275
sg2
VCOM413
p276
sasg17
V4808
p277
sg2
VCOMMUNICATION
p278
sg24
VCOM
p279
sa(dp280
g7
(lp281
(dp282
g10
(lp283
(dp284
g13
VMunnerlyn
p285
sg15
(lp286
sg17
V370478
p287
sg2
g19
sa(dp288
g13
g285
sg15
(lp289
sg17
V370479
p290
sg2
g135
sasg17
V99343
p291
sg2
VCPU100
p292
sasg17
V4769
p293
sg2
VCAL POLY UNIVERSITY
p294
sg24
VCPU
p295
sa(dp296
g7
(lp297
(dp298
g10
(lp299
(dp300
g13
VYOUNG
p301
sg15
(lp302
sg17
V367610
p303
sg2
g19
sasg17
V97877
p304
sg2
VCS375
p305
sasg17
V4770
p306
sg2
VCOMPUTER SCIENCE
p307
sg24
VCS
p308
sa(dp309
g7
(lp310
(dp311
g10
(lp312
(dp313
g13
VBRESNOCK
p314
sg15
(lp315
(dp316
g34
L9780470393741L
sg35
VEsty
p317
sg37
g38
sg39
VGreen To Gold
p318
sg41
Nsg42
Nsg43
F21.95
sasg17
V367616
p319
sg2
g19
sasg17
V97881
p320
sg2
VEC441
p321
sasg17
V4819
p322
sg2
VECONOMICS
p323
sg24
VEC
p324
sa(dp325
g7
(lp326
(dp327
g10
(lp328
(dp329
g13
VKETSEOGLOU
p330
sg15
(lp331
sg17
V367660
p332
sg2
g19
sasg17
V97916
p333
sg2
VECE405L
p334
sasg17
V4774
p335
sg2
VELEC & COMP ENGR
p336
sg24
VECE
p337
sa(dp338
g7
(lp339
(dp340
g10
(lp341
(dp342
g13
VLaubie
p343
sg15
(lp344
(dp345
g34
L9780072866377L
sg35
VTaylor
p346
sg37
g38
sg39
VExceptional Students
p347
sg41
Nsg42
Nsg43
F141.25
sa(dp348
g34
L9780077267322L
sg35
VTaylor (Db*)
p349
sg37
g79
sg39
VExceptional Students (Coursesmart Digital)
p350
sg41
Nsg42
Nsg43
F79.25
sasg17
V367665
p351
sg2
g19
sasg17
V97930
p352
sg2
VEDS403
p353
sasg17
V4834
p354
sg2
VEDUCATION SPECIALIST
p355
sg24
VEDS
p356
sa(dp357
g7
(lp358
(dp359
g10
(lp360
(dp361
g13
g183
sg15
(lp362
sg17
V367667
p363
sg2
g19
sasg17
V97950
p364
sg2
VEDU510A
p365
sasg17
V4812
p366
sg2
VEDUC LEADERSHIP
p367
sg24
VEDU
p368
sa(dp369
g7
(lp370
(dp371
g10
(lp372
(dp373
g13
VTULACZ
p374
sg15
(lp375
(dp376
g34
L9781888689136L
sg35
VJosephson
p377
sg37
g38
sg39
VMaking Ethical Decisions (Item # 500450)
p378
sg41
Nsg42
Nsg43
F17.3
sasg17
V379888
p379
sg2
g19
sasg17
V99387
p380
sg2
VEGR445
p381
sasg17
V4817
p382
sg2
VENGINEERING
p383
sg24
VEGR
p384
sa(dp385
g7
(lp386
(dp387
g10
(lp388
(dp389
g13
VStaff, Staff
p390
sg15
(lp391
(dp392
g34
L9780062737335L
sg35
VRavitch
p393
sg37
g38
sg39
VAmerican Reader (2Nd)
p394
sg41
Nsg42
Nsg43
F20.0
sa(dp395
g34
L9780312650315L
sg35
VLunsford
p396
sg37
g38
sg39
VEasy Writer W/2009 Mla & Apa Updates
p397
sg41
VSpiral
p398
sg42
V4
p399
sg43
F28.65
sa(dp400
g34
L9780077421298L
sg35
VSherman
p401
sg37
g38
sg39
VWest Vol 1: To 1715
p402
sg41
Nsg42
Nsg43
F81.0
sasg17
V379833
p403
sg2
VREF
p404
sasg17
V99365
p405
sg2
VELIBRIDGE
p406
sasg17
V4777
p407
sg2
VENGLISH LANG INST
p408
sg24
VELI
p409
sa(dp410
g7
(lp411
(dp412
g10
(lp413
(dp414
g13
VSTAFF,
p415
sg15
(lp416
(dp417
g34
L9780802150615L
sg35
VOe
p418
sg37
g38
sg39
VPersonal Matter
p419
sg41
Nsg42
Nsg43
F12.0
sa(dp420
g34
L9780385722209L
sg35
VSijie
p421
sg37
g38
sg39
VBalzac & The Little Chinese Seamstress
p422
sg41
Nsg42
Nsg43
F11.95
sa(dp423
g34
L9781405100496L
sg35
VMatz
p424
sg37
g38
sg39
VModern Novel
p425
sg41
Nsg42
Nsg43
F24.95
sa(dp426
g34
L9780743267489L
sg35
VSwarup
p427
sg37
g38
sg39
VQ & A : A Novel (Slumdog Millionaire)
p428
sg41
Nsg42
Nsg43
F15.0
sa(dp429
g34
L9781400076949L
sg35
VAdichie
p430
sg37
g38
sg39
VPurple Hibiscus
p431
sg41
Nsg42
Nsg43
F14.95
sa(dp432
g34
L9780140031928L
sg35
VKerouac
p433
sg37
g38
sg39
VOn The Road
p434
sg41
Nsg42
Nsg43
F5.95
sasg17
V367687
p435
sg2
g19
sasg17
V97929
p436
sg2
VENG201
p437
sasg17
V4832
p438
sg2
VENGLISH
p439
sg24
VENG
p440
sa(dp441
g7
(lp442
(dp443
g10
(lp444
(dp445
g13
g183
sg15
(lp446
sg17
V380192
p447
sg2
g19
sa(dp448
g13
g183
sg15
(lp449
sg17
V380193
p450
sg2
g135
sa(dp451
g13
g183
sg15
(lp452
sg17
V380194
p453
sg2
VE-03
p454
sasg17
V100645
p455
sg2
VESE095
p456
sasg17
V4837
p457
sg2
VESE
p458
sg24
g458
sa(dp459
g7
(lp460
(dp461
g10
(lp462
(dp463
g13
g183
sg15
(lp464
sg17
V380201
p465
sg2
g19
sa(dp466
g13
VGRIFFITH
p467
sg15
(lp468
sg17
V380202
p469
sg2
g135
sa(dp470
g13
g183
sg15
(lp471
sg17
V380203
p472
sg2
g59
sa(dp473
g13
g183
sg15
(lp474
sg17
V380204
p475
sg2
VE-21
p476
sasg17
V100648
p477
sg2
VESM012
p478
sasg17
V4838
p479
sg2
VESM
p480
sg24
g480
sa(dp481
g7
(lp482
(dp483
g10
(lp484
(dp485
g13
VBABIKIAN
p486
sg15
(lp487
sg17
V379875
p488
sg2
g19
sasg17
V99372
p489
sg2
VETC130L
p490
sasg17
V4833
p491
sg2
VENGR TECH/CONSTRUCT
p492
sg24
VETC
p493
sa(dp494
g7
(lp495
(dp496
g10
(lp497
(dp498
g13
VQAYYUM
p499
sg15
(lp500
sg17
V379889
p501
sg2
g19
sasg17
V99388
p502
sg2
VETE499L
p503
sasg17
V4781
p504
sg2
VENGR TECH/ELECTRONIC
p505
sg24
VETE
p506
sa(dp507
g7
(lp508
(dp509
g10
(lp510
(dp511
g13
VKAUSER
p512
sg15
(lp513
sg17
V379899
p514
sg2
g59
sasg17
V99396
p515
sg2
VETT310L
p516
sasg17
V4818
p517
sg2
VENGINEERING TECH
p518
sg24
VETT
p519
sa(dp520
g7
(lp521
(dp522
g10
(lp523
(dp524
g13
VREESE
p525
sg15
(lp526
sg17
V367692
p527
sg2
VE-O2
p528
sasg17
V97727
p529
sg2
VEWS499
p530
sasg17
V4695
p531
sg2
VETHNIC & WOMEN'S ST
p532
sg24
VEWS
p533
sa(dp534
g7
(lp535
(dp536
g10
(lp537
(dp538
g13
g31
sg15
(lp539
(dp540
g34
L9780470534786L
sg35
VKimmel
p541
sg37
g38
sg39
VAccounting
p542
sg41
g99
sg42
g399
sg43
F230.0
sa(dp543
g34
L9780470919859L
sg35
VKimmel (Db*)
p544
sg37
g79
sg39
VAccounting (Coursesmart)
p545
sg41
g81
sg42
g399
sg43
F120.5
sasg17
V367693
p546
sg2
g135
sasg17
V97728
p547
sg2
VFMA224
p548
sasg17
V4697
p549
sg2
VFOOD MKTNG & AGRIB
p550
sg24
VFMA
p551
sa(dp552
g7
(lp553
(dp554
g10
(lp555
(dp556
g13
g183
sg15
(lp557
sg17
V379825
p558
sg2
g19
sasg17
V99355
p559
sg2
VFN696
p560
sasg17
V4698
p561
sg2
VFOODS & NUTRITION
p562
sg24
VFN
p563
sa(dp564
g7
(lp565
(dp566
g10
(lp567
(dp568
g13
VGHAZANFARI
p569
sg15
(lp570
(dp571
g34
L9780078034671L
sg35
VRose
p572
sg37
g38
sg39
VBank Management & Financial Services
p573
sg41
g99
sg42
V9
p574
sg43
F212.2
sa(dp575
g34
L9780077410568L
sg35
VRose (Db*)
p576
sg37
g79
sg39
VBank Management & Financial Services (Coursesmart)
p577
sg41
g81
sg42
g574
sg43
F113.25
sasg17
V379914
p578
sg2
g19
sasg17
V97952
p579
sg2
VFRL460
p580
sasg17
V4805
p581
sg2
VFIN REAL EST & LAW
p582
sg24
VFRL
p583
sa(dp584
g7
(lp585
(dp586
g10
(lp587
(dp588
g13
VRHODES
p589
sg15
(lp590
sg17
V367728
p591
sg2
g19
sasg17
V97753
p592
sg2
VGBA688
p593
sasg17
V4813
p594
sg2
VGRADUATE BUS ADMIN
p595
sg24
VGBA
p596
sa(dp597
g7
(lp598
(dp599
g10
(lp600
(dp601
g13
VMCGARVEY
p602
sg15
(lp603
sg17
V367730
p604
sg2
g19
sasg17
V97755
p605
sg2
VGED400L
p606
sasg17
V4702
p607
sg2
VGRADUATE & PROF ST
p608
sg24
VGED
p609
sa(dp610
g7
(lp611
(dp612
g10
(lp613
(dp614
g13
VPlatt
p615
sg15
(lp616
(dp617
g34
L9780757570605L
sg35
VHyslop
p618
sg37
g38
sg39
VCalifornia Eclectic
p619
sg41
Nsg42
Nsg43
F79.95
sasg17
V367738
p620
sg2
g19
sasg17
V97763
p621
sg2
VGEO351
p622
sasg17
V4703
p623
sg2
VGEOGRAPHY
p624
sg24
VGEO
p625
sa(dp626
g7
(lp627
(dp628
g10
(lp629
(dp630
g13
VROUMELIS
p631
sg15
(lp632
(dp633
g34
L9780757523687L
sg35
VNourse
p634
sg37
g38
sg39
VPractical Earth Science Exercises (Revised 2Nd)
p635
sg41
g56
sg42
g57
sg43
F58.8
sasg17
V379916
p636
sg2
g19
sasg17
V99380
p637
sg2
VGSC321L
p638
sasg17
V4811
p639
sg2
VGEOLOGICAL SCIENCE
p640
sg24
VGSC
p641
sa(dp642
g7
(lp643
(dp644
g10
(lp645
(dp646
g13
VBATES
p647
sg15
(lp648
sg17
V367746
p649
sg2
g19
sa(dp650
g13
VHOIKKALA
p651
sg15
(lp652
(dp653
g34
L9780618594962L
sg35
VCherny/Chan*(Sw)
p654
sg37
g38
sg39
VCompeting Visions W/Major Problems In California History
p655
sg41
Nsg42
Nsg43
F134.4
sa(dp656
g34
L9780669275889L
sg35
VChan
p657
sg37
VPart of Set
p658
sg39
VMajor Problems In California History
p659
sg41
Nsg42
Nsg43
F68.2
sa(dp660
g34
L9780395959640L
sg35
VCherny
p661
sg37
g658
sg39
VCompeting Visions: History Of California
p662
sg41
Nsg42
Nsg43
F130.0
sasg17
V367747
p663
sg2
g135
sasg17
V97955
p664
sg2
VHST370
p665
sasg17
V4707
p666
sg2
VHISTORY
p667
sg24
VHST
p668
sa(dp669
g7
(lp670
(dp671
g10
(lp672
(dp673
g13
VSWARTZ,
p674
sg15
(lp675
(dp676
g34
L9780324322842L
sg35
VQuelch
p677
sg37
g38
sg39
VGlobal Marketing Management
p678
sg41
g56
sg42
g151
sg43
F222.5
sasg17
V379918
p679
sg2
g19
sasg17
V99399
p680
sg2
VIBM480
p681
sasg17
V4822
p682
sg2
VINTERNL BUS & MARKET
p683
sg24
VIBM
p684
sa(dp685
g7
(lp686
(dp687
g10
(lp688
(dp689
g13
VLAMPHIER
p690
sg15
(lp691
(dp692
g34
L9780553212471L
sg35
VShelley
p693
sg37
g38
sg39
VFrankenstein
p694
sg41
Nsg42
Nsg43
F4.95
sa(dp695
g34
L9780449220603L
sg35
VPiercy
p696
sg37
g38
sg39
VHe, She & It (Rack Size)
p697
sg41
Nsg42
Nsg43
F7.5
sasg17
V379919
p698
sg2
g19
sasg17
V97968
p699
sg2
VIGE320
p700
sasg17
V4712
p701
sg2
VINTERDISPL GEN EDUC
p702
sg24
VIGE
p703
sa(dp704
g7
(lp705
(dp706
g10
(lp707
(dp708
g13
VMOUSTAFA
p709
sg15
(lp710
sg17
V367780
p711
sg2
g156
sa(dp712
g13
g709
sg15
(lp713
sg17
V367781
p714
sg2
V02
p715
sasg17
V97981
p716
sg2
VKIN403L
p717
sasg17
V4806
p718
sg2
VKINESIOLOGY
p719
sg24
VKIN
p720
sa(dp721
g7
(lp722
(dp723
g10
(lp724
(dp725
g13
VKRINIK
p726
sg15
(lp727
(dp728
g34
L9780321390530L
sg35
VChartrand
p729
sg37
g38
sg39
VMathematical Proofs
p730
sg41
g99
sg42
g57
sg43
F124.0
sa(dp731
g34
L9780321549631L
sg35
VChartrand (Db*)
p732
sg37
g79
sg39
VMathematical Proofs (Coursesmart Digital)
p733
sg41
g81
sg42
g57
sg43
F51.0
sasg17
V367818
p734
sg2
g19
sasg17
V98001
p735
sg2
VMAT310
p736
sasg17
V4719
p737
sg2
VMATHEMATICS
p738
sg24
VMAT
p739
sa(dp740
g7
(lp741
(dp742
g10
(lp743
(dp744
g13
VDINSMORE
p745
sg15
(lp746
sg17
V379955
p747
sg2
g19
sasg17
V98026
p748
sg2
VME439L
p749
sasg17
V4821
p750
sg2
VMECHANICAL ENGR
p751
sg24
VME
p752
sa(dp753
g7
(lp754
(dp755
g10
(lp756
(dp757
g13
VDAVIS JR
p758
sg15
(lp759
sg17
V367853
p760
sg2
g19
sa(dp761
g13
g758
sg15
(lp762
sg17
V367854
p763
sg2
g135
sasg17
V98028
p764
sg2
VMFE201L
p765
sasg17
V4721
p766
sg2
VMANUFACTURING ENGR
p767
sg24
VMFE
p768
sa(dp769
g7
(lp770
(dp771
g10
(lp772
(dp773
g13
VEdward
p774
sg15
(lp775
(dp776
g34
L9781578514861L
sg35
VGoleman
p777
sg37
g38
sg39
VPrimal Leadership
p778
sg41
Nsg42
Nsg43
F26.95
sa(dp779
g34
L9780060835910L
sg35
VRock
p780
sg37
g38
sg39
VQuiet Leadership
p781
sg41
Nsg42
Nsg43
F16.0
sa(dp782
g34
L9780787984915L
sg35
VKouzes
p783
sg37
g38
sg39
VLeadership Challenge
p784
sg41
g99
sg42
g399
sg43
F29.95
sasg17
V379969
p785
sg2
g19
sasg17
V99413
p786
sg2
VMHR450
p787
sasg17
V4823
p788
sg2
VMGMT & HUMAN RESOUR
p789
sg24
VMHR
p790
sa(dp791
g7
(lp792
(dp793
g10
(lp794
(dp795
g13
g183
sg15
(lp796
sg17
V367856
p797
sg2
g19
sa(dp798
g13
g183
sg15
(lp799
sg17
V367857
p800
sg2
g135
sa(dp801
g13
g183
sg15
(lp802
sg17
V367858
p803
sg2
VE-04
p804
sasg17
V98030
p805
sg2
VMIC201L
p806
sasg17
V4814
p807
sg2
VMICROBIOLOGY
p808
sg24
VMIC
p809
sa(dp810
g7
(lp811
(dp812
g10
(lp813
(dp814
g13
VEMERSON
p815
sg15
(lp816
sg17
V379970
p817
sg2
g19
sasg17
V99425
p818
sg2
VMPA599
p819
sasg17
V4824
p820
sg2
VMASTERS OF PUBLIC AD
p821
sg24
VMPA
p822
sa(dp823
g7
(lp824
(dp825
g10
(lp826
(dp827
g13
VRAVI
p828
sg15
(lp829
sg17
V383411
p830
sg2
g156
sasg17
V100773
p831
sg2
VMTE207
p832
sasg17
V4726
p833
sg2
VMATERIALS ENGR
p834
sg24
VMTE
p835
sa(dp836
g7
(lp837
(dp838
g10
(lp839
(dp840
g13
VWINER
p841
sg15
(lp842
sg17
V380111
p843
sg2
g19
sasg17
V99416
p844
sg2
VMU392
p845
sasg17
V4727
p846
sg2
VMUSIC
p847
sg24
VMU
p848
sa(dp849
g7
(lp850
(dp851
g10
(lp852
(dp853
g13
VMARKLE
p854
sg15
(lp855
(dp856
g34
L9780495603955L
sg35
VSinnott-Armstrong
p857
sg37
g38
sg39
VUnderstanding Arguments:An Introduction To Informal Log
p858
sg41
g56
sg42
g100
sg43
F70.5
sa(dp859
g34
L9781439023846L
sg35
VSinnott-Armstrong (Db*)
p860
sg37
g79
sg39
VUnderstanding Arguments (Coursesmart)
p861
sg41
g81
sg42
g100
sg43
F44.5
sasg17
V370486
p862
sg2
g156
sasg17
V99349
p863
sg2
VPHL202
p864
sasg17
V4728
p865
sg2
VPHILOSOPHY
p866
sg24
VPHL
p867
sa(dp868
g7
(lp869
(dp870
g10
(lp871
(dp872
g13
VMYLANDER
p873
sg15
(lp874
sg17
V367870
p875
sg2
g59
sa(dp876
g13
g415
sg15
(lp877
sg17
V379821
p878
sg2
g66
sasg17
V98042
p879
sg2
VPHY133L
p880
sasg17
V4828
p881
sg2
VPHYSICS
p882
sg24
VPHY
p883
sa(dp884
g7
(lp885
(dp886
g10
(lp887
(dp888
g13
g815
sg15
(lp889
sg17
V379978
p890
sg2
g19
sasg17
V99420
p891
sg2
VPLS205A
p892
sasg17
V4825
p893
sg2
VPOLITICAL SCIENCE
p894
sg24
VPLS
p895
sa(dp896
g7
(lp897
(dp898
g10
(lp899
(dp900
g13
VKaufmann
p901
sg15
(lp902
(dp903
g34
L9780738003351L
sg35
VKaae
p904
sg37
g38
sg39
VTravels With My Antlion (Agb 300)
p905
sg41
g398
sg42
V5R
p906
sg43
F44.55
sasg17
V370485
p907
sg2
g19
sasg17
V99348
p908
sg2
VPLT300
p909
sasg17
V4826
p910
sg2
VPLANT SCIENCES
p911
sg24
VPLT
p912
sa(dp913
g7
(lp914
(dp915
g10
(lp916
(dp917
g13
VHORNER
p918
sg15
(lp919
sg17
V367877
p920
sg2
g19
sasg17
V98048
p921
sg2
VPSY460A
p922
sasg17
V4829
p923
sg2
VPSYCHOLOGY
p924
sg24
VPSY
p925
sa(dp926
g7
(lp927
(dp928
g10
(lp929
(dp930
g13
g183
sg15
(lp931
(dp932
g34
L9780761929949L
sg35
VBeckett
p933
sg37
g38
sg39
VPolitics Of Injustice
p934
sg41
g56
sg42
g57
sg43
F53.0
sa(dp935
g34
L9780802141446L
sg35
VShakur
p936
sg37
g38
sg39
VMonster
p937
sg41
Nsg42
Nsg43
F14.95
sa(dp938
g34
L9781583227435L
sg35
VLoo
p939
sg37
g38
sg39
VImpeach The President
p940
sg41
g56
sg42
V97
p941
sg43
F17.95
sa(dp942
g34
L9780132350068L
sg35
VBarkan
p943
sg37
g38
sg39
VCriminology
p944
sg41
g99
sg42
g399
sg43
F120.05
sa(dp945
g34
L9780135031834L
sg35
VBarkan (Db*)
p946
sg37
g79
sg39
VCriminology (Coursesmart Digital)
p947
sg41
g81
sg42
g399
sg43
F64.0
sasg17
V367879
p948
sg2
g19
sasg17
V98050
p949
sg2
VSOC302
p950
sasg17
V4830
p951
sg2
VSOCIOLOGY
p952
sg24
VSOC
p953
sa(dp954
g7
(lp955
(dp956
g10
(lp957
(dp958
g13
VDICKSON
p959
sg15
(lp960
(dp961
g34
L9781428250246L
sg35
VLong* (Sw2)
p962
sg37
g38
sg39
VNexos Custom Vol 1 W/Ilrn Access Code
p963
sg41
VKit/Set/Package
p964
sg42
g57
sg43
F125.6
sa(dp965
g34
L9781111006990L
sg35
VLong*
p966
sg37
g658
sg39
VNexos Custom Vol 1  (Acp For Cpp) 1111006997
p967
sg41
g56
sg42
g57
sg43
F80.0
sasg17
V367880
p968
sg2
g19
sa(dp969
g13
VVogel
p970
sg15
(lp971
(dp972
g34
L9781428250246L
sg35
g962
sg37
g38
sg39
g963
sg41
g964
sg42
g57
sg43
F125.6
sa(dp973
g34
L9781111006990L
sg35
g966
sg37
g658
sg39
g967
sg41
g56
sg42
g57
sg43
F80.0
sasg17
V367881
p974
sg2
g135
sasg17
V98051
p975
sg2
VSPN151
p976
sasg17
V4736
p977
sg2
VSPANISH
p978
sg24
VSPN
p979
sa(dp980
g7
(lp981
(dp982
g10
(lp983
(dp984
g13
VGILL
p985
sg15
(lp986
(dp987
g34
L9780321640772L
sg35
VJohnson
p988
sg37
g38
sg39
VMiller & Freund's Prob & Stats For Engineers
p989
sg41
g99
sg42
g100
sg43
F150.0
sa(dp990
g34
L9780321641724L
sg35
VJohnson (Db*)
p991
sg37
g79
sg39
VMiller & Freunds Probability & Statistics For Engrs (Coursesmart)
p992
sg41
g81
sg42
g100
sg43
F64.0
sasg17
V367885
p993
sg2
g19
sasg17
V98053
p994
sg2
VSTA309
p995
sasg17
V4739
p996
sg2
VSTATISTICS
p997
sg24
VSTA
p998
sa(dp999
g7
(lp1000
(dp1001
g10
(lp1002
(dp1003
g13
g183
sg15
(lp1004
sg17
V380207
p1005
sg2
g156
sasg17
V100649
p1006
sg2
VTED441
p1007
sasg17
V4831
p1008
sg2
VTEACHER EDUCATION
p1009
sg24
VTED
p1010
sa(dp1011
g7
(lp1012
(dp1013
g10
(lp1014
(dp1015
g13
VBISESTI
p1016
sg15
(lp1017
sg17
V379982
p1018
sg2
g19
sasg17
V99424
p1019
sg2
VTH441L
p1020
sasg17
V4742
p1021
sg2
VTHEATRE
p1022
sg24
VTH
p1023
sa(dp1024
g7
(lp1025
(dp1026
g10
(lp1027
(dp1028
g13
g589
sg15
(lp1029
(dp1030
g34
L9781450068925L
sg35
VRhodes
p1031
sg37
g38
sg39
VReport Writing: A Survival Guide
p1032
sg41
Nsg42
Nsg43
F16.0
sa(dp1033
g34
L9780136006695L
sg35
VHunger
p1034
sg37
g38
sg39
VEssentials Of Strategic Management
p1035
sg41
g56
sg42
g151
sg43
F104.0
sa(dp1036
g34
L9780135100004L
sg35
VHunger (Db*)
p1037
sg37
g79
sg39
VEssentials Of Strategic Management (Coursesmart)
p1038
sg41
g81
sg42
g151
sg43
F42.0
sasg17
V367898
p1039
sg2
g19
sasg17
V98062
p1040
sg2
VTOM411
p1041
sasg17
V4809
p1042
sg2
VTECH & OPER MGMT
p1043
sg24
VTOM
p1044
sa(dp1045
g7
(lp1046
(dp1047
g10
(lp1048
(dp1049
g13
VDELGADO
p1050
sg15
(lp1051
sg17
V367902
p1052
sg2
g19
sa(dp1053
g13
VZIMMER
p1054
sg15
(lp1055
sg17
V367903
p1056
sg2
g135
sasg17
V98065
p1057
sg2
VURP499
p1058
sasg17
V4744
p1059
sg2
VURBAN & REG PLANNING
p1060
sg24
VURP
p1061
sa(dp1062
g7
(lp1063
(dp1064
g10
(lp1065
(dp1066
g13
g183
sg15
(lp1067
sg17
V367910
p1068
sg2
g19
sa(dp1069
g13
g183
sg15
(lp1070
sg17
V367911
p1071
sg2
g135
sa(dp1072
g13
g183
sg15
(lp1073
sg17
V367912
p1074
sg2
g454
sa(dp1075
g13
g183
sg15
(lp1076
sg17
V367913
p1077
sg2
g804
sasg17
V98069
p1078
sg2
VZOO235L
p1079
sasg17
V4745
p1080
sg2
VZOOLOGY
p1081
sg24
VZOO
p1082
sasa.