(lp0
(dp1
S'name'
p2
VSUMMER 2012
p3
sS'departments'
p4
(lp5
(dp6
S'courses'
p7
(lp8
(dp9
S'sections'
p10
(lp11
(dp12
S'instructor'
p13
VSTAFF
p14
sS'books'
p15
(lp16
(dp17
S'ISBN'
p18
I9781256729952
sS'author'
p19
VHarrison*
p20
sS'isRequired'
p21
VRequired
p22
sS'title'
p23
VFinancial Accounting W/Quickbooks Pro & Myaccountinglab
p24
sS'binding'
p25
VKit/Set/Package
p26
sS'edition'
p27
V8
p28
sS'broncoListPrice'
p29
F140.15
sa(dp30
g18
I9780137024315
sg19
VHarrison
p31
sg21
VPart of Set
p32
sg23
VFinancial Accounting Sve
p33
sg25
VLooseleaf
p34
sg27
g28
sg29
F126.25
sa(dp35
g18
I9780132970907
sg19
VPearson
p36
sg21
VPart of Set
p37
sg23
VMyacctglab W/Ebook
p38
sg25
Nsg27
Nsg29
F123.55
sa(dp39
g18
I9780132166638
sg19
VHorne
p40
sg21
VPart of Set
p41
sg23
VQuickbooks Pro 2010 Comp Crs (W/Cd Only)
p42
sg25
Nsg27
Nsg29
F137.5
sasS'id'
p43
V379834
p44
sg2
VE-01
p45
sasg43
V97931
p46
sg2
VACC207
p47
sa(dp48
g10
(lp49
(dp50
g13
VSTAFF
p51
sg15
(lp52
(dp53
g18
I9781256432364
sg19
VBraun*
p54
sg21
VRequired
p55
sg23
VManagerial Accounting W/Myaccountinglab (Custom)
p56
sg25
Nsg27
Nsg29
F130.4
sa(dp57
g18
I9781256366133
sg19
VBraun
p58
sg21
VPart of Set
p59
sg23
VManagerial Accounting (Custom)
p60
sg25
Nsg27
Nsg29
F124.8
sa(dp61
g18
I9780132920230
sg19
VPearson
p62
sg21
VPart of Set
p63
sg23
VMyaccountinglab T/A Managerial Accounting (New)
p64
sg25
Nsg27
Nsg29
F117.65
sasg43
V379836
p65
sg2
VE-01
p66
sasg43
V97770
p67
sg2
VACC208
p68
sa(dp69
g10
(lp70
(dp71
g13
VMARTIN
p72
sg15
(lp73
(dp74
g18
I9780912503271
sg19
VArens
p75
sg21
VRequired
p76
sg23
VSystems Understanding Aid
p77
sg25
VPaperback
p78
sg27
V7
p79
sg29
F57.0
sa(dp80
g18
I9780132552622
sg19
VRomney
p81
sg21
VRequired
p82
sg23
VAccounting Information Systems
p83
sg25
VHardback
p84
sg27
V12
p85
sg29
F218.75
sa(dp86
g18
I9781439079010
sg19
VShelly
p87
sg21
VRequired
p88
sg23
VMicrosoft Excel 2010 Comprehensive
p89
sg25
Nsg27
Nsg29
F131.9
sa(dp90
g18
I9780136068600
sg19
VMay (Db*)
p91
sg21
VOptional
p92
sg23
VEffective Writing: Handbook For Accountants (Coursesmart Digital)
p93
sg25
VEbook
p94
sg27
g28
sg29
F24.0
sa(dp95
g18
I9780132552639
sg19
VRomney (Db*)
p96
sg21
VOptional
p97
sg23
VAccounting Information Systems (Coursesmart)
p98
sg25
VEbook
p99
sg27
V12
p100
sg29
F93.0
sa(dp101
g18
I9781111548216
sg19
VShelly (Db*)
p102
sg21
VOptional
p103
sg23
VMicrosoft Excel 2010 (Coursesmart)
p104
sg25
Nsg27
Nsg29
F52.0
sasg43
V379838
p105
sg2
VE-01
p106
sasg43
V97772
p107
sg2
VACC304
p108
sa(dp109
g10
(lp110
(dp111
g13
VMARTIN
p112
sg15
(lp113
(dp114
g18
I9780072404296
sg19
VDunn
p115
sg21
VRequired
p116
sg23
VEnterprise Information Systems
p117
sg25
VHardback
p118
sg27
V3
p119
sg29
F184.7
sa(dp120
g18
I9781439079027
sg19
VShelly
p121
sg21
VRequired
p122
sg23
VMicrosoft Access 2010 Comprehensive
p123
sg25
Nsg27
Nsg29
F122.35
sa(dp124
g18
I9781111548643
sg19
VShelly (Db*)
p125
sg21
VOptional
p126
sg23
VMicrosoft Access 2010 (Coursesmart)
p127
sg25
Nsg27
Nsg29
F52.0
sasg43
V379839
p128
sg2
VE-01
p129
sasg43
V97773
p130
sg2
VACC305
p131
sa(dp132
g10
(lp133
(dp134
g13
VAHADIAT
p135
sg15
(lp136
(dp137
g18
I9780132960649
sg19
VHorngren*
p138
sg21
VRequired
p139
sg23
VCost Accounting W/Myaccountinglab & Etext Access Code
p140
sg25
VKit/Set/Package
p141
sg27
V14
p142
sg29
F225.0
sa(dp143
g18
I9780132109949
sg19
VHorngren (Db*)
p144
sg21
VOptional
p145
sg23
VCost Accounting (Coursesmart)
p146
sg25
VEbook
p147
sg27
V14
p148
sg29
F93.0
sa(dp149
g18
I9780132109178
sg19
VHorngren
p150
sg21
VPart of Set
p151
sg23
VCost Accounting
p152
sg25
VHardback
p153
sg27
V14
p154
sg29
F200.0
sa(dp155
g18
I9780132914451
sg19
VPearson
p156
sg21
VPart of Set
p157
sg23
VMyaccountinglab W/Etext
p158
sg25
Nsg27
Nsg29
F117.65
sasg43
V379840
p159
sg2
VE-01
p160
sasg43
V97774
p161
sg2
VACC307
p162
sa(dp163
g10
(lp164
(dp165
g13
VHEFZI
p166
sg15
(lp167
(dp168
g18
I9780077585402
sg19
VSpiceland*
p169
sg21
VRequired
p170
sg23
VIntermediate Accounting (Custom) W/Connect Plus & Annual Report
p171
sg25
VKit/Set/Package
p172
sg27
V6
p173
sg29
F145.35
sa(dp174
g18
I9780077328962
sg19
VSpiceland (Db*)
p175
sg21
VOptional
p176
sg23
VIntermediate Accounting (Coursesmart)
p177
sg25
VEbook
p178
sg27
g173
sg29
F137.25
sa(dp179
g18
I9780077585389
sg19
VSpiceland
p180
sg21
VPart of Set
p181
sg23
VIntermediate Accounting (Custom)
p182
sg25
VHardback
p183
sg27
g173
sg29
F121.0
sa(dp184
g18
I9780077585396
sg19
VSpiceland
p185
sg21
VPart of Set
p186
sg23
VConnect Code T/A Intermediate Accounting
p187
sg25
Nsg27
Nsg29
F99.55
sasg43
V367421
p188
sg2
V02
p189
sa(dp190
g13
VHEFZI
p191
sg15
(lp192
(dp193
g18
I9780077585402
sg19
VSpiceland*
p194
sg21
VRequired
p195
sg23
VIntermediate Accounting (Custom) W/Connect Plus & Annual Report
p196
sg25
VKit/Set/Package
p197
sg27
g173
sg29
F145.35
sa(dp198
g18
I9780077328962
sg19
VSpiceland (Db*)
p199
sg21
VOptional
p200
sg23
VIntermediate Accounting (Coursesmart)
p201
sg25
VEbook
p202
sg27
g173
sg29
F137.25
sa(dp203
g18
I9780077585389
sg19
VSpiceland
p204
sg21
VPart of Set
p205
sg23
VIntermediate Accounting (Custom)
p206
sg25
VHardback
p207
sg27
g173
sg29
F121.0
sa(dp208
g18
I9780077585396
sg19
VSpiceland
p209
sg21
VPart of Set
p210
sg23
VConnect Code T/A Intermediate Accounting
p211
sg25
Nsg27
Nsg29
F99.55
sasg43
V379841
p212
sg2
VE-01
p213
sasg43
V97775
p214
sg2
VACC311
p215
sa(dp216
g10
(lp217
(dp218
g13
VPAK
p219
sg15
(lp220
(dp221
g18
I9780077585402
sg19
VSpiceland*
p222
sg21
VRequired
p223
sg23
VIntermediate Accounting (Custom) W/Connect Plus & Annual Report
p224
sg25
VKit/Set/Package
p225
sg27
g173
sg29
F145.35
sa(dp226
g18
I9780077328962
sg19
VSpiceland (Db*)
p227
sg21
VOptional
p228
sg23
VIntermediate Accounting (Coursesmart)
p229
sg25
VEbook
p230
sg27
g173
sg29
F137.25
sa(dp231
g18
I9780077585389
sg19
VSpiceland
p232
sg21
VPart of Set
p233
sg23
VIntermediate Accounting (Custom)
p234
sg25
VHardback
p235
sg27
g173
sg29
F121.0
sa(dp236
g18
I9780077585396
sg19
VSpiceland
p237
sg21
VPart of Set
p238
sg23
VConnect Code T/A Intermediate Accounting
p239
sg25
Nsg27
Nsg29
F99.55
sasg43
V379842
p240
sg2
VE-01
p241
sa(dp242
g13
VHEFZI
p243
sg15
(lp244
(dp245
g18
I9780077585402
sg19
VSpiceland*
p246
sg21
VRequired
p247
sg23
VIntermediate Accounting (Custom) W/Connect Plus & Annual Report
p248
sg25
VKit/Set/Package
p249
sg27
g173
sg29
F145.35
sa(dp250
g18
I9780077328962
sg19
VSpiceland (Db*)
p251
sg21
VOptional
p252
sg23
VIntermediate Accounting (Coursesmart)
p253
sg25
VEbook
p254
sg27
g173
sg29
F137.25
sa(dp255
g18
I9780077585389
sg19
VSpiceland
p256
sg21
VPart of Set
p257
sg23
VIntermediate Accounting (Custom)
p258
sg25
VHardback
p259
sg27
g173
sg29
F121.0
sa(dp260
g18
I9780077585396
sg19
VSpiceland
p261
sg21
VPart of Set
p262
sg23
VConnect Code T/A Intermediate Accounting
p263
sg25
Nsg27
Nsg29
F99.55
sasg43
V379843
p264
sg2
VE-02
p265
sasg43
V97776
p266
sg2
VACC312
p267
sa(dp268
g10
(lp269
(dp270
g13
VPAK
p271
sg15
(lp272
(dp273
g18
I9780077585402
sg19
VSpiceland*
p274
sg21
VRequired
p275
sg23
VIntermediate Accounting (Custom) W/Connect Plus & Annual Report
p276
sg25
VKit/Set/Package
p277
sg27
g173
sg29
F145.35
sa(dp278
g18
I9780077328962
sg19
VSpiceland (Db*)
p279
sg21
VOptional
p280
sg23
VIntermediate Accounting (Coursesmart)
p281
sg25
VEbook
p282
sg27
g173
sg29
F137.25
sa(dp283
g18
I9780077585389
sg19
VSpiceland
p284
sg21
VPart of Set
p285
sg23
VIntermediate Accounting (Custom)
p286
sg25
VHardback
p287
sg27
g173
sg29
F121.0
sa(dp288
g18
I9780077585396
sg19
VSpiceland
p289
sg21
VPart of Set
p290
sg23
VConnect Code T/A Intermediate Accounting
p291
sg25
Nsg27
Nsg29
F99.55
sasg43
V379844
p292
sg2
VE-01
p293
sa(dp294
g13
VPAK
p295
sg15
(lp296
(dp297
g18
I9780077585402
sg19
VSpiceland*
p298
sg21
VRequired
p299
sg23
VIntermediate Accounting (Custom) W/Connect Plus & Annual Report
p300
sg25
VKit/Set/Package
p301
sg27
g173
sg29
F145.35
sa(dp302
g18
I9780077328962
sg19
VSpiceland (Db*)
p303
sg21
VOptional
p304
sg23
VIntermediate Accounting (Coursesmart)
p305
sg25
VEbook
p306
sg27
g173
sg29
F137.25
sa(dp307
g18
I9780077585389
sg19
VSpiceland
p308
sg21
VPart of Set
p309
sg23
VIntermediate Accounting (Custom)
p310
sg25
VHardback
p311
sg27
g173
sg29
F121.0
sa(dp312
g18
I9780077585396
sg19
VSpiceland
p313
sg21
VPart of Set
p314
sg23
VConnect Code T/A Intermediate Accounting
p315
sg25
Nsg27
Nsg29
F99.55
sasg43
V379845
p316
sg2
VE-02
p317
sasg43
V97777
p318
sg2
VACC313
p319
sa(dp320
g10
(lp321
(dp322
g13
VSALIMI
p323
sg15
(lp324
(dp325
g18
I9780138018818
sg19
VLaudon
p326
sg21
VRequired
p327
sg23
VE-Commerce Business, Technology, Society 2012
p328
sg25
Nsg27
Nsg29
F184.0
sa(dp329
g18
I9780132146142
sg19
VLaudon (Db*)
p330
sg21
VOptional
p331
sg23
VE-Commerce: Business, Technology, Society (Coursesmart)
p332
sg25
VEbook
p333
sg27
g28
sg29
F78.0
sasg43
V379846
p334
sg2
VE-01
p335
sa(dp336
g13
VSALIMI
p337
sg15
(lp338
(dp339
g18
I9780138018818
sg19
VLaudon
p340
sg21
VRequired
p341
sg23
VE-Commerce Business, Technology, Society 2012
p342
sg25
Nsg27
Nsg29
F184.0
sa(dp343
g18
I9780132146142
sg19
VLaudon (Db*)
p344
sg21
VOptional
p345
sg23
VE-Commerce: Business, Technology, Society (Coursesmart)
p346
sg25
VEbook
p347
sg27
g28
sg29
F78.0
sasg43
V379847
p348
sg2
VE-02
p349
sasg43
V97778
p350
sg2
VACC405
p351
sa(dp352
g10
(lp353
(dp354
g13
VAHADIAT
p355
sg15
(lp356
(dp357
g18
I9780132960649
sg19
VHorngren*
p358
sg21
VRequired
p359
sg23
VCost Accounting W/Myaccountinglab & Etext Access Code
p360
sg25
VKit/Set/Package
p361
sg27
V14
p362
sg29
F225.0
sa(dp363
g18
I9780132109949
sg19
VHorngren (Db*)
p364
sg21
VOptional
p365
sg23
VCost Accounting (Coursesmart)
p366
sg25
VEbook
p367
sg27
V14
p368
sg29
F93.0
sa(dp369
g18
I9780132109178
sg19
VHorngren
p370
sg21
VPart of Set
p371
sg23
VCost Accounting
p372
sg25
VHardback
p373
sg27
V14
p374
sg29
F200.0
sa(dp375
g18
I9780132914451
sg19
VPearson
p376
sg21
VPart of Set
p377
sg23
VMyaccountinglab W/Etext
p378
sg25
Nsg27
Nsg29
F117.65
sasg43
V379848
p379
sg2
VE-01
p380
sasg43
V97779
p381
sg2
VACC412
p382
sa(dp383
g10
(lp384
(dp385
g13
VSALIMI
p386
sg15
(lp387
(dp388
g18
I9780137024971
sg19
VAtkinson
p389
sg21
VRequired
p390
sg23
VManagement Accounting
p391
sg25
VHardback
p392
sg27
g173
sg29
F221.9
sa(dp393
g18
I9780137024988
sg19
VAtkinson (Db*)
p394
sg21
VOptional
p395
sg23
VManagement Accounting (Coursesmart)
p396
sg25
VEbook
p397
sg27
g173
sg29
F93.0
sasg43
V379849
p398
sg2
VE-01
p399
sasg43
V97780
p400
sg2
VACC413
p401
sa(dp402
g10
(lp403
(dp404
g13
VSTAFF
p405
sg15
(lp406
(dp407
g18
I9781256430735
sg19
VBeasley*
p408
sg21
VRequired
p409
sg23
VAuditing & Assurance Services W/Auditing Cases(5Th)
p410
sg25
Nsg27
Nsg29
F168.65
sa(dp411
g18
I9780132556743
sg19
VBeasley (Db*)
p412
sg21
VOptional
p413
sg23
VAuditing Cases (Coursesmart)
p414
sg25
VEbook
p415
sg27
V5
p416
sg29
F24.0
sa(dp417
g18
I9781256349808
sg19
VArens
p418
sg21
VPart of Set
p419
sg23
VAuditing And Assurance Services
p420
sg25
Nsg27
Nsg29
F135.4
sa(dp421
g18
I9780132567237
sg19
VBeasley
p422
sg21
VPart of Set
p423
sg23
VAuditing Cases
p424
sg25
VPaperback
p425
sg27
g416
sg29
F60.0
sasg43
V379850
p426
sg2
VE-01
p427
sasg43
V97781
p428
sg2
VACC419
p429
sa(dp430
g10
(lp431
(dp432
g13
VSTAFF
p433
sg15
(lp434
(dp435
g18
I9781133160571
sg19
VHoffman*
p436
sg21
VRequired
p437
sg23
VSouth-Western Federal Taxation 2012 W/Software, Ria, Cpa Excel, & Aplia (35Th)
p438
sg25
Nsg27
Nsg29
F281.25
sa(dp439
g18
I9781111546854
sg19
VHoffman (Db*)
p440
sg21
VOptional
p441
sg23
VSouth Western Federal Taxation 2012 (Coursesmart)
p442
sg25
Nsg27
Nsg29
F126.5
sa(dp443
g18
I9781111221706
sg19
VHoffman
p444
sg21
VPart of Set
p445
sg23
VSouth-Western Federal Taxation 2012, 35Th Ed.
p446
sg25
Nsg27
Nsg29
F234.05
sa(dp447
g18
I9781133049197
sg19
VCengage
p448
sg21
VPart of Set
p449
sg23
VAplia Two-Semester Access Code T/A South-Western Federal Taxation 2012
p450
sg25
Nsg27
Nsg29
F120.0
sasg43
V379851
p451
sg2
VE-01
p452
sasg43
V97782
p453
sg2
VACC431
p454
sa(dp455
g10
(lp456
(dp457
g13
VAHADIAT
p458
sg15
(lp459
sg43
V379835
p460
sg2
VE-01
p461
sasg43
V97769
p462
sg2
VACC207A
p463
sa(dp464
g10
(lp465
(dp466
g13
VAHADIAT
p467
sg15
(lp468
sg43
V379837
p469
sg2
VE-01
p470
sasg43
V97771
p471
sg2
VACC208A
p472
sasS'abrev'
p473
VACC
p474
sg43
V4815
p475
sg2
VACCOUNTING
p476
sa(dp477
g7
(lp478
(dp479
g10
(lp480
(dp481
g13
VPHILLIPS
p482
sg15
(lp483
sg43
V367432
p484
sg2
VE-21
p485
sasg43
V97783
p486
sg2
VAG101
p487
sa(dp488
g10
(lp489
(dp490
g13
VMATHIAS
p491
sg15
(lp492
(dp493
g18
I9780195306200
sg19
VWeston
p494
sg21
VRequired
p495
sg23
VCreative Problem-Solving In Ethics
p496
sg25
Nsg27
Nsg29
F19.95
sa(dp497
g18
I9781405111546
sg19
VDriver
p498
sg21
VRequired
p499
sg23
VEthics
p500
sg25
Nsg27
Nsg29
F29.95
sasg43
V367433
p501
sg2
VE-01
p502
sa(dp503
g13
VMERLINO
p504
sg15
(lp505
(dp506
g18
I9780195306200
sg19
VWeston
p507
sg21
VRequired
p508
sg23
VCreative Problem-Solving In Ethics
p509
sg25
Nsg27
Nsg29
F19.95
sa(dp510
g18
I9781405111546
sg19
VDriver
p511
sg21
VRequired
p512
sg23
VEthics
p513
sg25
Nsg27
Nsg29
F29.95
sa(dp514
g18
I9780923568962
sg19
VHoughton
p515
sg21
VRequired
p516
sg23
VApa: The Easy Way!
p517
sg25
VPaperback
p518
sg27
V2
p519
sg29
F10.95
sasg43
V367434
p520
sg2
VE-11
p521
sa(dp522
g13
VMERLINO
p523
sg15
(lp524
(dp525
g18
I9780195306200
sg19
VWeston
p526
sg21
VRequired
p527
sg23
VCreative Problem-Solving In Ethics
p528
sg25
Nsg27
Nsg29
F19.95
sa(dp529
g18
I9781405111546
sg19
VDriver
p530
sg21
VRequired
p531
sg23
VEthics
p532
sg25
Nsg27
Nsg29
F29.95
sa(dp533
g18
I9780923568962
sg19
VHoughton
p534
sg21
VRequired
p535
sg23
VApa: The Easy Way!
p536
sg25
VPaperback
p537
sg27
g519
sg29
F10.95
sasg43
V367435
p538
sg2
VE-12
p539
sa(dp540
g13
VPHILLIPS
p541
sg15
(lp542
(dp543
g18
I9780073386713
sg19
VRachels
p544
sg21
VRequired
p545
sg23
VElements Of Moral Philosophy
p546
sg25
VPaperback
p547
sg27
g173
sg29
F55.0
sa(dp548
g18
I9780787985387
sg19
VUkens
p549
sg21
VRequired
p550
sg23
VWhat Would You Do? Workbook
p551
sg25
Nsg27
Nsg29
F15.0
sa(dp552
g18
I9780077318499
sg19
VRachels (Db*)
p553
sg21
VOptional
p554
sg23
VElements Of Moral Philosophy (Coursesmart)
p555
sg25
VEbook
p556
sg27
g173
sg29
F29.0
sasg43
V367436
p557
sg2
VE-22
p558
sasg43
V97784
p559
sg2
VAG401
p560
sasg473
VAG
p561
sg43
V4748
p562
sg2
VAGRICULTURAL SCIENCE
p563
sa(dp564
g7
(lp565
(dp566
g10
(lp567
(dp568
g13
VTUCKER,
p569
sg15
(lp570
sg43
V379881
p571
sg2
VE-01
p572
sasg43
V99381
p573
sg2
VAMM108
p574
sa(dp575
g10
(lp576
(dp577
g13
VDabas
p578
sg15
(lp579
sg43
V367439
p580
sg2
VE-01
p581
sasg43
V97787
p582
sg2
VAMM250
p583
sa(dp584
g10
(lp585
(dp586
g13
VPARISE
p587
sg15
(lp588
(dp589
g18
I9781609011536
sg19
VBell
p590
sg21
VRequired
p591
sg23
VSilent Selling
p592
sg25
VPaperback
p593
sg27
V4
p594
sg29
F88.5
sasg43
V367440
p595
sg2
VE-01
p596
sasg43
V97788
p597
sg2
VAMM270
p598
sa(dp599
g10
(lp600
(dp601
g13
VTUCKER,
p602
sg15
(lp603
(dp604
g18
I9781609011062
sg19
VKunz
p605
sg21
VRequired
p606
sg23
VGoing Global
p607
sg25
VPaperback
p608
sg27
g519
sg29
F88.0
sasg43
V367442
p609
sg2
VE-01
p610
sasg43
V97790
p611
sg2
VAMM357
p612
sa(dp613
g10
(lp614
(dp615
g13
VTUCKER,
p616
sg15
(lp617
(dp618
g18
I9781609011062
sg19
VKunz
p619
sg21
VRequired
p620
sg23
VGoing Global
p621
sg25
VPaperback
p622
sg27
g519
sg29
F88.0
sasg43
V367443
p623
sg2
VE-01
p624
sasg43
V97791
p625
sg2
VAMM380
p626
sa(dp627
g10
(lp628
(dp629
g13
VTUCKER,
p630
sg15
(lp631
(dp632
g18
I9780073530024
sg19
VLevy
p633
sg21
VRequired
p634
sg23
VRetailing Management
p635
sg25
VHardback
p636
sg27
g28
sg29
F196.25
sasg43
V367445
p637
sg2
VE-01
p638
sasg43
V97793
p639
sg2
VAMM496
p640
sa(dp641
g10
(lp642
(dp643
g13
VPARISE
p644
sg15
(lp645
sg43
V367438
p646
sg2
VE-01
p647
sasg43
V97786
p648
sg2
VAMM112L
p649
sa(dp650
g10
(lp651
(dp652
g13
VPARISE
p653
sg15
(lp654
sg43
V367441
p655
sg2
VE-01
p656
sasg43
V97789
p657
sg2
VAMM270A
p658
sa(dp659
g10
(lp660
(dp661
g13
VTUCKER
p662
sg15
(lp663
sg43
V367444
p664
sg2
VE-01
p665
sasg43
V97792
p666
sg2
VAMM380L
p667
sa(dp668
g10
(lp669
(dp670
g13
VTUCKER,
p671
sg15
(lp672
(dp673
g18
I9780073530024
sg19
VLevy
p674
sg21
VRequired
p675
sg23
VRetailing Management
p676
sg25
VHardback
p677
sg27
g28
sg29
F196.25
sasg43
V367446
p678
sg2
VE-01
p679
sasg43
V97794
p680
sg2
VAMM497A
p681
sasg473
VAMM
p682
sg43
V4807
p683
sg2
VAPPAREL MERCH & MGMT
p684
sa(dp685
g7
(lp686
(dp687
g10
(lp688
(dp689
g13
VRACHELE
p690
sg15
(lp691
(dp692
g18
I9781111830007
sg19
VAndreatta
p693
sg21
VRequired
p694
sg23
VElements Of Culture
p695
sg25
Nsg27
Nsg29
F72.65
sa(dp696
g18
I9780078051012
sg19
VAnnual Edition
p697
sg21
VRequired
p698
sg23
VAnthropology 12/13 (Ed: Angeloni)
p699
sg25
VPaperback
p700
sg27
V35
p701
sg29
F44.0
sa(dp702
g18
I9780077477769
sg19
VAngeloni (Db*)
p703
sg21
VOptional
p704
sg23
VAnthropology: Annual Editions 12/13 (Coursesmart)
p705
sg25
VEbook
p706
sg27
g416
sg29
F31.0
sa(dp707
g18
I9781133470953
sg19
VAndreatta (Db*)
p708
sg21
VOptional
p709
sg23
VElements Of Culture (Coursesmart)
p710
sg25
Nsg27
Nsg29
F37.0
sasg43
V367447
p711
sg2
VE-01
p712
sasg43
V97795
p713
sg2
VANT102
p714
sa(dp715
g10
(lp716
(dp717
g13
VGRAY
p718
sg15
(lp719
(dp720
g18
I9780073530932
sg19
VPodolefsky
p721
sg21
VRequired
p722
sg23
VApplying Anthropology
p723
sg25
VPaperback
p724
sg27
g28
sg29
F61.05
sasg43
V379852
p725
sg2
VE-01
p726
sasg43
V99366
p727
sg2
VANT201
p728
sa(dp729
g10
(lp730
(dp731
g13
VRACHELE
p732
sg15
(lp733
(dp734
g18
I9780813343679
sg19
VMoran
p735
sg21
VRequired
p736
sg23
VHuman Adaptability
p737
sg25
VPaperback
p738
sg27
g119
sg29
F45.0
sasg43
V367448
p739
sg2
VE-01
p740
sasg43
V97796
p741
sg2
VANT350
p742
sa(dp743
g10
(lp744
(dp745
g13
VRACHELE
p746
sg15
(lp747
(dp748
g18
I9780078140013
sg19
VMoro
p749
sg21
VRequired
p750
sg23
VMagic, Witchcraft & Religion
p751
sg25
VPaperback
p752
sg27
g28
sg29
F67.2
sasg43
V367449
p753
sg2
VE-01
p754
sasg43
V97797
p755
sg2
VANT360
p756
sasg473
VANT
p757
sg43
V4754
p758
sg2
VANTHROPOLOGY
p759
sa(dp760
g7
(lp761
(dp762
g10
(lp763
(dp764
g13
VSTAFF
p765
sg15
(lp766
sg43
V367450
p767
sg2
VE-01
p768
sa(dp769
g13
VSTAFF
p770
sg15
(lp771
sg43
V367451
p772
sg2
VE-02
p773
sasg43
V97932
p774
sg2
VARC401
p775
sa(dp776
g10
(lp777
(dp778
g13
VRAMIREZ
p779
sg15
(lp780
sg43
V367454
p781
sg2
VE-01
p782
sa(dp783
g13
VSTAFF
p784
sg15
(lp785
sg43
V367455
p786
sg2
VE-02
p787
sasg43
V97799
p788
sg2
VARC402
p789
sa(dp790
g10
(lp791
(dp792
g13
VRAMIREZ
p793
sg15
(lp794
sg43
V367458
p795
sg2
VE-01
p796
sa(dp797
g13
VSTAFF
p798
sg15
(lp799
sg43
V367459
p800
sg2
VE-02
p801
sasg43
V97933
p802
sg2
VARC405
p803
sa(dp804
g10
(lp805
(dp806
g13
VSTAFF
p807
sg15
(lp808
sg43
V367462
p809
sg2
VE-01
p810
sa(dp811
g13
VSHEINE
p812
sg15
(lp813
sg43
V367463
p814
sg2
VE-02
p815
sasg43
V97801
p816
sg2
VARC406
p817
sa(dp818
g10
(lp819
(dp820
g13
VSTAFF
p821
sg15
(lp822
sg43
V367466
p823
sg2
VE-01
p824
sa(dp825
g13
VRAMIREZ
p826
sg15
(lp827
sg43
V367467
p828
sg2
VE-02
p829
sa(dp830
g13
VAMOURGIS
p831
sg15
(lp832
sg43
V367468
p833
sg2
VE-03
p834
sa(dp835
g13
VAMOURGIS
p836
sg15
(lp837
sg43
V367469
p838
sg2
VE-04
p839
sasg43
V97803
p840
sg2
VARC499
p841
sa(dp842
g10
(lp843
(dp844
g13
VSHEINE
p845
sg15
(lp846
sg43
V367470
p847
sg2
VE-01
p848
sasg43
V97935
p849
sg2
VARC601
p850
sa(dp851
g10
(lp852
(dp853
g13
VSHEINE
p854
sg15
(lp855
sg43
V367472
p856
sg2
VE-01
p857
sa(dp858
g13
VRamirez, Irma
p859
sg15
(lp860
sg43
V380336
p861
sg2
VE-02
p862
sasg43
V97804
p863
sg2
VARC602
p864
sa(dp865
g10
(lp866
(dp867
g13
VRAMIREZ
p868
sg15
(lp869
sg43
V367452
p870
sg2
VE-01
p871
sa(dp872
g13
VSTAFF
p873
sg15
(lp874
sg43
V367453
p875
sg2
VE-02
p876
sasg43
V97798
p877
sg2
VARC401L
p878
sa(dp879
g10
(lp880
(dp881
g13
VRAMIREZ
p882
sg15
(lp883
sg43
V367456
p884
sg2
VE-01
p885
sa(dp886
g13
VSTAFF
p887
sg15
(lp888
sg43
V367457
p889
sg2
VE-02
p890
sasg43
V97800
p891
sg2
VARC402L
p892
sa(dp893
g10
(lp894
(dp895
g13
VRAMIREZ
p896
sg15
(lp897
sg43
V367460
p898
sg2
VE-01
p899
sa(dp900
g13
VSTAFF
p901
sg15
(lp902
sg43
V367461
p903
sg2
VE-02
p904
sasg43
V97934
p905
sg2
VARC405L
p906
sa(dp907
g10
(lp908
(dp909
g13
VRAMIREZ
p910
sg15
(lp911
sg43
V367464
p912
sg2
VE-01
p913
sa(dp914
g13
VSHEINE
p915
sg15
(lp916
sg43
V367465
p917
sg2
VE-02
p918
sasg43
V97802
p919
sg2
VARC406L
p920
sa(dp921
g10
(lp922
(dp923
g13
VSHEINE
p924
sg15
(lp925
sg43
V367471
p926
sg2
VE-01
p927
sasg43
V97936
p928
sg2
VARC601L
p929
sa(dp930
g10
(lp931
(dp932
g13
VSHEINE
p933
sg15
(lp934
sg43
V367473
p935
sg2
VE-01
p936
sa(dp937
g13
VRamirez, Irma
p938
sg15
(lp939
sg43
V380337
p940
sg2
VE-02
p941
sasg43
V97805
p942
sg2
VARC602L
p943
sasg473
VARC
p944
sg43
V4755
p945
sg2
VARCHITECTURE
p946
sa(dp947
g7
(lp948
(dp949
g10
(lp950
(dp951
g13
VBHANDARI
p952
sg15
(lp953
(dp954
g18
I9780131866140
sg19
VPhillips
p955
sg21
VRequired
p956
sg23
VFeedback Control Systems
p957
sg25
VHardback
p958
sg27
g416
sg29
F177.2
sa(dp959
g18
I9780131393028
sg19
VPhillips (Db*)
p960
sg21
VOptional
p961
sg23
VFeedback Control Systems (Coursesmart)
p962
sg25
VEbook
p963
sg27
g416
sg29
F73.0
sasg43
V379811
p964
sg2
V01
p965
sasg43
V99351
p966
sg2
VARO499
p967
sasg473
VARO
p968
sg43
V4756
p969
sg2
VAEROSPACE ENGR
p970
sa(dp971
g7
(lp972
(dp973
g10
(lp974
(dp975
g13
VSTAFF
p976
sg15
(lp977
sg43
V367474
p978
sg2
VE-01
p979
sasg43
V97806
p980
sg2
VAVS101
p981
sa(dp982
g10
(lp983
(dp984
g13
VFONDA
p985
sg15
(lp986
(dp987
g18
I9780132624053
sg19
VDamron (Db*)
p988
sg21
VOptional
p989
sg23
VIntro To Animal Science Global (Coursesmart)
p990
sg25
VEbook
p991
sg27
g416
sg29
F56.0
sa(dp992
g18
I9780132623896
sg19
VDamron
p993
sg21
VOptional
p994
sg23
VIntro To Animal Science
p995
sg25
VHardback
p996
sg27
g416
sg29
F143.75
sasg43
V367475
p997
sg2
VE-01
p998
sasg43
V97807
p999
sg2
VAVS112
p1000
sa(dp1001
g10
(lp1002
(dp1003
g13
VREICHARDT
p1004
sg15
(lp1005
sg43
V367476
p1006
sg2
VE-01
p1007
sasg43
V97937
p1008
sg2
VAVS201
p1009
sa(dp1010
g10
(lp1011
(dp1012
g13
VHaag
p1013
sg15
(lp1014
(dp1015
g18
I9780073380902
sg19
VHart
p1016
sg21
VRequired
p1017
sg23
VDrugs, Society & Human Behavior
p1018
sg25
VPaperback
p1019
sg27
V14
p1020
sg29
F132.7
sa(dp1021
g18
I9780077325886
sg19
VHart (Db*)
p1022
sg21
VOptional
p1023
sg23
VDrugs, Society, & Human Behavior (Coursesmart)
p1024
sg25
VEbook
p1025
sg27
g594
sg29
F69.75
sasg43
V367477
p1026
sg2
VE-01
p1027
sasg43
V97808
p1028
sg2
VAVS211
p1029
sa(dp1030
g10
(lp1031
(dp1032
g13
VNout
p1033
sg15
(lp1034
(dp1035
g18
I9780131125865
sg19
VCheeke
p1036
sg21
VRequired
p1037
sg23
VContemporary Issues In Animal Agriculture
p1038
sg25
VPaperback
p1039
sg27
g119
sg29
F80.8
sasg43
V367478
p1040
sg2
VE-01
p1041
sasg43
V97809
p1042
sg2
VAVS311
p1043
sa(dp1044
g10
(lp1045
(dp1046
g13
VPettey
p1047
sg15
(lp1048
sg43
V367479
p1049
sg2
VE-01
p1050
sasg43
V97810
p1051
sg2
VAVS402
p1052
sa(dp1053
g10
(lp1054
(dp1055
g13
VSANDELIN
p1056
sg15
(lp1057
sg43
V367480
p1058
sg2
VE-01
p1059
sasg43
V97938
p1060
sg2
VAVS404
p1061
sa(dp1062
g10
(lp1063
(dp1064
g13
VSANDELIN
p1065
sg15
(lp1066
sg43
V367481
p1067
sg2
VE-01
p1068
sasg43
V97939
p1069
sg2
VAVS404A
p1070
sa(dp1071
g10
(lp1072
(dp1073
g13
V,
p1074
sg15
(lp1075
sg43
V380163
p1076
sg2
VE-01
p1077
sa(dp1078
g13
g1074
sg15
(lp1079
sg43
V380164
p1080
sg2
VE-02
p1081
sasg43
V100635
p1082
sg2
VAVS499A
p1083
sasg473
VAVS
p1084
sg43
V4758
p1085
sg2
VANIMAL & VET SCIENCE
p1086
sa(dp1087
g7
(lp1088
(dp1089
g10
(lp1090
(dp1091
g13
VCLARK
p1092
sg15
(lp1093
(dp1094
g18
I9780321649546
sg19
VSimon
p1095
sg21
VRequired
p1096
sg23
VCampbell Essential Biology With Physiology
p1097
sg25
VPaperback
p1098
sg27
g119
sg29
F140.15
sasg43
V367482
p1099
sg2
VE-01
p1100
sasg43
V97811
p1101
sg2
VBIO110
p1102
sa(dp1103
g10
(lp1104
(dp1105
g13
VHERRERA
p1106
sg15
(lp1107
(dp1108
g18
I9781429219624
sg19
VSadava
p1109
sg21
VRequired
p1110
sg23
VLife
p1111
sg25
VHardback
p1112
sg27
V9
p1113
sg29
F180.65
sa(dp1114
g18
I9781429254205
sg19
VSadava (Db*)
p1115
sg21
VOptional
p1116
sg23
VLife (Coursesmart Digital)
p1117
sg25
VEbook
p1118
sg27
g1113
sg29
F103.0
sasg43
V367487
p1119
sg2
VE-01
p1120
sasg43
V97813
p1121
sg2
VBIO115
p1122
sa(dp1123
g10
(lp1124
(dp1125
g13
VKING
p1126
sg15
(lp1127
(dp1128
g18
I9780131008465
sg19
VZar
p1129
sg21
VRequired
p1130
sg23
VBiostatistical Analysis
p1131
sg25
VHardback
p1132
sg27
g416
sg29
F135.3
sa(dp1133
g18
I9780135024713
sg19
VZar (Db*)
p1134
sg21
VOptional
p1135
sg23
VBiostatistical Analysis (Coursesmart Digital)
p1136
sg25
VEbook
p1137
sg27
g416
sg29
F61.0
sasg43
V367496
p1138
sg2
VE-01
p1139
sasg43
V97816
p1140
sg2
VBIO211
p1141
sa(dp1142
g10
(lp1143
(dp1144
g13
VKIDD
p1145
sg15
(lp1146
(dp1147
g18
I9780878935703
sg19
VLevay
p1148
sg21
VRequired
p1149
sg23
VHuman Sexuality
p1150
sg25
VHardback
p1151
sg27
g594
sg29
F115.95
sa(dp1152
g18
I9780878936311
sg19
VLevay (Db*)
p1153
sg21
VOptional
p1154
sg23
VHuman Sexuality (Coursesmart)
p1155
sg25
VEbook
p1156
sg27
g594
sg29
F55.95
sasg43
V367502
p1157
sg2
VE-01
p1158
sasg43
V97818
p1159
sg2
VBIO301
p1160
sa(dp1161
g10
(lp1162
(dp1163
g13
VDIXON
p1164
sg15
(lp1165
(dp1166
g18
I9780077474904
sg19
VBrooker*
p1167
sg21
VRequired
p1168
sg23
VGenetics W/Connect Card
p1169
sg25
VCloth
p1170
sg27
g594
sg29
F196.9
sasg43
V367503
p1171
sg2
VE-01
p1172
sasg43
V97819
p1173
sg2
VBIO303
p1174
sa(dp1175
g10
(lp1176
(dp1177
g13
VALAS
p1178
sg15
(lp1179
sg43
V367504
p1180
sg2
VE-01
p1181
sasg43
V97820
p1182
sg2
VBIO310
p1183
sa(dp1184
g10
(lp1185
(dp1186
g13
VSTAFF
p1187
sg15
(lp1188
(dp1189
g18
I9780738022048
sg19
VHartney
p1190
sg21
VRequired
p1191
sg23
VConnecting To Biology
p1192
sg25
VPaperback
p1193
sg27
g519
sg29
F17.5
sasg43
V367483
p1194
sg2
VE-01
p1195
sa(dp1196
g13
VSTAFF
p1197
sg15
(lp1198
(dp1199
g18
I9780738022048
sg19
VHartney
p1200
sg21
VRequired
p1201
sg23
VConnecting To Biology
p1202
sg25
VPaperback
p1203
sg27
g519
sg29
F17.5
sasg43
V367484
p1204
sg2
VE-02
p1205
sa(dp1206
g13
VSTAFF
p1207
sg15
(lp1208
(dp1209
g18
I9780738022048
sg19
VHartney
p1210
sg21
VRequired
p1211
sg23
VConnecting To Biology
p1212
sg25
VPaperback
p1213
sg27
g519
sg29
F17.5
sasg43
V367485
p1214
sg2
VE-03
p1215
sa(dp1216
g13
VSTAFF
p1217
sg15
(lp1218
(dp1219
g18
I9780738022048
sg19
VHartney
p1220
sg21
VRequired
p1221
sg23
VConnecting To Biology
p1222
sg25
VPaperback
p1223
sg27
g519
sg29
F17.5
sasg43
V367486
p1224
sg2
VE-04
p1225
sasg43
V97812
p1226
sg2
VBIO111L
p1227
sa(dp1228
g10
(lp1229
(dp1230
g13
VSTAFF
p1231
sg15
(lp1232
sg43
V367488
p1233
sg2
VE-01
p1234
sa(dp1235
g13
VSTAFF,
p1236
sg15
(lp1237
sg43
V367489
p1238
sg2
VE-02
p1239
sa(dp1240
g13
VSTAFF
p1241
sg15
(lp1242
sg43
V367490
p1243
sg2
VE-03
p1244
sa(dp1245
g13
VSTAFF
p1246
sg15
(lp1247
sg43
V367491
p1248
sg2
VE-04
p1249
sasg43
V97814
p1250
sg2
VBIO115A
p1251
sa(dp1252
g10
(lp1253
(dp1254
g13
VSTAFF
p1255
sg15
(lp1256
sg43
V367492
p1257
sg2
VE-01
p1258
sa(dp1259
g13
VSTAFF
p1260
sg15
(lp1261
sg43
V367493
p1262
sg2
VE-02
p1263
sa(dp1264
g13
VSTAFF
p1265
sg15
(lp1266
sg43
V367494
p1267
sg2
VE-03
p1268
sa(dp1269
g13
VSTAFF
p1270
sg15
(lp1271
sg43
V367495
p1272
sg2
VE-04
p1273
sasg43
V97815
p1274
sg2
VBIO115L
p1275
sa(dp1276
g10
(lp1277
(dp1278
g13
VSTAFF
p1279
sg15
(lp1280
sg43
V367497
p1281
sg2
VE-01
p1282
sa(dp1283
g13
VSTAFF
p1284
sg15
(lp1285
sg43
V367498
p1286
sg2
VE-02
p1287
sa(dp1288
g13
VSTAFF
p1289
sg15
(lp1290
sg43
V367499
p1291
sg2
VE-03
p1292
sa(dp1293
g13
VSTAFF,
p1294
sg15
(lp1295
sg43
V367500
p1296
sg2
VE-04
p1297
sasg43
V97817
p1298
sg2
VBIO211L
p1299
sa(dp1300
g10
(lp1301
(dp1302
g13
VQuestad
p1303
sg15
(lp1304
sg43
V367501
p1305
sg2
VE-01
p1306
sasg43
V97940
p1307
sg2
VBIO299A
p1308
sa(dp1309
g10
(lp1310
(dp1311
g13
VSTAFF
p1312
sg15
(lp1313
sg43
V367505
p1314
sg2
VE-01
p1315
sasg43
V97821
p1316
sg2
VBIO488S
p1317
sasg473
VBIO
p1318
sg43
V4760
p1319
sg2
VBIOLOGY
p1320
sa(dp1321
g7
(lp1322
(dp1323
g10
(lp1324
(dp1325
g13
VNG
p1326
sg15
(lp1327
(dp1328
g18
I9780132554343
sg19
VGhilani
p1329
sg21
VRequired
p1330
sg23
VElementary Surveying
p1331
sg25
VHardback
p1332
sg27
V13
p1333
sg29
F176.25
sa(dp1334
g18
I9780132555104
sg19
VGhilani (Db*)
p1335
sg21
VOptional
p1336
sg23
VElementary Surveying (Coursesmart)
p1337
sg25
VEbook
p1338
sg27
V13
p1339
sg29
F74.0
sasg43
V367510
p1340
sg2
VE-01
p1341
sasg43
V97824
p1342
sg2
VCE220
p1343
sa(dp1344
g10
(lp1345
(dp1346
g13
VYe
p1347
sg15
(lp1348
(dp1349
g18
I9780471173960
sg19
VWright
p1350
sg21
VRequired
p1351
sg23
VTransportation Engineering
p1352
sg25
VCloth
p1353
sg27
g594
sg29
F184.7
sasg43
V367513
p1354
sg2
VE-01
p1355
sa(dp1356
g13
VYe,
p1357
sg15
(lp1358
(dp1359
g18
I9780471173960
sg19
VWright
p1360
sg21
VRequired
p1361
sg23
VTransportation Engineering
p1362
sg25
VCloth
p1363
sg27
g594
sg29
F184.7
sasg43
V367514
p1364
sg2
VE-02
p1365
sa(dp1366
g13
VWU
p1367
sg15
(lp1368
(dp1369
g18
I9780471173960
sg19
VWright
p1370
sg21
VRequired
p1371
sg23
VTransportation Engineering
p1372
sg25
VCloth
p1373
sg27
g594
sg29
F184.7
sasg43
V367515
p1374
sg2
VE-03
p1375
sasg43
V97826
p1376
sg2
VCE223
p1377
sa(dp1378
g10
(lp1379
(dp1380
g13
VCHIANG
p1381
sg15
(lp1382
(dp1383
g18
I9780073376301
sg19
VBlank
p1384
sg21
VRequired
p1385
sg23
VEngineering Economy
p1386
sg25
VHardback
p1387
sg27
g79
sg29
F180.0
sa(dp1388
g18
I9780077352967
sg19
VBlank (Db*)
p1389
sg21
VOptional
p1390
sg23
VEngineering Economy (Coursesmart)
p1391
sg25
VEbook
p1392
sg27
g79
sg29
F96.0
sasg43
V367519
p1393
sg2
VE-01
p1394
sasg43
V97828
p1395
sg2
VCE301
p1396
sa(dp1397
g10
(lp1398
(dp1399
g13
VPEREZ
p1400
sg15
(lp1401
(dp1402
g18
I9780073401096
sg19
VLeet
p1403
sg21
VRequired
p1404
sg23
VFundamentals Of Structural Analysis
p1405
sg25
VHardback
p1406
sg27
g594
sg29
F184.7
sa(dp1407
g18
I9780077305987
sg19
VLeet (Db*)
p1408
sg21
VOptional
p1409
sg23
VFundamentals Of Structural Analysis (Coursesmart)
p1410
sg25
VEbook
p1411
sg27
g594
sg29
F98.5
sasg43
V367520
p1412
sg2
VE-01
p1413
sa(dp1414
g13
VPEREZ
p1415
sg15
(lp1416
(dp1417
g18
I9780073401096
sg19
VLeet
p1418
sg21
VRequired
p1419
sg23
VFundamentals Of Structural Analysis
p1420
sg25
VHardback
p1421
sg27
g594
sg29
F184.7
sa(dp1422
g18
I9780077305987
sg19
VLeet (Db*)
p1423
sg21
VOptional
p1424
sg23
VFundamentals Of Structural Analysis (Coursesmart)
p1425
sg25
VEbook
p1426
sg27
g594
sg29
F98.5
sasg43
V367521
p1427
sg2
VE-02
p1428
sa(dp1429
g13
VWANG
p1430
sg15
(lp1431
(dp1432
g18
I9780073401096
sg19
VLeet
p1433
sg21
VRequired
p1434
sg23
VFundamentals Of Structural Analysis
p1435
sg25
VHardback
p1436
sg27
g594
sg29
F184.7
sa(dp1437
g18
I9780077305987
sg19
VLeet (Db*)
p1438
sg21
VOptional
p1439
sg23
VFundamentals Of Structural Analysis (Coursesmart)
p1440
sg25
VEbook
p1441
sg27
g594
sg29
F98.5
sasg43
V367522
p1442
sg2
VE-03
p1443
sasg43
V97829
p1444
sg2
VCE305
p1445
sa(dp1446
g10
(lp1447
(dp1448
g13
VANDREI
p1449
sg15
(lp1450
(dp1451
g18
I9780132368681
sg19
VCoduto
p1452
sg21
VRequired
p1453
sg23
VGeotechnical Engineering
p1454
sg25
VHardback
p1455
sg27
g519
sg29
F180.95
sa(dp1456
g18
I9780136081418
sg19
VCoduto (Db*)
p1457
sg21
VOptional
p1458
sg23
VGeotechnical Engineering (Coursesmart)
p1459
sg25
VEbook
p1460
sg27
g519
sg29
F76.0
sasg43
V367523
p1461
sg2
VE-01
p1462
sa(dp1463
g13
VANDREI
p1464
sg15
(lp1465
(dp1466
g18
I9780132368681
sg19
VCoduto
p1467
sg21
VRequired
p1468
sg23
VGeotechnical Engineering
p1469
sg25
VHardback
p1470
sg27
g519
sg29
F180.95
sa(dp1471
g18
I9780136081418
sg19
VCoduto (Db*)
p1472
sg21
VOptional
p1473
sg23
VGeotechnical Engineering (Coursesmart)
p1474
sg25
VEbook
p1475
sg27
g519
sg29
F76.0
sasg43
V367524
p1476
sg2
VE-02
p1477
sasg43
V97830
p1478
sg2
VCE325
p1479
sa(dp1480
g10
(lp1481
(dp1482
g13
VLamb
p1483
sg15
(lp1484
(dp1485
g18
I9780534494834
sg19
VCruise
p1486
sg21
VRequired
p1487
sg23
VElementary Hydraulics
p1488
sg25
Nsg27
Nsg29
F188.75
sasg43
V367527
p1489
sg2
VE-01
p1490
sa(dp1491
g13
VPalomo Martinez
p1492
sg15
(lp1493
(dp1494
g18
I9780534494834
sg19
VCruise
p1495
sg21
VRequired
p1496
sg23
VElementary Hydraulics
p1497
sg25
Nsg27
Nsg29
F188.75
sasg43
V367528
p1498
sg2
VE-02
p1499
sa(dp1500
g13
VMartinez, Palomo
p1501
sg15
(lp1502
(dp1503
g18
I9780534494834
sg19
VCruise
p1504
sg21
VRequired
p1505
sg23
VElementary Hydraulics
p1506
sg25
Nsg27
Nsg29
F188.75
sasg43
V367529
p1507
sg2
VE-03
p1508
sasg43
V97832
p1509
sg2
VCE332
p1510
sa(dp1511
g10
(lp1512
(dp1513
g13
VBERK
p1514
sg15
(lp1515
sg43
V367536
p1516
sg2
VE-01
p1517
sasg43
V97834
p1518
sg2
VCE362
p1519
sa(dp1520
g10
(lp1521
(dp1522
g13
VWANG
p1523
sg15
(lp1524
(dp1525
g18
I9781111576004
sg19
VSegui
p1526
sg21
VRequired
p1527
sg23
VSteel Design
p1528
sg25
VHardback
p1529
sg27
g416
sg29
F209.7
sa(dp1530
g18
I9781133348184
sg19
VSegui (Db*)
p1531
sg21
VOptional
p1532
sg23
VSteel Design (Coursesmart)
p1533
sg25
Nsg27
Nsg29
F113.5
sasg43
V367538
p1534
sg2
VE-01
p1535
sasg43
V97836
p1536
sg2
VCE406
p1537
sa(dp1538
g10
(lp1539
(dp1540
g13
VWANG
p1541
sg15
(lp1542
(dp1543
g18
I9780470279274
sg19
VMccormac
p1544
sg21
VRequired
p1545
sg23
VDesign Of Reinforced Concrete Aci 318-08 Code Ed
p1546
sg25
VHardback
p1547
sg27
g28
sg29
F205.0
sa(dp1548
g18
I9780870312649
sg19
VAmer Concrete
p1549
sg21
VRequired
p1550
sg23
VBuilding Code Require Struct Concrete & Comm
p1551
sg25
Nsg27
Nsg29
F80.0
sa(dp1552
g18
I9780470416204
sg19
VMccormac (Db*)
p1553
sg21
VOptional
p1554
sg23
VDesign Of Reinforced Concrete (Coursesmart Digital)
p1555
sg25
VEbook
p1556
sg27
g28
sg29
F105.5
sasg43
V367539
p1557
sg2
VE-01
p1558
sasg43
V97837
p1559
sg2
VCE421
p1560
sa(dp1561
g10
(lp1562
(dp1563
g13
VWU
p1564
sg15
(lp1565
sg43
V379882
p1566
sg2
VE-01
p1567
sasg43
V99382
p1568
sg2
VCE429
p1569
sa(dp1570
g10
(lp1571
(dp1572
g13
VYadegari
p1573
sg15
(lp1574
(dp1575
g18
I9780071455398
sg19
VBreyer
p1576
sg21
VRequired
p1577
sg23
VDesign Of Wood Structures Asd/Lrfd
p1578
sg25
VHardback
p1579
sg27
g173
sg29
F99.95
sa(dp1580
g18
I9780784410851
sg19
VAmer Soc Civil
p1581
sg21
VRequired
p1582
sg23
VMinimum Design Loads For Buildings & Other Structures (Rev)
p1583
sg25
Nsg27
Nsg29
F165.0
sasg43
V379884
p1584
sg2
VE-01
p1585
sasg43
V99384
p1586
sg2
VCE433
p1587
sa(dp1588
g10
(lp1589
(dp1590
g13
VLamb
p1591
sg15
(lp1592
(dp1593
g18
I9780131424241
sg19
VMccuen
p1594
sg21
VRequired
p1595
sg23
VHydrologic Analysis & Design
p1596
sg25
VPaperback
p1597
sg27
g119
sg29
F142.5
sasg43
V379886
p1598
sg2
VE-01
p1599
sasg43
V99386
p1600
sg2
VCE451
p1601
sa(dp1602
g10
(lp1603
(dp1604
g13
VANDREI
p1605
sg15
(lp1606
sg43
V367542
p1607
sg2
VE-01
p1608
sa(dp1609
g13
VCHENG
p1610
sg15
(lp1611
sg43
V367543
p1612
sg2
VE-02
p1613
sa(dp1614
g13
VJIA
p1615
sg15
(lp1616
sg43
V367544
p1617
sg2
VE-03
p1618
sa(dp1619
g13
VHERNANDEZ
p1620
sg15
(lp1621
sg43
V367545
p1622
sg2
VE-04
p1623
sa(dp1624
g13
VYadegari
p1625
sg15
(lp1626
sg43
V367546
p1627
sg2
VE-05
p1628
sa(dp1629
g13
VMARCIUSKA
p1630
sg15
(lp1631
sg43
V367547
p1632
sg2
VE-06
p1633
sa(dp1634
g13
VLamb
p1635
sg15
(lp1636
sg43
V367548
p1637
sg2
VE-07
p1638
sa(dp1639
g13
VLamb
p1640
sg15
(lp1641
sg43
V380188
p1642
sg2
VE-08
p1643
sa(dp1644
g13
VCHENG
p1645
sg15
(lp1646
sg43
V380189
p1647
sg2
VE-09
p1648
sasg43
V97839
p1649
sg2
VCE492
p1650
sa(dp1651
g10
(lp1652
(dp1653
g13
VJIA,
p1654
sg15
(lp1655
sg43
V367549
p1656
sg2
VE-01
p1657
sa(dp1658
g13
VYEUNG,
p1659
sg15
(lp1660
sg43
V379887
p1661
sg2
VE-02
p1662
sasg43
V97840
p1663
sg2
VCE499
p1664
sa(dp1665
g10
(lp1666
(dp1667
g13
VNG
p1668
sg15
(lp1669
sg43
V367511
p1670
sg2
VE-01
p1671
sasg43
V97825
p1672
sg2
VCE220L
p1673
sa(dp1674
g10
(lp1675
(dp1676
g13
VYe
p1677
sg15
(lp1678
sg43
V367516
p1679
sg2
VE-01
p1680
sa(dp1681
g13
VYe,
p1682
sg15
(lp1683
sg43
V367517
p1684
sg2
VE-02
p1685
sa(dp1686
g13
VWU
p1687
sg15
(lp1688
sg43
V367518
p1689
sg2
VE-03
p1690
sasg43
V97827
p1691
sg2
VCE223L
p1692
sa(dp1693
g10
(lp1694
(dp1695
g13
VANDREI
p1696
sg15
(lp1697
(dp1698
g18
I9780757595332
sg19
VKitch
p1699
sg21
VRequired
p1700
sg23
VGeotechnical Engineering Laboratory(Revised Prtg)
p1701
sg25
Nsg27
Nsg29
F44.0
sasg43
V367525
p1702
sg2
VE-01
p1703
sa(dp1704
g13
VANDREI
p1705
sg15
(lp1706
(dp1707
g18
I9780757595332
sg19
VKitch
p1708
sg21
VRequired
p1709
sg23
VGeotechnical Engineering Laboratory(Revised Prtg)
p1710
sg25
Nsg27
Nsg29
F44.0
sasg43
V367526
p1711
sg2
VE-02
p1712
sasg43
V97831
p1713
sg2
VCE327L
p1714
sa(dp1715
g10
(lp1716
(dp1717
g13
VLamb
p1718
sg15
(lp1719
sg43
V367530
p1720
sg2
VE-01
p1721
sa(dp1722
g13
VLamb
p1723
sg15
(lp1724
sg43
V367531
p1725
sg2
VE-02
p1726
sa(dp1727
g13
VMartinez, Palomo
p1728
sg15
(lp1729
sg43
V367532
p1730
sg2
VE-03
p1731
sa(dp1732
g13
VPalomo Martinez
p1733
sg15
(lp1734
sg43
V367533
p1735
sg2
VE-04
p1736
sa(dp1737
g13
VMartinez, Palomo
p1738
sg15
(lp1739
sg43
V367534
p1740
sg2
VE-05
p1741
sa(dp1742
g13
VMartinez, Palomo
p1743
sg15
(lp1744
sg43
V367535
p1745
sg2
VE-06
p1746
sasg43
V97833
p1747
sg2
VCE332L
p1748
sa(dp1749
g10
(lp1750
(dp1751
g13
VBERK
p1752
sg15
(lp1753
sg43
V367537
p1754
sg2
VE-01
p1755
sasg43
V97835
p1756
sg2
VCE362A
p1757
sa(dp1758
g10
(lp1759
(dp1760
g13
VANDREI
p1761
sg15
(lp1762
(dp1763
g18
I9780136110583
sg19
VMamlouk
p1764
sg21
VRequired
p1765
sg23
VMaterials For Civil Construction Engineering
p1766
sg25
VHardback
p1767
sg27
g119
sg29
F146.25
sa(dp1768
g18
I9780136110330
sg19
VMamlouk (Db*)
p1769
sg21
VOptional
p1770
sg23
VMaterials For Civil & Construction Engineers (Coursesmart)
p1771
sg25
VEbook
p1772
sg27
g119
sg29
F61.0
sasg43
V367540
p1773
sg2
VE-01
p1774
sa(dp1775
g13
VANDREI
p1776
sg15
(lp1777
(dp1778
g18
I9780136110583
sg19
VMamlouk
p1779
sg21
VRequired
p1780
sg23
VMaterials For Civil Construction Engineering
p1781
sg25
VHardback
p1782
sg27
g119
sg29
F146.25
sa(dp1783
g18
I9780136110330
sg19
VMamlouk (Db*)
p1784
sg21
VOptional
p1785
sg23
VMaterials For Civil & Construction Engineers (Coursesmart)
p1786
sg25
VEbook
p1787
sg27
g119
sg29
F61.0
sasg43
V367541
p1788
sg2
VE-02
p1789
sasg43
V97838
p1790
sg2
VCE422L
p1791
sa(dp1792
g10
(lp1793
(dp1794
g13
VWU
p1795
sg15
(lp1796
sg43
V379883
p1797
sg2
VE-01
p1798
sasg43
V99383
p1799
sg2
VCE429L
p1800
sa(dp1801
g10
(lp1802
(dp1803
g13
VYadegari
p1804
sg15
(lp1805
sg43
V379885
p1806
sg2
VE-01
p1807
sasg43
V99385
p1808
sg2
VCE433L
p1809
sasg473
VCE
p1810
sg43
V4763
p1811
sg2
VCIVIL ENGINEERING
p1812
sa(dp1813
g7
(lp1814
(dp1815
g10
(lp1816
(dp1817
g13
VKolar, Chris
p1818
sg15
(lp1819
(dp1820
g18
I9780131145191
sg19
VKochar-Bryant
p1821
sg21
VRequired
p1822
sg23
VCollaboration & System Coordination For Students With Special Needs
p1823
sg25
Nsg27
Nsg29
F110.4
sasg43
V383511
p1824
sg2
V01
p1825
sasg43
V100840
p1826
sg2
VCEUEDS 526
p1827
sa(dp1828
g10
(lp1829
(dp1830
g13
VWalker, Pamela
p1831
sg15
(lp1832
(dp1833
g18
I9781934575079
sg19
VWolfberg
p1834
sg21
VRequired
p1835
sg23
VLearners On The Autistic Spectrum
p1836
sg25
Nsg27
Nsg29
F59.0
sa(dp1837
g18
I9780439443821
sg19
VLord
p1838
sg21
VRequired
p1839
sg23
VRules
p1840
sg25
Nsg27
Nsg29
F16.0
sasg43
V383490
p1841
sg2
V01
p1842
sasg43
V100824
p1843
sg2
VCEUEDS 531
p1844
sa(dp1845
g10
(lp1846
(dp1847
g13
VBromley, Barbara
p1848
sg15
(lp1849
(dp1850
g18
I9780131181700
sg19
VHeflin
p1851
sg21
VRequired
p1852
sg23
VStudents With Autism Spectrum Disorders
p1853
sg25
Nsg27
Nsg29
F56.0
sasg43
V383510
p1854
sg2
V01
p1855
sasg43
V100839
p1856
sg2
VCEUEDS 532
p1857
sasg473
VCEU
p1858
sg43
V4786
p1859
sg2
VCONTINUING EDUCATION
p1860
sa(dp1861
g7
(lp1862
(dp1863
g10
(lp1864
(dp1865
g13
VLI
p1866
sg15
(lp1867
sg43
V380190
p1868
sg2
V01
p1869
sasg43
V100644
p1870
sg2
VCHE299
p1871
sasg473
VCHE
p1872
sg43
V4764
p1873
sg2
VCHEM & MATRLS ENGR
p1874
sa(dp1875
g7
(lp1876
(dp1877
g10
(lp1878
(dp1879
g13
VPAGE
p1880
sg15
(lp1881
(dp1882
g18
I9781256287018
sg19
VMcmurry*
p1883
sg21
VRequired
p1884
sg23
VChemistry W/Masteringchemistry, Solutions Manual, & Iclicker Rebate
p1885
sg25
Nsg27
Nsg29
F201.15
sa(dp1886
g18
I9780321723437
sg19
VPearson
p1887
sg21
VPart of Set
p1888
sg23
VMasteringchemistry Access Code (W/E-Book)
p1889
sg25
Nsg27
Nsg29
F111.75
sa(dp1890
g18
I9781256363552
sg19
VMcmurry
p1891
sg21
VPart of Set
p1892
sg23
VChemistry (Custom)
p1893
sg25
Nsg27
Nsg29
F164.4
sa(dp1894
g18
I9780321727268
sg19
VMcmurry
p1895
sg21
VPart of Set
p1896
sg23
VChemistry Students Solutions Manual
p1897
sg25
VPaperback
p1898
sg27
g173
sg29
F78.65
sa(dp1899
g18
I9780321729903
sg19
VPearson
p1900
sg21
VPart of Set
p1901
sg23
VMastering Chemistry Sac (No Ebook) T/A Mcmurry
p1902
sg25
VAccess Code
p1903
sg27
g173
sg29
F64.7
sasg43
V379853
p1904
sg2
VE-0I
p1905
sa(dp1906
g13
VPAGE,
p1907
sg15
(lp1908
(dp1909
g18
I9781256287018
sg19
VMcmurry*
p1910
sg21
VRequired
p1911
sg23
VChemistry W/Masteringchemistry, Solutions Manual, & Iclicker Rebate
p1912
sg25
Nsg27
Nsg29
F201.15
sa(dp1913
g18
I9780321723437
sg19
VPearson
p1914
sg21
VPart of Set
p1915
sg23
VMasteringchemistry Access Code (W/E-Book)
p1916
sg25
Nsg27
Nsg29
F111.75
sa(dp1917
g18
I9781256363552
sg19
VMcmurry
p1918
sg21
VPart of Set
p1919
sg23
VChemistry (Custom)
p1920
sg25
Nsg27
Nsg29
F164.4
sa(dp1921
g18
I9780321727268
sg19
VMcmurry
p1922
sg21
VPart of Set
p1923
sg23
VChemistry Students Solutions Manual
p1924
sg25
VPaperback
p1925
sg27
g173
sg29
F78.65
sa(dp1926
g18
I9780321729903
sg19
VPearson
p1927
sg21
VPart of Set
p1928
sg23
VMastering Chemistry Sac (No Ebook) T/A Mcmurry
p1929
sg25
VAccess Code
p1930
sg27
g173
sg29
F64.7
sasg43
V367550
p1931
sg2
VE-OI
p1932
sasg43
V97841
p1933
sg2
VCHM121
p1934
sa(dp1935
g10
(lp1936
(dp1937
g13
VLabadzhyan
p1938
sg15
(lp1939
(dp1940
g18
I9781256287018
sg19
VMcmurry*
p1941
sg21
VRequired
p1942
sg23
VChemistry W/Masteringchemistry, Solutions Manual, & Iclicker Rebate
p1943
sg25
Nsg27
Nsg29
F201.15
sa(dp1944
g18
I9780321723437
sg19
VPearson
p1945
sg21
VPart of Set
p1946
sg23
VMasteringchemistry Access Code (W/E-Book)
p1947
sg25
Nsg27
Nsg29
F111.75
sa(dp1948
g18
I9781256363552
sg19
VMcmurry
p1949
sg21
VPart of Set
p1950
sg23
VChemistry (Custom)
p1951
sg25
Nsg27
Nsg29
F164.4
sa(dp1952
g18
I9780321727268
sg19
VMcmurry
p1953
sg21
VPart of Set
p1954
sg23
VChemistry Students Solutions Manual
p1955
sg25
VPaperback
p1956
sg27
g173
sg29
F78.65
sa(dp1957
g18
I9780321729903
sg19
VPearson
p1958
sg21
VPart of Set
p1959
sg23
VMastering Chemistry Sac (No Ebook) T/A Mcmurry
p1960
sg25
VAccess Code
p1961
sg27
g173
sg29
F64.7
sasg43
V367555
p1962
sg2
VE-01
p1963
sa(dp1964
g13
VMargolese
p1965
sg15
(lp1966
(dp1967
g18
I9781256287018
sg19
VMcmurry*
p1968
sg21
VRequired
p1969
sg23
VChemistry W/Masteringchemistry, Solutions Manual, & Iclicker Rebate
p1970
sg25
Nsg27
Nsg29
F201.15
sa(dp1971
g18
I9780321723437
sg19
VPearson
p1972
sg21
VPart of Set
p1973
sg23
VMasteringchemistry Access Code (W/E-Book)
p1974
sg25
Nsg27
Nsg29
F111.75
sa(dp1975
g18
I9781256363552
sg19
VMcmurry
p1976
sg21
VPart of Set
p1977
sg23
VChemistry (Custom)
p1978
sg25
Nsg27
Nsg29
F164.4
sa(dp1979
g18
I9780321727268
sg19
VMcmurry
p1980
sg21
VPart of Set
p1981
sg23
VChemistry Students Solutions Manual
p1982
sg25
VPaperback
p1983
sg27
g173
sg29
F78.65
sa(dp1984
g18
I9780321729903
sg19
VPearson
p1985
sg21
VPart of Set
p1986
sg23
VMastering Chemistry Sac (No Ebook) T/A Mcmurry
p1987
sg25
VAccess Code
p1988
sg27
g173
sg29
F64.7
sasg43
V367556
p1989
sg2
VE-02
p1990
sasg43
V97843
p1991
sg2
VCHM122
p1992
sa(dp1993
g10
(lp1994
(dp1995
g13
VTERRAZAS
p1996
sg15
(lp1997
(dp1998
g18
I9781256287018
sg19
VMcmurry*
p1999
sg21
VRequired
p2000
sg23
VChemistry W/Masteringchemistry, Solutions Manual, & Iclicker Rebate
p2001
sg25
Nsg27
Nsg29
F201.15
sa(dp2002
g18
I9780321723437
sg19
VPearson
p2003
sg21
VPart of Set
p2004
sg23
VMasteringchemistry Access Code (W/E-Book)
p2005
sg25
Nsg27
Nsg29
F111.75
sa(dp2006
g18
I9781256363552
sg19
VMcmurry
p2007
sg21
VPart of Set
p2008
sg23
VChemistry (Custom)
p2009
sg25
Nsg27
Nsg29
F164.4
sa(dp2010
g18
I9780321727268
sg19
VMcmurry
p2011
sg21
VPart of Set
p2012
sg23
VChemistry Students Solutions Manual
p2013
sg25
VPaperback
p2014
sg27
g173
sg29
F78.65
sa(dp2015
g18
I9780321729903
sg19
VPearson
p2016
sg21
VPart of Set
p2017
sg23
VMastering Chemistry Sac (No Ebook) T/A Mcmurry
p2018
sg25
VAccess Code
p2019
sg27
g173
sg29
F64.7
sasg43
V367561
p2020
sg2
VE-01
p2021
sa(dp2022
g13
VLabadzhyan
p2023
sg15
(lp2024
(dp2025
g18
I9781256287018
sg19
VMcmurry*
p2026
sg21
VRequired
p2027
sg23
VChemistry W/Masteringchemistry, Solutions Manual, & Iclicker Rebate
p2028
sg25
Nsg27
Nsg29
F201.15
sa(dp2029
g18
I9780321723437
sg19
VPearson
p2030
sg21
VPart of Set
p2031
sg23
VMasteringchemistry Access Code (W/E-Book)
p2032
sg25
Nsg27
Nsg29
F111.75
sa(dp2033
g18
I9781256363552
sg19
VMcmurry
p2034
sg21
VPart of Set
p2035
sg23
VChemistry (Custom)
p2036
sg25
Nsg27
Nsg29
F164.4
sa(dp2037
g18
I9780321727268
sg19
VMcmurry
p2038
sg21
VPart of Set
p2039
sg23
VChemistry Students Solutions Manual
p2040
sg25
VPaperback
p2041
sg27
g173
sg29
F78.65
sa(dp2042
g18
I9780321729903
sg19
VPearson
p2043
sg21
VPart of Set
p2044
sg23
VMastering Chemistry Sac (No Ebook) T/A Mcmurry
p2045
sg25
VAccess Code
p2046
sg27
g173
sg29
F64.7
sasg43
V367562
p2047
sg2
VE-02
p2048
sasg43
V97845
p2049
sg2
VCHM123
p2050
sa(dp2051
g10
(lp2052
(dp2053
g13
VPAGE
p2054
sg15
(lp2055
(dp2056
g18
I9780321633859
sg19
VBruice*
p2057
sg21
VRequired
p2058
sg23
VEssential Organic Chemistry W/S.G & Sol Man
p2059
sg25
VKit/Set/Package
p2060
sg27
g519
sg29
F173.05
sa(dp2061
g18
I9780321677013
sg19
VBruice (Db*)
p2062
sg21
VOptional
p2063
sg23
VEssential Organic Chemistry (Coursesmart Digital)
p2064
sg25
VEbook
p2065
sg27
g519
sg29
F99.0
sa(dp2066
g18
I9780321592583
sg19
VBruice
p2067
sg21
VPart of Set
p2068
sg23
VEssential Organic Chemistry S.G.  & Sol Man
p2069
sg25
VPaperback
p2070
sg27
g519
sg29
F74.35
sa(dp2071
g18
I9780321596956
sg19
VBruice
p2072
sg21
VPart of Set
p2073
sg23
VEssential Organic Chemistry
p2074
sg25
VHardback
p2075
sg27
g519
sg29
F173.05
sasg43
V367567
p2076
sg2
VE-01
p2077
sasg43
V97847
p2078
sg2
VCHM201
p2079
sa(dp2080
g10
(lp2081
(dp2082
g13
VSTRENG
p2083
sg15
(lp2084
(dp2085
g18
I9781429275033
sg19
VHarris
p2086
sg21
VRequired
p2087
sg23
VExploring Chemical Analysis
p2088
sg25
VPaperback
p2089
sg27
g416
sg29
F137.5
sa(dp2090
g18
I9781464106422
sg19
VHarris (Db*)
p2091
sg21
VOptional
p2092
sg23
VExploring Chemical Analysis (Coursesmart)
p2093
sg25
VEbook
p2094
sg27
g416
sg29
F56.0
sasg43
V367568
p2095
sg2
VE-01
p2096
sasg43
V97848
p2097
sg2
VCHM221
p2098
sa(dp2099
g10
(lp2100
(dp2101
g13
VFLORES
p2102
sg15
(lp2103
(dp2104
g18
I9780321647139
sg19
VWade*
p2105
sg21
VRequired
p2106
sg23
VOrganic Chemistry W/Ssm & Ace
p2107
sg25
VKit/Set/Package
p2108
sg27
g79
sg29
F270.25
sa(dp2109
g18
I9780321598745
sg19
VWade (Db*)
p2110
sg21
VOptional
p2111
sg23
VOrganic Chemistry (Coursesmart Digital)
p2112
sg25
VEbook
p2113
sg27
g79
sg29
F129.0
sa(dp2114
g18
I9780321592316
sg19
VWade
p2115
sg21
VPart of Set
p2116
sg23
VOrganic Chemistry
p2117
sg25
VHardback
p2118
sg27
g79
sg29
F216.2
sa(dp2119
g18
I9780321598714
sg19
VWade
p2120
sg21
VPart of Set
p2121
sg23
VOrganic Chemistry Sol Man
p2122
sg25
VPaperback
p2123
sg27
g79
sg29
F121.0
sa(dp2124
g18
I9780321616173
sg19
VWade
p2125
sg21
VPart of Set
p2126
sg23
VAce Acces Kit Organic Chemistry
p2127
sg25
VAccess Code
p2128
sg27
g79
sg29
F35.3
sasg43
V367576
p2129
sg2
VE-01
p2130
sasg43
V97851
p2131
sg2
VCHM314
p2132
sa(dp2133
g10
(lp2134
(dp2135
g13
VFLORES
p2136
sg15
(lp2137
(dp2138
g18
I9780321647139
sg19
VWade*
p2139
sg21
VRequired
p2140
sg23
VOrganic Chemistry W/Ssm & Ace
p2141
sg25
VKit/Set/Package
p2142
sg27
g79
sg29
F270.25
sa(dp2143
g18
I9780321598745
sg19
VWade (Db*)
p2144
sg21
VOptional
p2145
sg23
VOrganic Chemistry (Coursesmart Digital)
p2146
sg25
VEbook
p2147
sg27
g79
sg29
F129.0
sa(dp2148
g18
I9780321592316
sg19
VWade
p2149
sg21
VPart of Set
p2150
sg23
VOrganic Chemistry
p2151
sg25
VHardback
p2152
sg27
g79
sg29
F216.2
sa(dp2153
g18
I9780321598714
sg19
VWade
p2154
sg21
VPart of Set
p2155
sg23
VOrganic Chemistry Sol Man
p2156
sg25
VPaperback
p2157
sg27
g79
sg29
F121.0
sa(dp2158
g18
I9780321616173
sg19
VWade
p2159
sg21
VPart of Set
p2160
sg23
VAce Acces Kit Organic Chemistry
p2161
sg25
VAccess Code
p2162
sg27
g79
sg29
F35.3
sasg43
V367577
p2163
sg2
VE-01
p2164
sasg43
V97852
p2165
sg2
VCHM315
p2166
sa(dp2167
g10
(lp2168
(dp2169
g13
VKLAVETTER
p2170
sg15
(lp2171
(dp2172
g18
I9780321647139
sg19
VWade*
p2173
sg21
VRequired
p2174
sg23
VOrganic Chemistry W/Ssm & Ace
p2175
sg25
VKit/Set/Package
p2176
sg27
g79
sg29
F270.25
sa(dp2177
g18
I9780321598745
sg19
VWade (Db*)
p2178
sg21
VOptional
p2179
sg23
VOrganic Chemistry (Coursesmart Digital)
p2180
sg25
VEbook
p2181
sg27
g79
sg29
F129.0
sa(dp2182
g18
I9780321592316
sg19
VWade
p2183
sg21
VPart of Set
p2184
sg23
VOrganic Chemistry
p2185
sg25
VHardback
p2186
sg27
g79
sg29
F216.2
sa(dp2187
g18
I9780321598714
sg19
VWade
p2188
sg21
VPart of Set
p2189
sg23
VOrganic Chemistry Sol Man
p2190
sg25
VPaperback
p2191
sg27
g79
sg29
F121.0
sa(dp2192
g18
I9780321616173
sg19
VWade
p2193
sg21
VPart of Set
p2194
sg23
VAce Acces Kit Organic Chemistry
p2195
sg25
VAccess Code
p2196
sg27
g79
sg29
F35.3
sasg43
V367578
p2197
sg2
VE-01
p2198
sasg43
V97853
p2199
sg2
VCHM316
p2200
sa(dp2201
g10
(lp2202
(dp2203
g13
VOPOTOWSKY
p2204
sg15
(lp2205
(dp2206
g18
I9780199730841
sg19
VMckee
p2207
sg21
VRequired
p2208
sg23
VBiochemistry
p2209
sg25
VHardback
p2210
sg27
g416
sg29
F154.95
sa(dp2211
g18
I9780199730971
sg19
VMckee
p2212
sg21
VOptional
p2213
sg23
VBiochemistry St S.G/Sol Man
p2214
sg25
VPaperback
p2215
sg27
g416
sg29
F49.95
sasg43
V367583
p2216
sg2
VE-01
p2217
sasg43
V97857
p2218
sg2
VCHM321
p2219
sa(dp2220
g10
(lp2221
(dp2222
g13
VSTAFF
p2223
sg15
(lp2224
(dp2225
g18
I9781429224161
sg19
VNelson*
p2226
sg21
VRequired
p2227
sg23
VLehninger Principles Of Biochemistry W/E-Book Access Card
p2228
sg25
VKit/Set/Package
p2229
sg27
g416
sg29
F218.75
sa(dp2230
g18
I9781429225649
sg19
VNelson*
p2231
sg21
VRequired
p2232
sg23
VLehninger Principles Of Biochemistry (Loose-Leaf) W/E-Book Access Card
p2233
sg25
VKit/Set/Package
p2234
sg27
g416
sg29
F142.25
sa(dp2235
g18
I9781429228824
sg19
VNelson (Db*)
p2236
sg21
VOptional
p2237
sg23
VLehninger Principles Of Biochemistry  (Coursesmart Digital)
p2238
sg25
VEbook
p2239
sg27
g416
sg29
F120.0
sa(dp2240
g18
I9781429212410
sg19
VNelson
p2241
sg21
VOptional
p2242
sg23
VLehninger Principles Of Biochemistry S.G. & Sol Man
p2243
sg25
VPaperback
p2244
sg27
g416
sg29
F74.95
sa(dp2245
g18
I9780716771081
sg19
VNelson
p2246
sg21
VPart of Set
p2247
sg23
VLehninger Principles Of Biochemistry
p2248
sg25
VHardback
p2249
sg27
g416
sg29
F218.75
sa(dp2250
g18
I9781429212427
sg19
VNelson
p2251
sg21
VPart of Set
p2252
sg23
VLehninger Principles Of Biochemistry E-Book Access Card
p2253
sg25
Nsg27
Nsg29
F100.25
sasg43
V367590
p2254
sg2
VE-01
p2255
sasg43
V97859
p2256
sg2
VCHM329
p2257
sa(dp2258
g10
(lp2259
(dp2260
g13
VANZ
p2261
sg15
(lp2262
(dp2263
g18
I9780738045016
sg19
VCasalnuovo
p2264
sg21
VRequired
p2265
sg23
VChemistry 121L Lab Manual 2011-2012
p2266
sg25
Nsg27
Nsg29
F17.95
sasg43
V367551
p2267
sg2
VE-01
p2268
sa(dp2269
g13
VBogonko
p2270
sg15
(lp2271
(dp2272
g18
I9780738045016
sg19
VCasalnuovo
p2273
sg21
VRequired
p2274
sg23
VChemistry 121L Lab Manual 2011-2012
p2275
sg25
Nsg27
Nsg29
F17.95
sasg43
V367552
p2276
sg2
VE-02
p2277
sa(dp2278
g13
VLy
p2279
sg15
(lp2280
(dp2281
g18
I9780738045016
sg19
VCasalnuovo
p2282
sg21
VRequired
p2283
sg23
VChemistry 121L Lab Manual 2011-2012
p2284
sg25
Nsg27
Nsg29
F17.95
sasg43
V367553
p2285
sg2
VE-03
p2286
sa(dp2287
g13
VSTAFF,
p2288
sg15
(lp2289
(dp2290
g18
I9780738045016
sg19
VCasalnuovo
p2291
sg21
VRequired
p2292
sg23
VChemistry 121L Lab Manual 2011-2012
p2293
sg25
Nsg27
Nsg29
F17.95
sasg43
V367554
p2294
sg2
VE-04
p2295
sasg43
V97842
p2296
sg2
VCHM121L
p2297
sa(dp2298
g10
(lp2299
(dp2300
g13
VBERRY
p2301
sg15
(lp2302
(dp2303
g18
I9780738045009
sg19
VCasalnuovo
p2304
sg21
VRequired
p2305
sg23
VChemistry 122L Lab Manual 2011-2012
p2306
sg25
Nsg27
Nsg29
F17.95
sasg43
V367557
p2307
sg2
VE-01
p2308
sa(dp2309
g13
VANZ
p2310
sg15
(lp2311
(dp2312
g18
I9780738045009
sg19
VCasalnuovo
p2313
sg21
VRequired
p2314
sg23
VChemistry 122L Lab Manual 2011-2012
p2315
sg25
Nsg27
Nsg29
F17.95
sasg43
V367558
p2316
sg2
VE-02
p2317
sa(dp2318
g13
VSTAFF,
p2319
sg15
(lp2320
(dp2321
g18
I9780738045009
sg19
VCasalnuovo
p2322
sg21
VRequired
p2323
sg23
VChemistry 122L Lab Manual 2011-2012
p2324
sg25
Nsg27
Nsg29
F17.95
sasg43
V367559
p2325
sg2
VE-03
p2326
sa(dp2327
g13
VLy
p2328
sg15
(lp2329
(dp2330
g18
I9780738045009
sg19
VCasalnuovo
p2331
sg21
VRequired
p2332
sg23
VChemistry 122L Lab Manual 2011-2012
p2333
sg25
Nsg27
Nsg29
F17.95
sasg43
V367560
p2334
sg2
VE-04
p2335
sasg43
V97844
p2336
sg2
VCHM122L
p2337
sa(dp2338
g10
(lp2339
(dp2340
g13
VDANG
p2341
sg15
(lp2342
(dp2343
g18
I9780738044996
sg19
VCasalnuovo
p2344
sg21
VRequired
p2345
sg23
VChemistry 123L Lab Manual 2011-2012
p2346
sg25
Nsg27
Nsg29
F17.95
sasg43
V367563
p2347
sg2
VE-01
p2348
sa(dp2349
g13
VMargolese
p2350
sg15
(lp2351
(dp2352
g18
I9780738044996
sg19
VCasalnuovo
p2353
sg21
VRequired
p2354
sg23
VChemistry 123L Lab Manual 2011-2012
p2355
sg25
Nsg27
Nsg29
F17.95
sasg43
V367564
p2356
sg2
VE-02
p2357
sa(dp2358
g13
VMargolese
p2359
sg15
(lp2360
(dp2361
g18
I9780738044996
sg19
VCasalnuovo
p2362
sg21
VRequired
p2363
sg23
VChemistry 123L Lab Manual 2011-2012
p2364
sg25
Nsg27
Nsg29
F17.95
sasg43
V367565
p2365
sg2
VE-03
p2366
sa(dp2367
g13
VTERRAZAS
p2368
sg15
(lp2369
(dp2370
g18
I9780738044996
sg19
VCasalnuovo
p2371
sg21
VRequired
p2372
sg23
VChemistry 123L Lab Manual 2011-2012
p2373
sg25
Nsg27
Nsg29
F17.95
sasg43
V367566
p2374
sg2
VE-04
p2375
sasg43
V97846
p2376
sg2
VCHM123L
p2377
sa(dp2378
g10
(lp2379
(dp2380
g13
VTERRAZAS
p2381
sg15
(lp2382
sg43
V367569
p2383
sg2
VE-01
p2384
sa(dp2385
g13
VTERRAZAS
p2386
sg15
(lp2387
sg43
V367570
p2388
sg2
VE-02
p2389
sa(dp2390
g13
VSTRENG
p2391
sg15
(lp2392
sg43
V367571
p2393
sg2
VE-03
p2394
sasg43
V97849
p2395
sg2
VCHM221L
p2396
sa(dp2397
g10
(lp2398
(dp2399
g13
VDANG
p2400
sg15
(lp2401
sg43
V367572
p2402
sg2
VE-01
p2403
sa(dp2404
g13
VDANG
p2405
sg15
(lp2406
sg43
V367573
p2407
sg2
VE-02
p2408
sa(dp2409
g13
VSTAFF,
p2410
sg15
(lp2411
sg43
V367574
p2412
sg2
VE-03
p2413
sa(dp2414
g13
VSTAFF,
p2415
sg15
(lp2416
sg43
V367575
p2417
sg2
VE-04
p2418
sasg43
V97850
p2419
sg2
VCHM250L
p2420
sa(dp2421
g10
(lp2422
(dp2423
g13
VROBLEDO
p2424
sg15
(lp2425
(dp2426
g18
I9780470494370
sg19
VZubrick
p2427
sg21
VRequired
p2428
sg23
VOrganic Chem Lab Survival Manual
p2429
sg25
VPaperback
p2430
sg27
g28
sg29
F76.0
sa(dp2431
g18
I9780470565926
sg19
VZubrick (Db*)
p2432
sg21
VOptional
p2433
sg23
VOrganic Chem Lab Survival Manual (Coursesmart)
p2434
sg25
VEbook
p2435
sg27
g28
sg29
F37.5
sasg43
V367579
p2436
sg2
VE-01
p2437
sa(dp2438
g13
VSTAFF,
p2439
sg15
(lp2440
(dp2441
g18
I9780470494370
sg19
VZubrick
p2442
sg21
VRequired
p2443
sg23
VOrganic Chem Lab Survival Manual
p2444
sg25
VPaperback
p2445
sg27
g28
sg29
F76.0
sa(dp2446
g18
I9780470565926
sg19
VZubrick (Db*)
p2447
sg21
VOptional
p2448
sg23
VOrganic Chem Lab Survival Manual (Coursesmart)
p2449
sg25
VEbook
p2450
sg27
g28
sg29
F37.5
sasg43
V367580
p2451
sg2
VE-02
p2452
sasg43
V97854
p2453
sg2
VCHM317L
p2454
sa(dp2455
g10
(lp2456
(dp2457
g13
VFLORES
p2458
sg15
(lp2459
(dp2460
g18
I9780618824281
sg19
VWilliamson
p2461
sg21
VRequired
p2462
sg23
VMacroscale And Microscale--Selected Organic Experiments (Custom)
p2463
sg25
VNone
p2464
sg27
g594
sg29
F61.35
sa(dp2465
g18
I9780470494370
sg19
VZubrick
p2466
sg21
VRequired
p2467
sg23
VOrganic Chem Lab Survival Manual
p2468
sg25
VPaperback
p2469
sg27
g28
sg29
F76.0
sa(dp2470
g18
I9780470565926
sg19
VZubrick (Db*)
p2471
sg21
VOptional
p2472
sg23
VOrganic Chem Lab Survival Manual (Coursesmart)
p2473
sg25
VEbook
p2474
sg27
g28
sg29
F37.5
sasg43
V367581
p2475
sg2
VE-01
p2476
sasg43
V97855
p2477
sg2
VCHM318L
p2478
sa(dp2479
g10
(lp2480
(dp2481
g13
VFLORES
p2482
sg15
(lp2483
(dp2484
g18
I9780618824281
sg19
VWilliamson
p2485
sg21
VRequired
p2486
sg23
VMacroscale And Microscale--Selected Organic Experiments (Custom)
p2487
sg25
VNone
p2488
sg27
g594
sg29
F61.35
sa(dp2489
g18
I9780470494370
sg19
VZubrick
p2490
sg21
VRequired
p2491
sg23
VOrganic Chem Lab Survival Manual
p2492
sg25
VPaperback
p2493
sg27
g28
sg29
F76.0
sa(dp2494
g18
I9780470565926
sg19
VZubrick (Db*)
p2495
sg21
VOptional
p2496
sg23
VOrganic Chem Lab Survival Manual (Coursesmart)
p2497
sg25
VEbook
p2498
sg27
g28
sg29
F37.5
sasg43
V367582
p2499
sg2
VE-01
p2500
sasg43
V97856
p2501
sg2
VCHM319L
p2502
sa(dp2503
g10
(lp2504
(dp2505
g13
VOPOTOWSKY
p2506
sg15
(lp2507
sg43
V367584
p2508
sg2
VE-01
p2509
sa(dp2510
g13
VMCCOY
p2511
sg15
(lp2512
sg43
V367585
p2513
sg2
VE-02
p2514
sa(dp2515
g13
VOPOTOWSKY
p2516
sg15
(lp2517
sg43
V367586
p2518
sg2
VE-03
p2519
sa(dp2520
g13
VMCCOY
p2521
sg15
(lp2522
sg43
V367587
p2523
sg2
VE-04
p2524
sa(dp2525
g13
VSTAFF,
p2526
sg15
(lp2527
sg43
V367588
p2528
sg2
VE-05
p2529
sa(dp2530
g13
VSTAFF,
p2531
sg15
(lp2532
sg43
V367589
p2533
sg2
VE-06
p2534
sasg43
V97858
p2535
sg2
VCHM321L
p2536
sa(dp2537
g10
(lp2538
(dp2539
g13
VOPOTOWSKY
p2540
sg15
(lp2541
sg43
V367591
p2542
sg2
VE-01
p2543
sa(dp2544
g13
VOPOTOWSKY
p2545
sg15
(lp2546
sg43
V367592
p2547
sg2
VE-02
p2548
sasg43
V97860
p2549
sg2
VCHM329L
p2550
sasg473
VCHM
p2551
sg43
V4803
p2552
sg2
VCHEMISTRY
p2553
sa(dp2554
g7
(lp2555
(dp2556
g10
(lp2557
(dp2558
g13
VGUTHRIE
p2559
sg15
(lp2560
sg43
V379856
p2561
sg2
VE-01
p2562
sasg43
V97862
p2563
sg2
VCIS231
p2564
sa(dp2565
g10
(lp2566
(dp2567
g13
VGUTHRIE
p2568
sg15
(lp2569
(dp2570
g18
I9780077546779
sg19
VBaltzan*
p2571
sg21
VRequired
p2572
sg23
VBusiness-Driven Information Systems W/Connect (Custom)
p2573
sg25
Nsg27
Nsg29
F125.0
sa(dp2574
g18
I9780077546786
sg19
VBaltzan*
p2575
sg21
VRequired
p2576
sg23
VBusiness-Driven Information Systems (Looseleaf) W/Connect (Custom)
p2577
sg25
Nsg27
Nsg29
F119.0
sa(dp2578
g18
I9780077338350
sg19
VBaltzan/Mcgraw-Hill
p2579
sg21
VPart of Set
p2580
sg23
VConnect Access Code T/A Business Driven System Book
p2581
sg25
Nsg27
Nsg29
F47.05
sasg43
V379860
p2582
sg2
VE-02
p2583
sasg43
V97866
p2584
sg2
VCIS310
p2585
sa(dp2586
g10
(lp2587
(dp2588
g13
VHWANG
p2589
sg15
(lp2590
(dp2591
g18
I9780735627406
sg19
VNorthrup
p2592
sg21
VRequired
p2593
sg23
VWeb Applications Development With Microsoft.Net Framework 4
p2594
sg25
Nsg27
Nsg29
F70.0
sasg43
V379861
p2595
sg2
VE-01
p2596
sasg43
V97867
p2597
sg2
VCIS311
p2598
sasg473
VCIS
p2599
sg43
V4766
p2600
sg2
VCOMPUTER INFO SYST
p2601
sa(dp2602
g7
(lp2603
(dp2604
g10
(lp2605
(dp2606
g13
VSTAFF,
p2607
sg15
(lp2608
(dp2609
g18
I9781256518112
sg19
VFord-Brown*
p2610
sg21
VRequired
p2611
sg23
VDk Guide To Public Speaking W/Making The Grade, Myspeechlab, & Ren Your Writing
p2612
sg25
Nsg27
Nsg29
F78.55
sa(dp2613
g18
I9780205828067
sg19
VFord-Brown (Db*)
p2614
sg21
VOptional
p2615
sg23
VDk Guide To Public Speaking (Coursesmart)
p2616
sg25
Nsg27
Nsg29
F31.0
sa(dp2617
g18
I9780205750115
sg19
VFord-Brown
p2618
sg21
VPart of Set
p2619
sg23
VDk Guide To Public Speaking
p2620
sg25
Nsg27
Nsg29
F77.35
sa(dp2621
g18
I9780205890064
sg19
VPearson
p2622
sg21
VPart of Set
p2623
sg23
VMy Speechlab For Dk Guide To Public Speaking W/O Etext
p2624
sg25
Nsg27
Nsg29
F41.2
sa(dp2625
g18
I9780205254392
sg19
VKallan
p2626
sg21
VPart of Set
p2627
sg23
VRenovating Your Writing
p2628
sg25
Nsg27
Nsg29
F16.65
sasg43
V379866
p2629
sg2
V01
p2630
sa(dp2631
g13
VSTAFF
p2632
sg15
(lp2633
(dp2634
g18
I9781256518112
sg19
VFord-Brown*
p2635
sg21
VRequired
p2636
sg23
VDk Guide To Public Speaking W/Making The Grade, Myspeechlab, & Ren Your Writing
p2637
sg25
Nsg27
Nsg29
F78.55
sa(dp2638
g18
I9780205828067
sg19
VFord-Brown (Db*)
p2639
sg21
VOptional
p2640
sg23
VDk Guide To Public Speaking (Coursesmart)
p2641
sg25
Nsg27
Nsg29
F31.0
sa(dp2642
g18
I9780205750115
sg19
VFord-Brown
p2643
sg21
VPart of Set
p2644
sg23
VDk Guide To Public Speaking
p2645
sg25
Nsg27
Nsg29
F77.35
sa(dp2646
g18
I9780205890064
sg19
VPearson
p2647
sg21
VPart of Set
p2648
sg23
VMy Speechlab For Dk Guide To Public Speaking W/O Etext
p2649
sg25
Nsg27
Nsg29
F41.2
sa(dp2650
g18
I9780205254392
sg19
VKallan
p2651
sg21
VPart of Set
p2652
sg23
VRenovating Your Writing
p2653
sg25
Nsg27
Nsg29
F16.65
sasg43
V379867
p2654
sg2
V02
p2655
sa(dp2656
g13
VSTAFF
p2657
sg15
(lp2658
(dp2659
g18
I9781256518112
sg19
VFord-Brown*
p2660
sg21
VRequired
p2661
sg23
VDk Guide To Public Speaking W/Making The Grade, Myspeechlab, & Ren Your Writing
p2662
sg25
Nsg27
Nsg29
F78.55
sa(dp2663
g18
I9780205828067
sg19
VFord-Brown (Db*)
p2664
sg21
VOptional
p2665
sg23
VDk Guide To Public Speaking (Coursesmart)
p2666
sg25
Nsg27
Nsg29
F31.0
sa(dp2667
g18
I9780205750115
sg19
VFord-Brown
p2668
sg21
VPart of Set
p2669
sg23
VDk Guide To Public Speaking
p2670
sg25
Nsg27
Nsg29
F77.35
sa(dp2671
g18
I9780205890064
sg19
VPearson
p2672
sg21
VPart of Set
p2673
sg23
VMy Speechlab For Dk Guide To Public Speaking W/O Etext
p2674
sg25
Nsg27
Nsg29
F41.2
sa(dp2675
g18
I9780205254392
sg19
VKallan
p2676
sg21
VPart of Set
p2677
sg23
VRenovating Your Writing
p2678
sg25
Nsg27
Nsg29
F16.65
sasg43
V380104
p2679
sg2
V03
p2680
sasg43
V99367
p2681
sg2
VCOM100
p2682
sa(dp2683
g10
(lp2684
(dp2685
g13
VSTAFF,
p2686
sg15
(lp2687
(dp2688
g18
I9781256519089
sg19
VRybacki*
p2689
sg21
VRequired
p2690
sg23
VAdvocacy & Opposition W/Myspeechlab & Renovating Your Writing
p2691
sg25
Nsg27
Nsg29
F92.4
sa(dp2692
g18
I9780205781195
sg19
VRybacki (Db*)
p2693
sg21
VOptional
p2694
sg23
VAdvocacy & Opposition (Coursesmart)
p2695
sg25
VEbook
p2696
sg27
g79
sg29
F37.0
sa(dp2697
g18
I9780205781188
sg19
VRybacki
p2698
sg21
VPart of Set
p2699
sg23
VAdvocacy & Opposition
p2700
sg25
VPaperback
p2701
sg27
g79
sg29
F93.0
sa(dp2702
g18
I9780205254392
sg19
VKallan
p2703
sg21
VPart of Set
p2704
sg23
VRenovating Your Writing
p2705
sg25
Nsg27
Nsg29
F16.65
sasg43
V379868
p2706
sg2
V01
p2707
sa(dp2708
g13
VSTAFF
p2709
sg15
(lp2710
(dp2711
g18
I9781256519089
sg19
VRybacki*
p2712
sg21
VRequired
p2713
sg23
VAdvocacy & Opposition W/Myspeechlab & Renovating Your Writing
p2714
sg25
Nsg27
Nsg29
F92.4
sa(dp2715
g18
I9780205781195
sg19
VRybacki (Db*)
p2716
sg21
VOptional
p2717
sg23
VAdvocacy & Opposition (Coursesmart)
p2718
sg25
VEbook
p2719
sg27
g79
sg29
F37.0
sa(dp2720
g18
I9780205781188
sg19
VRybacki
p2721
sg21
VPart of Set
p2722
sg23
VAdvocacy & Opposition
p2723
sg25
VPaperback
p2724
sg27
g79
sg29
F93.0
sa(dp2725
g18
I9780205254392
sg19
VKallan
p2726
sg21
VPart of Set
p2727
sg23
VRenovating Your Writing
p2728
sg25
Nsg27
Nsg29
F16.65
sasg43
V379869
p2729
sg2
V02
p2730
sa(dp2731
g13
VSTAFF
p2732
sg15
(lp2733
(dp2734
g18
I9781256519089
sg19
VRybacki*
p2735
sg21
VRequired
p2736
sg23
VAdvocacy & Opposition W/Myspeechlab & Renovating Your Writing
p2737
sg25
Nsg27
Nsg29
F92.4
sa(dp2738
g18
I9780205781195
sg19
VRybacki (Db*)
p2739
sg21
VOptional
p2740
sg23
VAdvocacy & Opposition (Coursesmart)
p2741
sg25
VEbook
p2742
sg27
g79
sg29
F37.0
sa(dp2743
g18
I9780205781188
sg19
VRybacki
p2744
sg21
VPart of Set
p2745
sg23
VAdvocacy & Opposition
p2746
sg25
VPaperback
p2747
sg27
g79
sg29
F93.0
sa(dp2748
g18
I9780205254392
sg19
VKallan
p2749
sg21
VPart of Set
p2750
sg23
VRenovating Your Writing
p2751
sg25
Nsg27
Nsg29
F16.65
sasg43
V380105
p2752
sg2
V03
p2753
sasg43
V99368
p2754
sg2
VCOM204
p2755
sa(dp2756
g10
(lp2757
(dp2758
g13
VSTAFF
p2759
sg15
(lp2760
sg43
V379870
p2761
sg2
V01
p2762
sasg43
V99369
p2763
sg2
VCOM314
p2764
sa(dp2765
g10
(lp2766
(dp2767
g13
VSTAFF
p2768
sg15
(lp2769
(dp2770
g18
I9781412977821
sg19
VJowett
p2771
sg21
VRequired
p2772
sg23
VPropaganda & Persuasion
p2773
sg25
VPaperback
p2774
sg27
g416
sg29
F64.0
sasg43
V379871
p2775
sg2
V01
p2776
sasg43
V99370
p2777
sg2
VCOM413
p2778
sasg473
VCOM
p2779
sg43
V4808
p2780
sg2
VCOMMUNICATION
p2781
sa(dp2782
g7
(lp2783
(dp2784
g10
(lp2785
(dp2786
g13
VMunnerlyn
p2787
sg15
(lp2788
sg43
V370478
p2789
sg2
VE-01
p2790
sa(dp2791
g13
VMunnerlyn
p2792
sg15
(lp2793
sg43
V370479
p2794
sg2
VE-02
p2795
sasg43
V99343
p2796
sg2
VCPU100
p2797
sasg473
VCPU
p2798
sg43
V4769
p2799
sg2
VCAL POLY UNIVERSITY
p2800
sa(dp2801
g7
(lp2802
(dp2803
g10
(lp2804
(dp2805
g13
VRAHEJA
p2806
sg15
(lp2807
(dp2808
g18
I9780132576253
sg19
VGaddis
p2809
sg21
VRequired
p2810
sg23
VStarting Out With C++: From Control Struct Through Objects
p2811
sg25
VPaperback
p2812
sg27
g79
sg29
F126.55
sa(dp2813
g18
I9780132664837
sg19
VGaddis (Db*)
p2814
sg21
VOptional
p2815
sg23
VStarting Out With C++ From Control Structures Through Objects (Coursesmart)
p2816
sg25
VEbook
p2817
sg27
g79
sg29
F54.0
sasg43
V367604
p2818
sg2
VE-01
p2819
sasg43
V97871
p2820
sg2
VCS128
p2821
sa(dp2822
g10
(lp2823
(dp2824
g13
VYOUNG
p2825
sg15
(lp2826
(dp2827
g18
I9780716768647
sg19
VGersting
p2828
sg21
VRequired
p2829
sg23
VMathematical Structures For Computer Science
p2830
sg25
VHardback
p2831
sg27
g173
sg29
F155.0
sasg43
V367605
p2832
sg2
VE-01
p2833
sasg43
V97872
p2834
sg2
VCS130
p2835
sa(dp2836
g10
(lp2837
(dp2838
g13
VSTAFF
p2839
sg15
(lp2840
(dp2841
g18
I9780132855839
sg19
VGaddis
p2842
sg21
VRequired
p2843
sg23
VStarting Out W/Java: From Cont Struct Through Objects (W/Cd Only)
p2844
sg25
VPaperback
p2845
sg27
g416
sg29
F118.0
sa(dp2846
g18
I9780132855914
sg19
VGaddis (Db*)
p2847
sg21
VOptional
p2848
sg23
VJava Starting Out With Java C (Coursesmart)
p2849
sg25
VEbook
p2850
sg27
g416
sg29
F58.0
sasg43
V367606
p2851
sg2
VE-01
p2852
sasg43
V97873
p2853
sg2
VCS140
p2854
sa(dp2855
g10
(lp2856
(dp2857
g13
VSALLOUM
p2858
sg15
(lp2859
(dp2860
g18
I9780495471691
sg19
VRoth
p2861
sg21
VRequired
p2862
sg23
VFundamentals Of Logic Design (W/Cd)
p2863
sg25
VHardback
p2864
sg27
g173
sg29
F180.3
sa(dp2865
g18
I9780495873624
sg19
VRoth (Db*)
p2866
sg21
VOptional
p2867
sg23
VFundamentals Of Logic Design (Coursesmart Digital)
p2868
sg25
VEbook
p2869
sg27
g173
sg29
F102.5
sasg43
V367607
p2870
sg2
VE-01
p2871
sasg43
V97874
p2872
sg2
VCS210
p2873
sa(dp2874
g10
(lp2875
(dp2876
g13
VSALLOUM
p2877
sg15
(lp2878
(dp2879
g18
I9780132576246
sg19
VMain
p2880
sg21
VRequired
p2881
sg23
VData Structures & Other Objects Using Java
p2882
sg25
VPaperback
p2883
sg27
g594
sg29
F125.0
sa(dp2884
g18
I9780132576475
sg19
VMain (Db*)
p2885
sg21
VOptional
p2886
sg23
VData Structures & Other Objects Using Java (Coursesmart)
p2887
sg25
VEbook
p2888
sg27
g594
sg29
F50.0
sasg43
V367608
p2889
sg2
VE-01
p2890
sasg43
V97875
p2891
sg2
VCS240
p2892
sa(dp2893
g10
(lp2894
(dp2895
g13
VSTAFF
p2896
sg15
(lp2897
(dp2898
g18
I9780132576246
sg19
VMain
p2899
sg21
VRequired
p2900
sg23
VData Structures & Other Objects Using Java
p2901
sg25
VPaperback
p2902
sg27
g594
sg29
F125.0
sa(dp2903
g18
I9780132576475
sg19
VMain (Db*)
p2904
sg21
VOptional
p2905
sg23
VData Structures & Other Objects Using Java (Coursesmart)
p2906
sg25
VEbook
p2907
sg27
g594
sg29
F50.0
sasg43
V367609
p2908
sg2
VE-01
p2909
sasg43
V97876
p2910
sg2
VCS241
p2911
sa(dp2912
g10
(lp2913
(dp2914
g13
VYOUNG
p2915
sg15
(lp2916
sg43
V367610
p2917
sg2
VE-01
p2918
sasg43
V97877
p2919
sg2
VCS375
p2920
sasg473
VCS
p2921
sg43
V4770
p2922
sg2
VCOMPUTER SCIENCE
p2923
sa(dp2924
g7
(lp2925
(dp2926
g10
(lp2927
(dp2928
g13
VRUSH
p2929
sg15
(lp2930
(dp2931
g18
I9781429283427
sg19
VKrugman
p2932
sg21
VRequired
p2933
sg23
VMicroeconomics
p2934
sg25
VPaperback
p2935
sg27
g119
sg29
F172.15
sasg43
V367612
p2936
sg2
VE-01
p2937
sasg43
V97879
p2938
sg2
VEC201
p2939
sa(dp2940
g10
(lp2941
(dp2942
g13
VBROWN
p2943
sg15
(lp2944
(dp2945
g18
I9781429266598
sg19
VKrugman*
p2946
sg21
VRequired
p2947
sg23
VMacroeconomics California (Looseleaf) W/Econportal
p2948
sg25
VLooseleaf
p2949
sg27
g519
sg29
F94.7
sasg43
V367613
p2950
sg2
VE-01
p2951
sasg43
V97880
p2952
sg2
VEC202
p2953
sa(dp2954
g10
(lp2955
(dp2956
g13
VLANGE
p2957
sg15
(lp2958
sg43
V367614
p2959
sg2
VE-01
p2960
sasg43
V97944
p2961
sg2
VEC406
p2962
sa(dp2963
g10
(lp2964
(dp2965
g13
VBROWN
p2966
sg15
(lp2967
(dp2968
g18
I9780321533739
sg19
VEhrenberg
p2969
sg21
VRequired
p2970
sg23
VModern Labor Economics
p2971
sg25
VHardback
p2972
sg27
V10
p2973
sg29
F193.75
sa(dp2974
g18
I9780321550941
sg19
VEhrenberg (Db*)
p2975
sg21
VOptional
p2976
sg23
VModern Labor Economics (Coursesmart)
p2977
sg25
VEbook
p2978
sg27
V10
p2979
sg29
F83.0
sasg43
V367615
p2980
sg2
VE-01
p2981
sasg43
V97945
p2982
sg2
VEC414
p2983
sa(dp2984
g10
(lp2985
(dp2986
g13
VBRESNOCK
p2987
sg15
(lp2988
(dp2989
g18
I9780470393741
sg19
VEsty
p2990
sg21
VRequired
p2991
sg23
VGreen To Gold
p2992
sg25
Nsg27
Nsg29
F21.95
sasg43
V367616
p2993
sg2
VE-01
p2994
sasg43
V97881
p2995
sg2
VEC441
p2996
sasg473
VEC
p2997
sg43
V4819
p2998
sg2
VECONOMICS
p2999
sa(dp3000
g7
(lp3001
(dp3002
g10
(lp3003
(dp3004
g13
VFERGUSON  JR
p3005
sg15
(lp3006
(dp3007
g18
I9780077263195
sg19
VAlexander
p3008
sg21
VRequired
p3009
sg23
VFundamentals Of Electric Circuits
p3010
sg25
VHardback
p3011
sg27
g594
sg29
F196.25
sasg43
V367618
p3012
sg2
VE-01
p3013
sasg43
V97882
p3014
sg2
VECE109
p3015
sa(dp3016
g10
(lp3017
(dp3018
g13
VMONEMI
p3019
sg15
(lp3020
(dp3021
g18
I9780132165419
sg19
VDeitel
p3022
sg21
VRequired
p3023
sg23
VC++: How To Program: Late Objects Vers (W/Cd Only)
p3024
sg25
VPaperback
p3025
sg27
g79
sg29
F124.0
sa(dp3026
g18
I9780132177412
sg19
VDeitel (Db*)
p3027
sg21
VOptional
p3028
sg23
VC++ How To Program (Coursesmart)
p3029
sg25
VEbook
p3030
sg27
g79
sg29
F50.0
sasg43
V367620
p3031
sg2
VE-01
p3032
sasg43
V97884
p3033
sg2
VECE114
p3034
sa(dp3035
g10
(lp3036
(dp3037
g13
VSACCO
p3038
sg15
(lp3039
(dp3040
g18
I9780077211646
sg19
VBrown
p3041
sg21
VRequired
p3042
sg23
VFundamentals Of Digital Logic W/Verilog Design (W/Cd)
p3043
sg25
VCloth
p3044
sg27
g519
sg29
F180.95
sasg43
V367623
p3045
sg2
VE-01
p3046
sasg43
V97887
p3047
sg2
VECE205
p3048
sa(dp3049
g10
(lp3050
(dp3051
g13
VKANG
p3052
sg15
(lp3053
(dp3054
g18
I9780077263195
sg19
VAlexander
p3055
sg21
VRequired
p3056
sg23
VFundamentals Of Electric Circuits
p3057
sg25
VHardback
p3058
sg27
g594
sg29
F196.25
sasg43
V367625
p3059
sg2
VE-01
p3060
sasg43
V97889
p3061
sg2
VECE207
p3062
sa(dp3063
g10
(lp3064
(dp3065
g13
VCHANDRA
p3066
sg15
(lp3067
(dp3068
g18
I9780077263195
sg19
VAlexander
p3069
sg21
VRequired
p3070
sg23
VFundamentals Of Electric Circuits
p3071
sg25
VHardback
p3072
sg27
g594
sg29
F196.25
sasg43
V367627
p3073
sg2
VE-01
p3074
sasg43
V97891
p3075
sg2
VECE209
p3076
sa(dp3077
g10
(lp3078
(dp3079
g13
VOLSON
p3080
sg15
(lp3081
(dp3082
g18
I9780073380452
sg19
VJaeger
p3083
sg21
VRequired
p3084
sg23
VMicroelectronic Circuit Design
p3085
sg25
VHardback
p3086
sg27
g594
sg29
F188.15
sa(dp3087
g18
I9780077330040
sg19
VJaeger (Db*)
p3088
sg21
VOptional
p3089
sg23
VMicroelectronic Circuit Design (Coursesmart)
p3090
sg25
VEbook
p3091
sg27
g594
sg29
F105.5
sasg43
V367629
p3092
sg2
VE-01
p3093
sasg43
V97893
p3094
sg2
VECE220
p3095
sa(dp3096
g10
(lp3097
(dp3098
g13
VMONEMI
p3099
sg15
(lp3100
(dp3101
g18
I9780073380377
sg19
VRizzoni
p3102
sg21
VRequired
p3103
sg23
VFundamentals Of Electrical Engineering
p3104
sg25
Nsg27
Nsg29
F137.35
sa(dp3105
g18
I9780077272722
sg19
VRizzoni (Db*)
p3106
sg21
VOptional
p3107
sg23
VFundamentals Of Electrical Engineering (Coursesmart Digital)
p3108
sg25
Nsg27
Nsg29
F77.0
sasg43
V367632
p3109
sg2
VE-01
p3110
sasg43
V97895
p3111
sg2
VECE231
p3112
sa(dp3113
g10
(lp3114
(dp3115
g13
VLIN
p3116
sg15
(lp3117
(dp3118
g18
I9780132165419
sg19
VDeitel
p3119
sg21
VRequired
p3120
sg23
VC++: How To Program: Late Objects Vers (W/Cd Only)
p3121
sg25
VPaperback
p3122
sg27
g79
sg29
F124.0
sa(dp3123
g18
I9780132177412
sg19
VDeitel (Db*)
p3124
sg21
VOptional
p3125
sg23
VC++ How To Program (Coursesmart)
p3126
sg25
VEbook
p3127
sg27
g79
sg29
F50.0
sasg43
V367634
p3128
sg2
VE-01
p3129
sasg43
V97897
p3130
sg2
VECE256
p3131
sa(dp3132
g10
(lp3133
(dp3134
g13
VCHANDRA
p3135
sg15
(lp3136
(dp3137
g18
I9780470767856
sg19
VGilat
p3138
sg21
VRequired
p3139
sg23
VMatlab
p3140
sg25
VPaperback
p3141
sg27
g594
sg29
F104.0
sa(dp3142
g18
I9780470919491
sg19
VGilat (Db*)
p3143
sg21
VOptional
p3144
sg23
VMatlab (Coursesmart)
p3145
sg25
VEbook
p3146
sg27
g594
sg29
F50.5
sasg43
V367635
p3147
sg2
VE-01
p3148
sasg43
V97898
p3149
sg2
VECE257
p3150
sa(dp3151
g10
(lp3152
(dp3153
g13
VSACCO,
p3154
sg15
(lp3155
(dp3156
g18
I9780201566116
sg19
VCheng
p3157
sg21
VRequired
p3158
sg23
VFundamentals Of Engineering Electromagnetics
p3159
sg25
Nsg27
Nsg29
F174.4
sasg43
V367636
p3160
sg2
VE-01
p3161
sa(dp3162
g13
VKETSEOGLOU
p3163
sg15
(lp3164
(dp3165
g18
I9780201566116
sg19
VCheng
p3166
sg21
VRequired
p3167
sg23
VFundamentals Of Engineering Electromagnetics
p3168
sg25
Nsg27
Nsg29
F174.4
sasg43
V367637
p3169
sg2
VE-02
p3170
sasg43
V97899
p3171
sg2
VECE302
p3172
sa(dp3173
g10
(lp3174
(dp3175
g13
VLIN
p3176
sg15
(lp3177
sg43
V367638
p3178
sg2
VE-01
p3179
sasg43
V97947
p3180
sg2
VECE304
p3181
sa(dp3182
g10
(lp3183
(dp3184
g13
VCHENG
p3185
sg15
(lp3186
(dp3187
g18
I9780131873742
sg19
VProakis
p3188
sg21
VRequired
p3189
sg23
VDigital Signal Processing
p3190
sg25
VHardback
p3191
sg27
g594
sg29
F165.0
sasg43
V367639
p3192
sg2
VE-01
p3193
sa(dp3194
g13
VKETSEOGLOU
p3195
sg15
(lp3196
(dp3197
g18
I9780131873742
sg19
VProakis
p3198
sg21
VRequired
p3199
sg23
VDigital Signal Processing
p3200
sg25
VHardback
p3201
sg27
g594
sg29
F165.0
sasg43
V367640
p3202
sg2
VE-02
p3203
sasg43
V97900
p3204
sg2
VECE306
p3205
sa(dp3206
g10
(lp3207
(dp3208
g13
VALIYAZICIOGLU
p3209
sg15
(lp3210
(dp3211
g18
I9780077263195
sg19
VAlexander
p3212
sg21
VRequired
p3213
sg23
VFundamentals Of Electric Circuits
p3214
sg25
VHardback
p3215
sg27
g594
sg29
F196.25
sasg43
V367643
p3216
sg2
VE-01
p3217
sasg43
V97902
p3218
sg2
VECE307
p3219
sa(dp3220
g10
(lp3221
(dp3222
g13
VCHENG
p3223
sg15
(lp3224
(dp3225
g18
I9780470547564
sg19
VNise
p3226
sg21
VRequired
p3227
sg23
VControl Systems Engineering
p3228
sg25
VHardback
p3229
sg27
g173
sg29
F191.25
sa(dp3230
g18
I9780470926024
sg19
VNise (Db*)
p3231
sg21
VOptional
p3232
sg23
VControl Systems Engineering (Coursesmart)
p3233
sg25
VEbook
p3234
sg27
g173
sg29
F102.5
sasg43
V367644
p3235
sg2
VE-01
p3236
sasg43
V97903
p3237
sg2
VECE309
p3238
sa(dp3239
g10
(lp3240
(dp3241
g13
VFERGUSON  JR
p3242
sg15
(lp3243
(dp3244
g18
I9780471272144
sg19
VYates
p3245
sg21
VRequired
p3246
sg23
VProbability & Stochastic Processes
p3247
sg25
VCloth
p3248
sg27
g519
sg29
F167.5
sa(dp3249
g18
I9780470592526
sg19
VYates (Db*)
p3250
sg21
VOptional
p3251
sg23
VProbability & Stochastic Processes (Coursesmart Digital)
p3252
sg25
VEbook
p3253
sg27
g519
sg29
F93.5
sasg43
V367646
p3254
sg2
VE-01
p3255
sa(dp3256
g13
VKETSEOGLOU
p3257
sg15
(lp3258
(dp3259
g18
I9780471272144
sg19
VYates
p3260
sg21
VRequired
p3261
sg23
VProbability & Stochastic Processes
p3262
sg25
VCloth
p3263
sg27
g519
sg29
F167.5
sa(dp3264
g18
I9780470592526
sg19
VYates (Db*)
p3265
sg21
VOptional
p3266
sg23
VProbability & Stochastic Processes (Coursesmart Digital)
p3267
sg25
VEbook
p3268
sg27
g519
sg29
F93.5
sasg43
V367647
p3269
sg2
VE-02
p3270
sasg43
V97905
p3271
sg2
VECE315
p3272
sa(dp3273
g10
(lp3274
(dp3275
g13
VCOCKRUM
p3276
sg15
(lp3277
(dp3278
g18
I9780073380452
sg19
VJaeger
p3279
sg21
VRequired
p3280
sg23
VMicroelectronic Circuit Design
p3281
sg25
VHardback
p3282
sg27
g594
sg29
F188.15
sa(dp3283
g18
I9780077330040
sg19
VJaeger (Db*)
p3284
sg21
VOptional
p3285
sg23
VMicroelectronic Circuit Design (Coursesmart)
p3286
sg25
VEbook
p3287
sg27
g594
sg29
F105.5
sasg43
V367648
p3288
sg2
VE-01
p3289
sasg43
V97906
p3290
sg2
VECE320
p3291
sa(dp3292
g10
(lp3293
(dp3294
g13
VOLSON
p3295
sg15
(lp3296
(dp3297
g18
I9780072283655
sg19
VHodges
p3298
sg21
VRequired
p3299
sg23
VAnalysis & Design Of Digital Integrated Circuits
p3300
sg25
VHardback
p3301
sg27
g119
sg29
F213.15
sasg43
V367651
p3302
sg2
VE-01
p3303
sasg43
V97908
p3304
sg2
VECE325
p3305
sa(dp3306
g10
(lp3307
(dp3308
g13
VOLSON
p3309
sg15
(lp3310
(dp3311
g18
I9780201543933
sg19
VPierret
p3312
sg21
VRequired
p3313
sg23
VSemiconductor Device Fundamentals
p3314
sg25
Nsg27
Nsg29
F149.0
sasg43
V367653
p3315
sg2
VE-01
p3316
sasg43
V97910
p3317
sg2
VECE330
p3318
sa(dp3319
g10
(lp3320
(dp3321
g13
VRAFIQUZZAMAN,
p3322
sg15
(lp3323
(dp3324
g18
I9780470380314
sg19
VRafiquzzaman
p3325
sg21
VRequired
p3326
sg23
VMicroprocessor Theory And Applications W/68000/68020 & Pentium
p3327
sg25
Nsg27
Nsg29
F152.0
sasg43
V367656
p3328
sg2
VE-01
p3329
sasg43
V97913
p3330
sg2
VECE343
p3331
sa(dp3332
g10
(lp3333
(dp3334
g13
VALIYAZICIOGLU
p3335
sg15
(lp3336
sg43
V367659
p3337
sg2
VE-01
p3338
sasg43
V97915
p3339
sg2
VECE405
p3340
sa(dp3341
g10
(lp3342
(dp3343
g13
VKANG
p3344
sg15
(lp3345
(dp3346
g18
I9780131873742
sg19
VProakis
p3347
sg21
VRequired
p3348
sg23
VDigital Signal Processing
p3349
sg25
VHardback
p3350
sg27
g594
sg29
F165.0
sasg43
V367661
p3351
sg2
VE-01
p3352
sasg43
V97917
p3353
sg2
VECE408
p3354
sa(dp3355
g10
(lp3356
(dp3357
g13
VLIN
p3358
sg15
(lp3359
(dp3360
g18
I9780132575669
sg19
VDeitel
p3361
sg21
VRequired
p3362
sg23
VJava: How To Program (W/Cd)
p3363
sg25
VPaperback
p3364
sg27
g1113
sg29
F126.55
sa(dp3365
g18
I9780132625043
sg19
VDeitel (Db*)
p3366
sg21
VOptional
p3367
sg23
VJava How To Program (Coursesmart)
p3368
sg25
VEbook
p3369
sg27
g1113
sg29
F54.0
sasg43
V367662
p3370
sg2
VE-01
p3371
sasg43
V97918
p3372
sg2
VECE429
p3373
sa(dp3374
g10
(lp3375
(dp3376
g13
VCOCKRUM
p3377
sg15
(lp3378
sg43
V367663
p3379
sg2
VE-01
p3380
sa(dp3381
g13
VALIYAZICIOGLU
p3382
sg15
(lp3383
sg43
V367664
p3384
sg2
VE-02
p3385
sasg43
V97919
p3386
sg2
VECE464
p3387
sa(dp3388
g10
(lp3389
(dp3390
g13
VFERGUSON  JR
p3391
sg15
(lp3392
sg43
V367619
p3393
sg2
VE-01
p3394
sasg43
V97883
p3395
sg2
VECE109L
p3396
sa(dp3397
g10
(lp3398
(dp3399
g13
VMONEMI
p3400
sg15
(lp3401
sg43
V367621
p3402
sg2
VE-01
p3403
sasg43
V97885
p3404
sg2
VECE114L
p3405
sa(dp3406
g10
(lp3407
(dp3408
g13
VSACCO
p3409
sg15
(lp3410
sg43
V367624
p3411
sg2
VE-01
p3412
sasg43
V97888
p3413
sg2
VECE205L
p3414
sa(dp3415
g10
(lp3416
(dp3417
g13
VALIYAZICIOGLU
p3418
sg15
(lp3419
sg43
V367626
p3420
sg2
VE-01
p3421
sasg43
V97890
p3422
sg2
VECE207L
p3423
sa(dp3424
g10
(lp3425
(dp3426
g13
VKANG
p3427
sg15
(lp3428
sg43
V367628
p3429
sg2
VE-01
p3430
sasg43
V97892
p3431
sg2
VECE209L
p3432
sa(dp3433
g10
(lp3434
(dp3435
g13
VMASSOUDI
p3436
sg15
(lp3437
sg43
V367630
p3438
sg2
VE-01
p3439
sa(dp3440
g13
VMASSOUDI,
p3441
sg15
(lp3442
sg43
V367631
p3443
sg2
VE-02
p3444
sasg43
V97894
p3445
sg2
VECE220L
p3446
sa(dp3447
g10
(lp3448
(dp3449
g13
VMONEMI
p3450
sg15
(lp3451
sg43
V367633
p3452
sg2
VE-01
p3453
sasg43
V97896
p3454
sg2
VECE231L
p3455
sa(dp3456
g10
(lp3457
(dp3458
g13
VCHENG
p3459
sg15
(lp3460
sg43
V367641
p3461
sg2
VE-01
p3462
sa(dp3463
g13
VALIYAZICIOGLU
p3464
sg15
(lp3465
sg43
V367642
p3466
sg2
VE-02
p3467
sasg43
V97901
p3468
sg2
VECE306L
p3469
sa(dp3470
g10
(lp3471
(dp3472
g13
VKANG
p3473
sg15
(lp3474
sg43
V367645
p3475
sg2
VE-01
p3476
sasg43
V97904
p3477
sg2
VECE309L
p3478
sa(dp3479
g10
(lp3480
(dp3481
g13
VMASSOUDI
p3482
sg15
(lp3483
sg43
V367649
p3484
sg2
VE-01
p3485
sa(dp3486
g13
VMASSOUDI,
p3487
sg15
(lp3488
sg43
V367650
p3489
sg2
VE-02
p3490
sasg43
V97907
p3491
sg2
VECE320L
p3492
sa(dp3493
g10
(lp3494
(dp3495
g13
VOLSON
p3496
sg15
(lp3497
sg43
V367652
p3498
sg2
VE-01
p3499
sasg43
V97909
p3500
sg2
VECE325L
p3501
sa(dp3502
g10
(lp3503
(dp3504
g13
VRAFIQUZZAMAN,
p3505
sg15
(lp3506
sg43
V367657
p3507
sg2
VE-01
p3508
sasg43
V97914
p3509
sg2
VECE343L
p3510
sa(dp3511
g10
(lp3512
(dp3513
g13
VKETSEOGLOU
p3514
sg15
(lp3515
sg43
V367660
p3516
sg2
VE-01
p3517
sasg43
V97916
p3518
sg2
VECE405L
p3519
sasg473
VECE
p3520
sg43
V4774
p3521
sg2
VELEC & COMP ENGR
p3522
sa(dp3523
g7
(lp3524
(dp3525
g10
(lp3526
(dp3527
g13
VLaubie
p3528
sg15
(lp3529
(dp3530
g18
I9780072866377
sg19
VTaylor
p3531
sg21
VRequired
p3532
sg23
VExceptional Students
p3533
sg25
Nsg27
Nsg29
F141.25
sa(dp3534
g18
I9780077267322
sg19
VTaylor (Db*)
p3535
sg21
VOptional
p3536
sg23
VExceptional Students (Coursesmart Digital)
p3537
sg25
Nsg27
Nsg29
F79.25
sasg43
V367665
p3538
sg2
VE-01
p3539
sasg43
V97930
p3540
sg2
VEDS403
p3541
sasg473
VEDS
p3542
sg43
V4834
p3543
sg2
VEDUCATION SPECIALIST
p3544
sa(dp3545
g7
(lp3546
(dp3547
g10
(lp3548
(dp3549
g13
VSTAFF
p3550
sg15
(lp3551
sg43
V367666
p3552
sg2
VE-01
p3553
sasg43
V97949
p3554
sg2
VEDU510
p3555
sa(dp3556
g10
(lp3557
(dp3558
g13
VSTAFF
p3559
sg15
(lp3560
sg43
V367668
p3561
sg2
VE-01
p3562
sasg43
V97920
p3563
sg2
VEDU520
p3564
sa(dp3565
g10
(lp3566
(dp3567
g13
VSTAFF
p3568
sg15
(lp3569
sg43
V367667
p3570
sg2
VE-01
p3571
sasg43
V97950
p3572
sg2
VEDU510A
p3573
sasg473
VEDU
p3574
sg43
V4812
p3575
sg2
VEDUC LEADERSHIP
p3576
sa(dp3577
g7
(lp3578
(dp3579
g10
(lp3580
(dp3581
g13
VDAVIS JR
p3582
sg15
(lp3583
(dp3584
g18
I9780451191137
sg19
VRand
p3585
sg21
VRequired
p3586
sg23
VAnthem (Centennial Edition)
p3587
sg25
Nsg27
Nsg29
F8.0
sasg43
V367669
p3588
sg2
VE-01
p3589
sa(dp3590
g13
VDAVIS JR
p3591
sg15
(lp3592
(dp3593
g18
I9780451191137
sg19
VRand
p3594
sg21
VRequired
p3595
sg23
VAnthem (Centennial Edition)
p3596
sg25
Nsg27
Nsg29
F8.0
sasg43
V367670
p3597
sg2
VE-02
p3598
sasg43
V97921
p3599
sg2
VEGR402
p3600
sa(dp3601
g10
(lp3602
(dp3603
g13
VABOLFAZLI
p3604
sg15
(lp3605
(dp3606
g18
I9780199836765
sg19
VNewnan*
p3607
sg21
VRequired
p3608
sg23
VEngineering Economic Analysis W/S.G. & Cd
p3609
sg25
VKit/Set/Package
p3610
sg27
V11
p3611
sg29
F120.0
sa(dp3612
g18
I9780199778126
sg19
VNewnan
p3613
sg21
VPart of Set
p3614
sg23
VEngineering Econ Analysis (W/Cd)
p3615
sg25
VHardback
p3616
sg27
V11
p3617
sg29
F120.0
sa(dp3618
g18
I9780199778195
sg19
VNewnan
p3619
sg21
VPart of Set
p3620
sg23
VEngineering Econ Analysis S.G.
p3621
sg25
VPaperback
p3622
sg27
V11
p3623
sg29
F19.95
sasg43
V367671
p3624
sg2
VE-01
p3625
sasg43
V97922
p3626
sg2
VEGR403
p3627
sa(dp3628
g10
(lp3629
(dp3630
g13
VTULACZ
p3631
sg15
(lp3632
(dp3633
g18
I9781888689136
sg19
VJosephson
p3634
sg21
VRequired
p3635
sg23
VMaking Ethical Decisions (Item # 500450)
p3636
sg25
Nsg27
Nsg29
F17.3
sasg43
V379888
p3637
sg2
VE-01
p3638
sasg43
V99387
p3639
sg2
VEGR445
p3640
sasg473
VEGR
p3641
sg43
V4817
p3642
sg2
VENGINEERING
p3643
sa(dp3644
g7
(lp3645
(dp3646
g10
(lp3647
(dp3648
g13
VStaff, Staff
p3649
sg15
(lp3650
(dp3651
g18
I9780132409667
sg19
VAzar
p3652
sg21
VRequired
p3653
sg23
VBasic English Grammar W/Cd W/O Ak
p3654
sg25
VPaperback
p3655
sg27
g119
sg29
F58.35
sa(dp3656
g18
I9780131995574
sg19
VButler
p3657
sg21
VRequired
p3658
sg23
VFundamentals Of Academic Writing Level 1
p3659
sg25
Nsg27
Nsg29
F46.8
sa(dp3660
g18
I9780521858137
sg19
VRichards*
p3661
sg21
VRequired
p3662
sg23
VInterchange Bk 1 W/Cd & Workbook (Value Pack)
p3663
sg25
Nsg27
Nsg29
F40.8
sasg43
V379828
p3664
sg2
VREF
p3665
sasg43
V99360
p3666
sg2
VELI001
p3667
sa(dp3668
g10
(lp3669
(dp3670
g13
VStaff, Staff
p3671
sg15
(lp3672
(dp3673
g18
I9780132414883
sg19
VHogue
p3674
sg21
VRequired
p3675
sg23
VFirst Steps In Academic Writing Level 2
p3676
sg25
VPaperback
p3677
sg27
g519
sg29
F46.8
sa(dp3678
g18
I9780132546485
sg19
VFuchs
p3679
sg21
VRequired
p3680
sg23
VFocus On Grammar 3
p3681
sg25
VPaperback
p3682
sg27
g594
sg29
F58.0
sa(dp3683
g18
I9780194756112
sg19
VBrooks
p3684
sg21
VRequired
p3685
sg23
VQ: Skills For Success-Listening & Speaking 2
p3686
sg25
Nsg27
Nsg29
F59.95
sa(dp3687
g18
I9780138143886
sg19
VJeffries
p3688
sg21
VRequired
p3689
sg23
VReading Power 2
p3690
sg25
VPaperback
p3691
sg27
g594
sg29
F45.0
sasg43
V379829
p3692
sg2
VREF
p3693
sasg43
V99361
p3694
sg2
VELI002
p3695
sa(dp3696
g10
(lp3697
(dp3698
g13
VStaff, Staff
p3699
sg15
(lp3700
(dp3701
g18
I9780132221504
sg19
VDingle
p3702
sg21
VRequired
p3703
sg23
VVocabulary Power 2
p3704
sg25
Nsg27
Nsg29
F25.45
sa(dp3705
g18
I9780132546492
sg19
VFuchs
p3706
sg21
VRequired
p3707
sg23
VFocus On Grammar 4 (W/Cd Only)
p3708
sg25
VPaperback
p3709
sg27
g594
sg29
F58.0
sa(dp3710
g18
I9780131933958
sg19
VOshima
p3711
sg21
VRequired
p3712
sg23
VIntro To Academic Writing Level 3
p3713
sg25
VPaperback
p3714
sg27
g119
sg29
F46.8
sa(dp3715
g18
I9780194756129
sg19
VCraven
p3716
sg21
VRequired
p3717
sg23
VQ: Skills For Success-Listening & Speaking 3
p3718
sg25
Nsg27
Nsg29
F59.95
sa(dp3719
g18
I9780132089036
sg19
VJeffries
p3720
sg21
VRequired
p3721
sg23
VMore Reading Power 3
p3722
sg25
VPaperback
p3723
sg27
g119
sg29
F45.0
sasg43
V379830
p3724
sg2
VREF
p3725
sasg43
V99362
p3726
sg2
VELI003
p3727
sa(dp3728
g10
(lp3729
(dp3730
g13
VStaff, Staff
p3731
sg15
(lp3732
(dp3733
g18
I9780131523593
sg19
VOshima
p3734
sg21
VRequired
p3735
sg23
VWriting Academic English
p3736
sg25
VPaperback
p3737
sg27
g594
sg29
F46.8
sa(dp3738
g18
I9780132431781
sg19
VDingle
p3739
sg21
VRequired
p3740
sg23
VVocabulary Power 3
p3741
sg25
Nsg27
Nsg29
F25.45
sa(dp3742
g18
I9780132546508
sg19
VMaurer
p3743
sg21
VRequired
p3744
sg23
VFocus On Grammar 5 (W/Cd)
p3745
sg25
VPaperback
p3746
sg27
g594
sg29
F58.0
sa(dp3747
g18
I9780131990272
sg19
VMikulecky
p3748
sg21
VRequired
p3749
sg23
VAdvanced Reading Power 4
p3750
sg25
Nsg27
Nsg29
F45.0
sa(dp3751
g18
I9780194756136
sg19
VFreire
p3752
sg21
VRequired
p3753
sg23
VQ: Skills For Success-Listening & Speaking 4
p3754
sg25
Nsg27
Nsg29
F59.95
sasg43
V379831
p3755
sg2
VREF
p3756
sasg43
V99363
p3757
sg2
VELI004
p3758
sa(dp3759
g10
(lp3760
(dp3761
g13
VStaff, Staff
p3762
sg15
(lp3763
(dp3764
g18
I9780472088560
sg19
VSwales
p3765
sg21
VRequired
p3766
sg23
VAcademic Writing For Graduate Students
p3767
sg25
VPaperback
p3768
sg27
g519
sg29
F23.95
sa(dp3769
g18
I9780143114550
sg19
VKidd
p3770
sg21
VRequired
p3771
sg23
VSecret Life Of Bees (Movie Tie-In)
p3772
sg25
Nsg27
Nsg29
F15.0
sa(dp3773
g18
I9780194756044
sg19
VEarle-Carlin
p3774
sg21
VRequired
p3775
sg23
VQ: Skills For Success-Listening & Speaking 2
p3776
sg25
Nsg27
Nsg29
F59.95
sasg43
V379832
p3777
sg2
VREF
p3778
sasg43
V99364
p3779
sg2
VELI005
p3780
sa(dp3781
g10
(lp3782
(dp3783
g13
VStaff, Staff
p3784
sg15
(lp3785
(dp3786
g18
I9780062737335
sg19
VRavitch
p3787
sg21
VRequired
p3788
sg23
VAmerican Reader (2Nd)
p3789
sg25
Nsg27
Nsg29
F20.0
sa(dp3790
g18
I9780312650315
sg19
VLunsford
p3791
sg21
VRequired
p3792
sg23
VEasy Writer W/2009 Mla & Apa Updates
p3793
sg25
VSpiral
p3794
sg27
g594
sg29
F28.65
sa(dp3795
g18
I9780077421298
sg19
VSherman
p3796
sg21
VRequired
p3797
sg23
VWest Vol 1: To 1715
p3798
sg25
Nsg27
Nsg29
F81.0
sasg43
V379833
p3799
sg2
VREF
p3800
sasg43
V99365
p3801
sg2
VELIBRIDGE
p3802
sasg473
VELI
p3803
sg43
V4777
p3804
sg2
VENGLISH LANG INST
p3805
sa(dp3806
g7
(lp3807
(dp3808
g10
(lp3809
(dp3810
g13
VSTAFF
p3811
sg15
(lp3812
sg43
V367672
p3813
sg2
VE-01
p3814
sa(dp3815
g13
VSTAFF
p3816
sg15
(lp3817
sg43
V367673
p3818
sg2
VE-02
p3819
sa(dp3820
g13
VSTAFF
p3821
sg15
(lp3822
sg43
V380191
p3823
sg2
VE-03
p3824
sasg43
V97923
p3825
sg2
VENG095
p3826
sa(dp3827
g10
(lp3828
(dp3829
g13
VSTAFF
p3830
sg15
(lp3831
sg43
V367674
p3832
sg2
VE-01
p3833
sa(dp3834
g13
VSTAFF
p3835
sg15
(lp3836
sg43
V367675
p3837
sg2
VE-02
p3838
sa(dp3839
g13
VSTAFF
p3840
sg15
(lp3841
sg43
V367676
p3842
sg2
VE-03
p3843
sa(dp3844
g13
VSTAFF
p3845
sg15
(lp3846
sg43
V367677
p3847
sg2
VE-04
p3848
sasg43
V97924
p3849
sg2
VENG096
p3850
sa(dp3851
g10
(lp3852
(dp3853
g13
VGRISWOLD
p3854
sg15
(lp3855
(dp3856
g18
I9781405820295
sg19
VLongman
p3857
sg21
VRequired
p3858
sg23
VLongman Advanced American Dictionary New Ed
p3859
sg25
Nsg27
Nsg29
F51.75
sa(dp3860
g18
I9781413008456
sg19
VHouck
p3861
sg21
VRequired
p3862
sg23
VGrammar Connection 4
p3863
sg25
Nsg27
Nsg29
F52.0
sasg43
V367678
p3864
sg2
VE-01
p3865
sasg43
V97925
p3866
sg2
VENG098
p3867
sa(dp3868
g10
(lp3869
(dp3870
g13
VGRISWOLD
p3871
sg15
(lp3872
(dp3873
g18
I9781405820295
sg19
VLongman
p3874
sg21
VRequired
p3875
sg23
VLongman Advanced American Dictionary New Ed
p3876
sg25
Nsg27
Nsg29
F51.75
sasg43
V367680
p3877
sg2
VE-01
p3878
sa(dp3879
g13
VRUSSIKOFF
p3880
sg15
(lp3881
sg43
V367681
p3882
sg2
VE-02
p3883
sasg43
V97926
p3884
sg2
VENG099
p3885
sa(dp3886
g10
(lp3887
(dp3888
g13
VCortina, Tim
p3889
sg15
(lp3890
(dp3891
g18
I9780077300753
sg19
VMaimon
p3892
sg21
VRequired
p3893
sg23
VWriter's Resource Includes 2009 Mla Update
p3894
sg25
VSpiral
p3895
sg27
g119
sg29
F67.35
sa(dp3896
g18
I9780321871893
sg19
VGoshgarian
p3897
sg21
VRequired
p3898
sg23
VContemporary Reader
p3899
sg25
VPaperback
p3900
sg27
V11
p3901
sg29
F76.4
sasg43
V367682
p3902
sg2
VE-01
p3903
sa(dp3904
g13
VVandegrift, Leonard
p3905
sg15
(lp3906
(dp3907
g18
I9780312447496
sg19
VLunsford
p3908
sg21
VRequired
p3909
sg23
VEverything's An Argument
p3910
sg25
VPaperback
p3911
sg27
g594
sg29
F42.7
sa(dp3912
g18
I9781439082485
sg19
VTrimmer
p3913
sg21
VRequired
p3914
sg23
VRiver Reader
p3915
sg25
VPaperback
p3916
sg27
V10
p3917
sg29
F77.35
sasg43
V367683
p3918
sg2
VE-02
p3919
sa(dp3920
g13
VSTAFF
p3921
sg15
(lp3922
sg43
V367684
p3923
sg2
VE-03
p3924
sasg43
V97927
p3925
sg2
VENG104
p3926
sa(dp3927
g10
(lp3928
(dp3929
g13
VSTAFF,
p3930
sg15
(lp3931
(dp3932
g18
I9780312570910
sg19
VBartholomae
p3933
sg21
VRequired
p3934
sg23
VWays Of Reading
p3935
sg25
VPaperback
p3936
sg27
g1113
sg29
F64.65
sa(dp3937
g18
I9780393911510
sg19
VBullock
p3938
sg21
VRequired
p3939
sg23
VLittle Seagull Handbook
p3940
sg25
Nsg27
Nsg29
F25.35
sasg43
V367685
p3941
sg2
VE-01
p3942
sa(dp3943
g13
VSTAFF,
p3944
sg15
(lp3945
(dp3946
g18
I9780312570910
sg19
VBartholomae
p3947
sg21
VRequired
p3948
sg23
VWays Of Reading
p3949
sg25
VPaperback
p3950
sg27
g1113
sg29
F64.65
sa(dp3951
g18
I9780393911510
sg19
VBullock
p3952
sg21
VRequired
p3953
sg23
VLittle Seagull Handbook
p3954
sg25
Nsg27
Nsg29
F25.35
sasg43
V367686
p3955
sg2
VE-02
p3956
sasg43
V97928
p3957
sg2
VENG105
p3958
sa(dp3959
g10
(lp3960
(dp3961
g13
VSTAFF,
p3962
sg15
(lp3963
(dp3964
g18
I9780802150615
sg19
VOe
p3965
sg21
VRequired
p3966
sg23
VPersonal Matter
p3967
sg25
Nsg27
Nsg29
F12.0
sa(dp3968
g18
I9780385722209
sg19
VSijie
p3969
sg21
VRequired
p3970
sg23
VBalzac & The Little Chinese Seamstress
p3971
sg25
Nsg27
Nsg29
F11.95
sa(dp3972
g18
I9781405100496
sg19
VMatz
p3973
sg21
VRequired
p3974
sg23
VModern Novel
p3975
sg25
Nsg27
Nsg29
F24.95
sa(dp3976
g18
I9780743267489
sg19
VSwarup
p3977
sg21
VRequired
p3978
sg23
VQ & A : A Novel (Slumdog Millionaire)
p3979
sg25
Nsg27
Nsg29
F15.0
sa(dp3980
g18
I9781400076949
sg19
VAdichie
p3981
sg21
VRequired
p3982
sg23
VPurple Hibiscus
p3983
sg25
Nsg27
Nsg29
F14.95
sa(dp3984
g18
I9780140031928
sg19
VKerouac
p3985
sg21
VRequired
p3986
sg23
VOn The Road
p3987
sg25
Nsg27
Nsg29
F5.95
sasg43
V367687
p3988
sg2
VE-01
p3989
sasg43
V97929
p3990
sg2
VENG201
p3991
sasg473
VENG
p3992
sg43
V4832
p3993
sg2
VENGLISH
p3994
sa(dp3995
g7
(lp3996
(dp3997
g10
(lp3998
(dp3999
g13
VSTAFF
p4000
sg15
(lp4001
sg43
V379872
p4002
sg2
VE-01
p4003
sa(dp4004
g13
VSTAFF
p4005
sg15
(lp4006
sg43
V379873
p4007
sg2
VE-02
p4008
sasg43
V99376
p4009
sg2
VESE5
p4010
sa(dp4011
g10
(lp4012
(dp4013
g13
VSTAFF
p4014
sg15
(lp4015
sg43
V380192
p4016
sg2
VE-01
p4017
sa(dp4018
g13
VSTAFF
p4019
sg15
(lp4020
sg43
V380193
p4021
sg2
VE-02
p4022
sa(dp4023
g13
VSTAFF
p4024
sg15
(lp4025
sg43
V380194
p4026
sg2
VE-03
p4027
sasg43
V100645
p4028
sg2
VESE095
p4029
sasg473
VESE
p4030
sg43
V4837
p4031
sg2
VESE
p4032
sa(dp4033
g7
(lp4034
(dp4035
g10
(lp4036
(dp4037
g13
VSTAFF
p4038
sg15
(lp4039
sg43
V380195
p4040
sg2
VE-01
p4041
sa(dp4042
g13
VSTAFF
p4043
sg15
(lp4044
sg43
V380196
p4045
sg2
VE-02
p4046
sasg43
V100646
p4047
sg2
VESM010
p4048
sa(dp4049
g10
(lp4050
(dp4051
g13
VSHIRLEY
p4052
sg15
(lp4053
sg43
V380197
p4054
sg2
VE-01
p4055
sa(dp4056
g13
VSHIRLEY
p4057
sg15
(lp4058
sg43
V380198
p4059
sg2
VE-02
p4060
sa(dp4061
g13
VSTAFF
p4062
sg15
(lp4063
sg43
V380199
p4064
sg2
VE-11
p4065
sa(dp4066
g13
VSTAFF
p4067
sg15
(lp4068
sg43
V380200
p4069
sg2
VE-21
p4070
sasg43
V100647
p4071
sg2
VESM011
p4072
sa(dp4073
g10
(lp4074
(dp4075
g13
VSTAFF
p4076
sg15
(lp4077
sg43
V380201
p4078
sg2
VE-01
p4079
sa(dp4080
g13
VGRIFFITH
p4081
sg15
(lp4082
sg43
V380202
p4083
sg2
VE-02
p4084
sa(dp4085
g13
VSTAFF
p4086
sg15
(lp4087
sg43
V380203
p4088
sg2
VE-11
p4089
sa(dp4090
g13
VSTAFF
p4091
sg15
(lp4092
sg43
V380204
p4093
sg2
VE-21
p4094
sasg43
V100648
p4095
sg2
VESM012
p4096
sasg473
VESM
p4097
sg43
V4838
p4098
sg2
VESM
p4099
sa(dp4100
g7
(lp4101
(dp4102
g10
(lp4103
(dp4104
g13
VBABIKIAN
p4105
sg15
(lp4106
sg43
V379874
p4107
sg2
VE-01
p4108
sasg43
V99371
p4109
sg2
VETC130
p4110
sa(dp4111
g10
(lp4112
(dp4113
g13
VBABIKIAN
p4114
sg15
(lp4115
sg43
V379876
p4116
sg2
VE-01
p4117
sasg43
V99373
p4118
sg2
VETC305
p4119
sa(dp4120
g10
(lp4121
(dp4122
g13
VSALEM
p4123
sg15
(lp4124
sg43
V380205
p4125
sg2
VE-01
p4126
sasg43
V99377
p4127
sg2
VETC311
p4128
sa(dp4129
g10
(lp4130
(dp4131
g13
VSALEM
p4132
sg15
(lp4133
sg43
V380107
p4134
sg2
VE-01
p4135
sasg43
V99374
p4136
sg2
VETC316
p4137
sa(dp4138
g10
(lp4139
(dp4140
g13
VSALEM
p4141
sg15
(lp4142
sg43
V380108
p4143
sg2
VE-01
p4144
sasg43
V99378
p4145
sg2
VETC499
p4146
sa(dp4147
g10
(lp4148
(dp4149
g13
VBABIKIAN
p4150
sg15
(lp4151
sg43
V379875
p4152
sg2
VE-01
p4153
sasg43
V99372
p4154
sg2
VETC130L
p4155
sasg473
VETC
p4156
sg43
V4833
p4157
sg2
VENGR TECH/CONSTRUCT
p4158
sa(dp4159
g7
(lp4160
(dp4161
g10
(lp4162
(dp4163
g13
VQAYYUM
p4164
sg15
(lp4165
sg43
V379880
p4166
sg2
VE-01
p4167
sasg43
V99375
p4168
sg2
VETE499
p4169
sa(dp4170
g10
(lp4171
(dp4172
g13
VQAYYUM
p4173
sg15
(lp4174
sg43
V379889
p4175
sg2
VE-01
p4176
sasg43
V99388
p4177
sg2
VETE499L
p4178
sasg473
VETE
p4179
sg43
V4781
p4180
sg2
VENGR TECH/ELECTRONIC
p4181
sa(dp4182
g7
(lp4183
(dp4184
g10
(lp4185
(dp4186
g13
VBABIKIAN
p4187
sg15
(lp4188
sg43
V379890
p4189
sg2
VE-01
p4190
sasg43
V99389
p4191
sg2
VETT210
p4192
sa(dp4193
g10
(lp4194
(dp4195
g13
VQAYYUM
p4196
sg15
(lp4197
sg43
V379891
p4198
sg2
VE-01
p4199
sasg43
V99390
p4200
sg2
VETT215
p4201
sa(dp4202
g10
(lp4203
(dp4204
g13
VSTAFF
p4205
sg15
(lp4206
sg43
V379893
p4207
sg2
VE-21
p4208
sasg43
V99392
p4209
sg2
VETT217
p4210
sa(dp4211
g10
(lp4212
(dp4213
g13
VSTAFF
p4214
sg15
(lp4215
sg43
V379895
p4216
sg2
VE-21
p4217
sasg43
V99393
p4218
sg2
VETT220
p4219
sa(dp4220
g10
(lp4221
(dp4222
g13
VKAUSER
p4223
sg15
(lp4224
sg43
V379898
p4225
sg2
VE-11
p4226
sasg43
V99395
p4227
sg2
VETT310
p4228
sa(dp4229
g10
(lp4230
(dp4231
g13
VSTAFF
p4232
sg15
(lp4233
sg43
V379900
p4234
sg2
VE-21
p4235
sasg43
V99397
p4236
sg2
VETT499
p4237
sa(dp4238
g10
(lp4239
(dp4240
g13
VQAYYUM
p4241
sg15
(lp4242
sg43
V379892
p4243
sg2
VE-01
p4244
sasg43
V99391
p4245
sg2
VETT215L
p4246
sa(dp4247
g10
(lp4248
(dp4249
g13
VSTAFF
p4250
sg15
(lp4251
sg43
V379896
p4252
sg2
VE-21
p4253
sasg43
V99394
p4254
sg2
VETT220L
p4255
sa(dp4256
g10
(lp4257
(dp4258
g13
VKAUSER
p4259
sg15
(lp4260
sg43
V379899
p4261
sg2
VE-11
p4262
sasg43
V99396
p4263
sg2
VETT310L
p4264
sasg473
VETT
p4265
sg43
V4818
p4266
sg2
VENGINEERING TECH
p4267
sa(dp4268
g7
(lp4269
(dp4270
g10
(lp4271
(dp4272
g13
VSTAFF
p4273
sg15
(lp4274
sg43
V367688
p4275
sg2
VE-01
p4276
sasg43
V97724
p4277
sg2
VEWS140
p4278
sa(dp4279
g10
(lp4280
(dp4281
g13
VSTAFF
p4282
sg15
(lp4283
sg43
V367689
p4284
sg2
VE-04
p4285
sasg43
V97725
p4286
sg2
VEWS375
p4287
sa(dp4288
g10
(lp4289
(dp4290
g13
VREESE
p4291
sg15
(lp4292
sg43
V367692
p4293
sg2
VE-O2
p4294
sasg43
V97727
p4295
sg2
VEWS499
p4296
sasg473
VEWS
p4297
sg43
V4695
p4298
sg2
VETHNIC & WOMEN'S ST
p4299
sa(dp4300
g7
(lp4301
(dp4302
g10
(lp4303
(dp4304
g13
VMATHIAS
p4305
sg15
(lp4306
(dp4307
g18
I9780470534786
sg19
VKimmel
p4308
sg21
VRequired
p4309
sg23
VAccounting
p4310
sg25
VHardback
p4311
sg27
g594
sg29
F230.0
sa(dp4312
g18
I9780470919859
sg19
VKimmel (Db*)
p4313
sg21
VOptional
p4314
sg23
VAccounting (Coursesmart)
p4315
sg25
VEbook
p4316
sg27
g594
sg29
F120.5
sasg43
V367693
p4317
sg2
VE-02
p4318
sasg43
V97728
p4319
sg2
VFMA224
p4320
sasg473
VFMA
p4321
sg43
V4697
p4322
sg2
VFOOD MKTNG & AGRIB
p4323
sa(dp4324
g7
(lp4325
(dp4326
g10
(lp4327
(dp4328
g13
VGORDON
p4329
sg15
(lp4330
(dp4331
g18
I9780538736558
sg19
VHales
p4332
sg21
VRequired
p4333
sg23
VInvitation To Health (14Th)
p4334
sg25
Nsg27
Nsg29
F142.2
sa(dp4335
g18
I9781111180300
sg19
VHales (Db*)
p4336
sg21
VOptional
p4337
sg23
VInvitation To Health (Coursesmart Digital)
p4338
sg25
VEbook
p4339
sg27
g594
sg29
F77.0
sasg43
V367694
p4340
sg2
VE-01
p4341
sa(dp4342
g13
VMazhar
p4343
sg15
(lp4344
(dp4345
g18
I9780538736558
sg19
VHales
p4346
sg21
VRequired
p4347
sg23
VInvitation To Health (14Th)
p4348
sg25
Nsg27
Nsg29
F142.2
sa(dp4349
g18
I9781111180300
sg19
VHales (Db*)
p4350
sg21
VOptional
p4351
sg23
VInvitation To Health (Coursesmart Digital)
p4352
sg25
VEbook
p4353
sg27
g594
sg29
F77.0
sasg43
V367695
p4354
sg2
VE-02
p4355
sasg43
V97729
p4356
sg2
VFN203
p4357
sa(dp4358
g10
(lp4359
(dp4360
g13
VWALLACE
p4361
sg15
(lp4362
(dp4363
g18
I9780495115410
sg19
VKittler
p4364
sg21
VRequired
p4365
sg23
VFood & Culture
p4366
sg25
VPaperback
p4367
sg27
g416
sg29
F139.4
sa(dp4368
g18
I9780495588214
sg19
VKittler (Db*)
p4369
sg21
VOptional
p4370
sg23
VFood & Culture  (Coursesmart Digital)
p4371
sg25
VEbook
p4372
sg27
g416
sg29
F75.5
sasg43
V367696
p4373
sg2
VE-01
p4374
sa(dp4375
g13
VSTAFF
p4376
sg15
(lp4377
(dp4378
g18
I9780495115410
sg19
VKittler
p4379
sg21
VRequired
p4380
sg23
VFood & Culture
p4381
sg25
VPaperback
p4382
sg27
g416
sg29
F139.4
sa(dp4383
g18
I9780495588214
sg19
VKittler (Db*)
p4384
sg21
VOptional
p4385
sg23
VFood & Culture  (Coursesmart Digital)
p4386
sg25
VEbook
p4387
sg27
g416
sg29
F75.5
sasg43
V367697
p4388
sg2
VE-02
p4389
sa(dp4390
g13
VIlkay
p4391
sg15
(lp4392
(dp4393
g18
I9780495115410
sg19
VKittler
p4394
sg21
VRequired
p4395
sg23
VFood & Culture
p4396
sg25
VPaperback
p4397
sg27
g416
sg29
F139.4
sa(dp4398
g18
I9780495588214
sg19
VKittler (Db*)
p4399
sg21
VOptional
p4400
sg23
VFood & Culture  (Coursesmart Digital)
p4401
sg25
VEbook
p4402
sg27
g416
sg29
F75.5
sasg43
V367698
p4403
sg2
VE-23
p4404
sasg43
V97730
p4405
sg2
VFN228
p4406
sa(dp4407
g10
(lp4408
(dp4409
g13
VMCCABE
p4410
sg15
(lp4411
(dp4412
g18
I9781449675226
sg19
VInsel
p4413
sg21
VRequired
p4414
sg23
VNutrition Myplate Update
p4415
sg25
VHardback
p4416
sg27
g594
sg29
F164.05
sasg43
V367699
p4417
sg2
VE-01
p4418
sasg43
V97731
p4419
sg2
VFN235
p4420
sa(dp4421
g10
(lp4422
(dp4423
g13
VIlkay
p4424
sg15
(lp4425
(dp4426
g18
I9781133159377
sg19
VSizer*
p4427
sg21
VRequired
p4428
sg23
VNutrition (Looseleaf) W/ Diet Analysis 10.0
p4429
sg25
VKit/Set/Package
p4430
sg27
V12
p4431
sg29
F126.25
sa(dp4432
g18
I9780757594212
sg19
VIlkay
p4433
sg21
VOptional
p4434
sg23
VFinding Your Weigh To A Healthy Lifestyle
p4435
sg25
Nsg27
Nsg29
F38.0
sa(dp4436
g18
I9780538495080
sg19
VEsha Research
p4437
sg21
VPart of Set
p4438
sg23
VDiet Analysis + Version 10.0 (Access Card Only)(New Only)
p4439
sg25
Nsg27
Nsg29
F47.35
sa(dp4440
g18
I9781133153337
sg19
VSizer
p4441
sg21
VPart of Set
p4442
sg23
VNutrition (Custom Looseleaf)
p4443
sg25
VLooseleaf
p4444
sg27
V12
p4445
sg29
F110.6
sasg43
V367700
p4446
sg2
VE-01
p4447
sa(dp4448
g13
VMazhar
p4449
sg15
(lp4450
(dp4451
g18
I9781133159377
sg19
VSizer*
p4452
sg21
VRequired
p4453
sg23
VNutrition (Looseleaf) W/ Diet Analysis 10.0
p4454
sg25
VKit/Set/Package
p4455
sg27
V12
p4456
sg29
F126.25
sa(dp4457
g18
I9780538495080
sg19
VEsha Research
p4458
sg21
VPart of Set
p4459
sg23
VDiet Analysis + Version 10.0 (Access Card Only)(New Only)
p4460
sg25
Nsg27
Nsg29
F47.35
sa(dp4461
g18
I9781133153337
sg19
VSizer
p4462
sg21
VPart of Set
p4463
sg23
VNutrition (Custom Looseleaf)
p4464
sg25
VLooseleaf
p4465
sg27
V12
p4466
sg29
F110.6
sasg43
V367701
p4467
sg2
VE-02
p4468
sa(dp4469
g13
VGORDON
p4470
sg15
(lp4471
(dp4472
g18
I9781133159377
sg19
VSizer*
p4473
sg21
VRequired
p4474
sg23
VNutrition (Looseleaf) W/ Diet Analysis 10.0
p4475
sg25
VKit/Set/Package
p4476
sg27
V12
p4477
sg29
F126.25
sa(dp4478
g18
I9780538495080
sg19
VEsha Research
p4479
sg21
VPart of Set
p4480
sg23
VDiet Analysis + Version 10.0 (Access Card Only)(New Only)
p4481
sg25
Nsg27
Nsg29
F47.35
sa(dp4482
g18
I9781133153337
sg19
VSizer
p4483
sg21
VPart of Set
p4484
sg23
VNutrition (Custom Looseleaf)
p4485
sg25
VLooseleaf
p4486
sg27
V12
p4487
sg29
F110.6
sasg43
V367702
p4488
sg2
VE-23
p4489
sasg43
V97732
p4490
sg2
VFN305
p4491
sa(dp4492
g10
(lp4493
(dp4494
g13
VSTAFF
p4495
sg15
(lp4496
sg43
V379822
p4497
sg2
VE-01
p4498
sa(dp4499
g13
VSTAFF
p4500
sg15
(lp4501
sg43
V379823
p4502
sg2
VE-02
p4503
sa(dp4504
g13
VSTAFF
p4505
sg15
(lp4506
sg43
V379824
p4507
sg2
VE-03
p4508
sasg43
V99354
p4509
sg2
VFN694
p4510
sa(dp4511
g10
(lp4512
(dp4513
g13
VSTAFF
p4514
sg15
(lp4515
sg43
V379825
p4516
sg2
VE-01
p4517
sasg43
V99355
p4518
sg2
VFN696
p4519
sasg473
VFN
p4520
sg43
V4698
p4521
sg2
VFOODS & NUTRITION
p4522
sa(dp4523
g7
(lp4524
(dp4525
g10
(lp4526
(dp4527
g13
VPEREZ
p4528
sg15
(lp4529
(dp4530
g18
I9780538470827
sg19
VClarkson
p4531
sg21
VRequired
p4532
sg23
VBusiness Law
p4533
sg25
VHardback
p4534
sg27
V12
p4535
sg29
F255.65
sa(dp4536
g18
I9781133297833
sg19
VClarkson*
p4537
sg21
VRequired
p4538
sg23
VBusiness Law (California Ed.) W/Aplia
p4539
sg25
VKit/Set/Package
p4540
sg27
V12
p4541
sg29
F171.25
sa(dp4542
g18
I9781111547295
sg19
VClarkson (Db*)
p4543
sg21
VOptional
p4544
sg23
VBusiness Law (Coursesmart)
p4545
sg25
VEbook
p4546
sg27
V12
p4547
sg29
F138.0
sasg43
V379901
p4548
sg2
VE-01
p4549
sasg43
V97733
p4550
sg2
VFRL201
p4551
sa(dp4552
g10
(lp4553
(dp4554
g13
VSTAFF
p4555
sg15
(lp4556
(dp4557
g18
I9780077694913
sg19
VRoss*
p4558
sg21
VRequired
p4559
sg23
VFundamentals Of Corporate Finance Vol. 1 Custom Looseleaf W/Connect Access Code
p4560
sg25
VLooseleaf
p4561
sg27
V10
p4562
sg29
F60.8
sa(dp4563
g18
I9780077694968
sg19
VMcgraw
p4564
sg21
VPart of Set
p4565
sg23
VConnect Access Code T/A Fundamentals Of Corp Finance (No E-Book)
p4566
sg25
Nsg27
Nsg29
F52.95
sasg43
V379902
p4567
sg2
VE-01
p4568
sa(dp4569
g13
VSTAFF
p4570
sg15
(lp4571
(dp4572
g18
I9780077694913
sg19
VRoss*
p4573
sg21
VRequired
p4574
sg23
VFundamentals Of Corporate Finance Vol. 1 Custom Looseleaf W/Connect Access Code
p4575
sg25
VLooseleaf
p4576
sg27
V10
p4577
sg29
F60.8
sa(dp4578
g18
I9780077694968
sg19
VMcgraw
p4579
sg21
VPart of Set
p4580
sg23
VConnect Access Code T/A Fundamentals Of Corp Finance (No E-Book)
p4581
sg25
Nsg27
Nsg29
F52.95
sasg43
V379903
p4582
sg2
VE-02
p4583
sasg43
V97734
p4584
sg2
VFRL300
p4585
sa(dp4586
g10
(lp4587
(dp4588
g13
VMCCLURE
p4589
sg15
(lp4590
(dp4591
g18
I9780077954079
sg19
VRoss* (Sw2)
p4592
sg21
VRequired
p4593
sg23
VFundamentals Of Corporate Finance Alt. Ed W/Connect Access Card & Csucpp Supp
p4594
sg25
VKit/Set/Package
p4595
sg27
g1113
sg29
F137.0
sa(dp4596
g18
I9780077296483
sg19
VRoss (Db*)
p4597
sg21
VOptional
p4598
sg23
VFundamentals Of Corporate Finance Alt (Coursesmart Digital)
p4599
sg25
Nsg27
Nsg29
F122.75
sa(dp4600
g18
I9780077246129
sg19
VRoss
p4601
sg21
VPart of Set
p4602
sg23
VFundamentals Of Corporate Finance Alt Ed
p4603
sg25
VHardback
p4604
sg27
g1113
sg29
F176.25
sa(dp4605
g18
I9780077326869
sg19
VRoss
p4606
sg21
VPart of Set
p4607
sg23
VConnect Access T/A Fundamentals Of Corp. Finance
p4608
sg25
VAccess Code
p4609
sg27
g1113
sg29
F58.8
sasg43
V379904
p4610
sg2
VE-01
p4611
sa(dp4612
g13
VKASHEFINEJAD
p4613
sg15
(lp4614
(dp4615
g18
I9780077954079
sg19
VRoss* (Sw2)
p4616
sg21
VRequired
p4617
sg23
VFundamentals Of Corporate Finance Alt. Ed W/Connect Access Card & Csucpp Supp
p4618
sg25
VKit/Set/Package
p4619
sg27
g1113
sg29
F137.0
sa(dp4620
g18
I9780077296483
sg19
VRoss (Db*)
p4621
sg21
VOptional
p4622
sg23
VFundamentals Of Corporate Finance Alt (Coursesmart Digital)
p4623
sg25
Nsg27
Nsg29
F122.75
sa(dp4624
g18
I9780077246129
sg19
VRoss
p4625
sg21
VPart of Set
p4626
sg23
VFundamentals Of Corporate Finance Alt Ed
p4627
sg25
VHardback
p4628
sg27
g1113
sg29
F176.25
sa(dp4629
g18
I9780077326869
sg19
VRoss
p4630
sg21
VPart of Set
p4631
sg23
VConnect Access T/A Fundamentals Of Corp. Finance
p4632
sg25
VAccess Code
p4633
sg27
g1113
sg29
F58.8
sasg43
V379905
p4634
sg2
VE-02
p4635
sasg43
V97735
p4636
sg2
VFRL301
p4637
sa(dp4638
g10
(lp4639
(dp4640
g13
VYOUNG
p4641
sg15
(lp4642
(dp4643
g18
I9780538470827
sg19
VClarkson
p4644
sg21
VRequired
p4645
sg23
VBusiness Law
p4646
sg25
VHardback
p4647
sg27
V12
p4648
sg29
F255.65
sa(dp4649
g18
I9781133297833
sg19
VClarkson*
p4650
sg21
VRequired
p4651
sg23
VBusiness Law (California Ed.) W/Aplia
p4652
sg25
VKit/Set/Package
p4653
sg27
V12
p4654
sg29
F171.25
sa(dp4655
g18
I9781111547295
sg19
VClarkson (Db*)
p4656
sg21
VOptional
p4657
sg23
VBusiness Law (Coursesmart)
p4658
sg25
VEbook
p4659
sg27
V12
p4660
sg29
F138.0
sasg43
V379906
p4661
sg2
VE-01
p4662
sasg43
V97736
p4663
sg2
VFRL302
p4664
sa(dp4665
g10
(lp4666
(dp4667
g13
VSTAFF
p4668
sg15
(lp4669
(dp4670
g18
I9780073377322
sg19
VLing
p4671
sg21
VRequired
p4672
sg23
VReal Estate Principles
p4673
sg25
VHardback
p4674
sg27
g119
sg29
F160.0
sa(dp4675
g18
I9780077296353
sg19
VLing (Db*)
p4676
sg21
VOptional
p4677
sg23
VReal Estate Principles (Coursesmart Digital)
p4678
sg25
VEbook
p4679
sg27
g119
sg29
F92.5
sasg43
V379907
p4680
sg2
VE-01
p4681
sasg43
V97737
p4682
sg2
VFRL306
p4683
sa(dp4684
g10
(lp4685
(dp4686
g13
VSARMAS
p4687
sg15
(lp4688
(dp4689
g18
I9780077606794
sg19
VRoss*
p4690
sg21
VRequired
p4691
sg23
VCorporate Finance W/Connect Plus
p4692
sg25
VKit/Set/Package
p4693
sg27
g1113
sg29
F255.0
sa(dp4694
g18
I9780077296384
sg19
VRoss (Db*)
p4695
sg21
VOptional
p4696
sg23
VCorporate Finance (Coursesmart)
p4697
sg25
VEbook
p4698
sg27
g1113
sg29
F127.25
sa(dp4699
g18
I9780077333386
sg19
VRoss
p4700
sg21
VPart of Set
p4701
sg23
VConnect Plus Access Card
p4702
sg25
Nsg27
Nsg29
F94.1
sa(dp4703
g18
I9780073382333
sg19
VRoss
p4704
sg21
VPart of Set
p4705
sg23
VCorporate Finance
p4706
sg25
VHardback
p4707
sg27
g1113
sg29
F228.75
sasg43
V379908
p4708
sg2
VE-01
p4709
sasg43
V97738
p4710
sg2
VFRL367
p4711
sa(dp4712
g10
(lp4713
(dp4714
g13
VWelke
p4715
sg15
(lp4716
(dp4717
g18
I9780073377339
sg19
VBrueggeman
p4718
sg21
VRequired
p4719
sg23
VReal Estate Finance & Investments
p4720
sg25
VHardback
p4721
sg27
V14
p4722
sg29
F185.3
sa(dp4723
g18
I9780077375256
sg19
VBrueggeman (Db*)
p4724
sg21
VOptional
p4725
sg23
VReal Estate Finance & Investments (Coursesmart)
p4726
sg25
VEbook
p4727
sg27
g594
sg29
F107.0
sasg43
V379909
p4728
sg2
VE-01
p4729
sasg43
V99398
p4730
sg2
VFRL383
p4731
sa(dp4732
g10
(lp4733
(dp4734
g13
VKHOLDY -SABETY
p4735
sg15
(lp4736
(dp4737
g18
I9780262026284
sg19
VBenninga
p4738
sg21
VRequired
p4739
sg23
VFinancial Modeling (W/Cd)
p4740
sg25
VHardback
p4741
sg27
g119
sg29
F92.0
sasg43
V379910
p4742
sg2
VE-01
p4743
sasg43
V97739
p4744
sg2
VFRL404
p4745
sa(dp4746
g10
(lp4747
(dp4748
g13
VSOLIS
p4749
sg15
(lp4750
(dp4751
g18
I9780324596168
sg19
VJentz
p4752
sg21
VRequired
p4753
sg23
VBusiness Law Alt Ed
p4754
sg25
VHardback
p4755
sg27
V11
p4756
sg29
F236.9
sa(dp4757
g18
I9781439028421
sg19
VJentz (Db*)
p4758
sg21
VOptional
p4759
sg23
VBusiness Law  Alt(Coursesmart Digital)
p4760
sg25
VEbook
p4761
sg27
VAL
p4762
sg29
F134.5
sasg43
V379911
p4763
sg2
VE-01
p4764
sasg43
V97740
p4765
sg2
VFRL408
p4766
sa(dp4767
g10
(lp4768
(dp4769
g13
VYOUNG
p4770
sg15
(lp4771
(dp4772
g18
I9780538473613
sg19
VSchaffer
p4773
sg21
VRequired
p4774
sg23
VInternational Business Law & Its Environment
p4775
sg25
VHardback
p4776
sg27
g28
sg29
F285.0
sa(dp4777
g18
I9781133835974
sg19
VSchaffer (Db*)
p4778
sg21
VOptional
p4779
sg23
VInternational Business Law & Its Environment (Coursesmart)
p4780
sg25
Nsg27
Nsg29
F140.5
sasg43
V379912
p4781
sg2
VE-01
p4782
sasg43
V97741
p4783
sg2
VFRL426
p4784
sa(dp4785
g10
(lp4786
(dp4787
g13
VSARMAS
p4788
sg15
(lp4789
(dp4790
g18
I9781285217734
sg19
VBrigham/Klein
p4791
sg21
VRequired
p4792
sg23
VEvaluation Of Financial Policy (8 Cases - Directed)
p4793
sg25
Nsg27
Nsg29
F28.0
sasg43
V379913
p4794
sg2
VE-01
p4795
sasg43
V97742
p4796
sg2
VFRL440
p4797
sa(dp4798
g10
(lp4799
(dp4800
g13
VGHAZANFARI
p4801
sg15
(lp4802
(dp4803
g18
I9780078034671
sg19
VRose
p4804
sg21
VRequired
p4805
sg23
VBank Management & Financial Services
p4806
sg25
VHardback
p4807
sg27
g1113
sg29
F212.2
sa(dp4808
g18
I9780077410568
sg19
VRose (Db*)
p4809
sg21
VOptional
p4810
sg23
VBank Management & Financial Services (Coursesmart)
p4811
sg25
VEbook
p4812
sg27
g1113
sg29
F113.25
sasg43
V379914
p4813
sg2
VE-01
p4814
sasg43
V97952
p4815
sg2
VFRL460
p4816
sasg473
VFRL
p4817
sg43
V4805
p4818
sg2
VFIN REAL EST & LAW
p4819
sa(dp4820
g7
(lp4821
(dp4822
g10
(lp4823
(dp4824
g13
VSTAFF
p4825
sg15
(lp4826
(dp4827
g18
I9780073376226
sg19
VForouzan
p4828
sg21
VRequired
p4829
sg23
VData Communications & Networking
p4830
sg25
VHardback
p4831
sg27
g416
sg29
F179.4
sa(dp4832
g18
I9780077445386
sg19
VForouzan (Db*)
p4833
sg21
VOptional
p4834
sg23
VData Communications & Networking (Coursesmart)
p4835
sg25
VEbook
p4836
sg27
g416
sg29
F95.75
sasg43
V380449
p4837
sg2
VE-01
p4838
sasg43
V97743
p4839
sg2
VGBA557
p4840
sa(dp4841
g10
(lp4842
(dp4843
g13
VEdward
p4844
sg15
(lp4845
(dp4846
g18
I9780470740941
sg19
VLocke
p4847
sg21
VRequired
p4848
sg23
VHandbook Of Principles Of Organizational Behavior
p4849
sg25
VPaperback
p4850
sg27
g519
sg29
F75.0
sasg43
V367718
p4851
sg2
VE-01
p4852
sasg43
V97744
p4853
sg2
VGBA615
p4854
sa(dp4855
g10
(lp4856
(dp4857
g13
VEdward
p4858
sg15
(lp4859
sg43
V367719
p4860
sg2
VE-01
p4861
sasg43
V97745
p4862
sg2
VGBA616
p4863
sa(dp4864
g10
(lp4865
(dp4866
g13
VHALATI
p4867
sg15
(lp4868
(dp4869
g18
I9781111532222
sg19
VAnderson
p4870
sg21
VRequired
p4871
sg23
VIntro To Management Science 13Th Rev (W/Cd)
p4872
sg25
Nsg27
Nsg29
F258.45
sa(dp4873
g18
I9781111916077
sg19
VAnderson (Db*)
p4874
sg21
VOptional
p4875
sg23
VIntro To Management Science (Coursesmart)
p4876
sg25
VEbook
p4877
sg27
V13
p4878
sg29
F148.0
sasg43
V367721
p4879
sg2
VE-01
p4880
sasg43
V97746
p4881
sg2
VGBA628
p4882
sa(dp4883
g10
(lp4884
(dp4885
g13
VHALATI
p4886
sg15
(lp4887
sg43
V367722
p4888
sg2
VE-01
p4889
sasg43
V97747
p4890
sg2
VGBA629
p4891
sa(dp4892
g10
(lp4893
(dp4894
g13
VMONCRIEF
p4895
sg15
(lp4896
(dp4897
g18
I9781412965576
sg19
VCreswell
p4898
sg21
VRequired
p4899
sg23
VResearch Design
p4900
sg25
VPaperback
p4901
sg27
g119
sg29
F75.0
sasg43
V367725
p4902
sg2
VE-01
p4903
sasg43
V97750
p4904
sg2
VGBA683
p4905
sa(dp4906
g10
(lp4907
(dp4908
g13
VMONCRIEF
p4909
sg15
(lp4910
sg43
V367726
p4911
sg2
VE-01
p4912
sasg43
V97751
p4913
sg2
VGBA684
p4914
sa(dp4915
g10
(lp4916
(dp4917
g13
VRHODES
p4918
sg15
(lp4919
(dp4920
g18
I9781450068925
sg19
VRhodes
p4921
sg21
VRequired
p4922
sg23
VReport Writing: A Survival Guide
p4923
sg25
Nsg27
Nsg29
F16.0
sa(dp4924
g18
I9780078112720
sg19
VThompson
p4925
sg21
VRequired
p4926
sg23
VCrafting & Executing Strategy: Quest For Comp Advantage
p4927
sg25
VHardback
p4928
sg27
V18
p4929
sg29
F218.15
sasg43
V367727
p4930
sg2
VE-01
p4931
sasg43
V97752
p4932
sg2
VGBA687
p4933
sa(dp4934
g10
(lp4935
(dp4936
g13
VRHODES
p4937
sg15
(lp4938
sg43
V367728
p4939
sg2
VE-01
p4940
sasg43
V97753
p4941
sg2
VGBA688
p4942
sasg473
VGBA
p4943
sg43
V4813
p4944
sg2
VGRADUATE BUS ADMIN
p4945
sa(dp4946
g7
(lp4947
(dp4948
g10
(lp4949
(dp4950
g13
VMCGARVEY
p4951
sg15
(lp4952
sg43
V367729
p4953
sg2
VE-01
p4954
sasg43
V97754
p4955
sg2
VGED400
p4956
sa(dp4957
g10
(lp4958
(dp4959
g13
VJACOBSEN
p4960
sg15
(lp4961
sg43
V367731
p4962
sg2
VE-01
p4963
sasg43
V97756
p4964
sg2
VGED532
p4965
sa(dp4966
g10
(lp4967
(dp4968
g13
VSTAFF
p4969
sg15
(lp4970
sg43
V367732
p4971
sg2
VE-01
p4972
sasg43
V97757
p4973
sg2
VGED550
p4974
sa(dp4975
g10
(lp4976
(dp4977
g13
VJACOBSEN
p4978
sg15
(lp4979
sg43
V367733
p4980
sg2
VE-01
p4981
sasg43
V97758
p4982
sg2
VGED690
p4983
sa(dp4984
g10
(lp4985
(dp4986
g13
VSTAFF
p4987
sg15
(lp4988
sg43
V367734
p4989
sg2
VE-01
p4990
sasg43
V97759
p4991
sg2
VGED691
p4992
sa(dp4993
g10
(lp4994
(dp4995
g13
VJACOBSEN
p4996
sg15
(lp4997
sg43
V367735
p4998
sg2
VE-01
p4999
sasg43
V97760
p5000
sg2
VGED693
p5001
sa(dp5002
g10
(lp5003
(dp5004
g13
VMCGARVEY
p5005
sg15
(lp5006
sg43
V367730
p5007
sg2
VE-01
p5008
sasg43
V97755
p5009
sg2
VGED400L
p5010
sasg473
VGED
p5011
sg43
V4702
p5012
sg2
VGRADUATE & PROF ST
p5013
sa(dp5014
g7
(lp5015
(dp5016
g10
(lp5017
(dp5018
g13
VNICOLL
p5019
sg15
(lp5020
(dp5021
g18
I9780470134863
sg19
VStrahler
p5022
sg21
VRequired
p5023
sg23
VIntroducing Physical Geography
p5024
sg25
VPaperback
p5025
sg27
g416
sg29
F145.0
sa(dp5026
g18
I9780470416501
sg19
VStrahler (Db*)
p5027
sg21
VOptional
p5028
sg23
VIntro Physical Geography (Coursesmart)
p5029
sg25
VEbook
p5030
sg27
g416
sg29
F70.5
sasg43
V367736
p5031
sg2
VE-01
p5032
sasg43
V97761
p5033
sg2
VGEO101
p5034
sa(dp5035
g10
(lp5036
(dp5037
g13
VPlatt
p5038
sg15
(lp5039
(dp5040
g18
I9780321769664
sg19
VKnox
p5041
sg21
VRequired
p5042
sg23
VHuman Geography
p5043
sg25
VPaperback
p5044
sg27
g173
sg29
F145.5
sa(dp5045
g18
I9780321821324
sg19
VKnox (Db*)
p5046
sg21
VOptional
p5047
sg23
VHuman Geography (Coursesmart)
p5048
sg25
VEbook
p5049
sg27
g173
sg29
F83.0
sasg43
V367737
p5050
sg2
VE-01
p5051
sasg43
V97762
p5052
sg2
VGEO102
p5053
sa(dp5054
g10
(lp5055
(dp5056
g13
VPlatt
p5057
sg15
(lp5058
(dp5059
g18
I9780757570605
sg19
VHyslop
p5060
sg21
VRequired
p5061
sg23
VCalifornia Eclectic
p5062
sg25
Nsg27
Nsg29
F79.95
sasg43
V367738
p5063
sg2
VE-01
p5064
sasg43
V97763
p5065
sg2
VGEO351
p5066
sasg473
VGEO
p5067
sg43
V4703
p5068
sg2
VGEOGRAPHY
p5069
sa(dp5070
g7
(lp5071
(dp5072
g10
(lp5073
(dp5074
g13
VROUMELIS
p5075
sg15
(lp5076
(dp5077
g18
I9780393935189
sg19
VMarshak
p5078
sg21
VRequired
p5079
sg23
VEarth
p5080
sg25
VPaperback
p5081
sg27
g594
sg29
F127.5
sa(dp5082
g18
I9780393120660
sg19
VMarshak (Db*)
p5083
sg21
VOptional
p5084
sg23
VEarth (Coursesmart)
p5085
sg25
VEbook
p5086
sg27
g594
sg29
F56.7
sasg43
V379915
p5087
sg2
VE-01
p5088
sasg43
V99379
p5089
sg2
VGSC321
p5090
sa(dp5091
g10
(lp5092
(dp5093
g13
VROUMELIS
p5094
sg15
(lp5095
(dp5096
g18
I9780757523687
sg19
VNourse
p5097
sg21
VRequired
p5098
sg23
VPractical Earth Science Exercises (Revised 2Nd)
p5099
sg25
VPaperback
p5100
sg27
g519
sg29
F58.8
sasg43
V379916
p5101
sg2
VE-01
p5102
sasg43
V99380
p5103
sg2
VGSC321L
p5104
sasg473
VGSC
p5105
sg43
V4811
p5106
sg2
VGEOLOGICAL SCIENCE
p5107
sa(dp5108
g7
(lp5109
(dp5110
g10
(lp5111
(dp5112
g13
VIrvin
p5113
sg15
(lp5114
sg43
V380206
p5115
sg2
VE-01
p5116
sasg43
V97764
p5117
sg2
VHST101
p5118
sa(dp5119
g10
(lp5120
(dp5121
g13
VARREOLA
p5122
sg15
(lp5123
(dp5124
g18
I9781121438767
sg19
VArreola
p5125
sg21
VRequired
p5126
sg23
VHistory Of Civilization/Middle Period (Custom)
p5127
sg25
Nsg27
Nsg29
F57.4
sasg43
V367740
p5128
sg2
VE-01
p5129
sa(dp5130
g13
VIrvin
p5131
sg15
(lp5132
sg43
V380209
p5133
sg2
VE-02
p5134
sasg43
V97765
p5135
sg2
VHST102
p5136
sa(dp5137
g10
(lp5138
(dp5139
g13
VMANSOUR
p5140
sg15
(lp5141
(dp5142
g18
I9780312666934
sg19
VMckay
p5143
sg21
VRequired
p5144
sg23
VHistory Of World Societies Vol Ii
p5145
sg25
VPaperback
p5146
sg27
g1113
sg29
F110.65
sa(dp5147
g18
I9780312569792
sg19
VMckay (Db*)
p5148
sg21
VOptional
p5149
sg23
VA History Of World Societies Vol 2 Since 1450 (Coursesmart)
p5150
sg25
VEbook
p5151
sg27
g1113
sg29
F52.0
sasg43
V367742
p5152
sg2
VE-01
p5153
sasg43
V97766
p5154
sg2
VHST103
p5155
sa(dp5156
g10
(lp5157
(dp5158
g13
VBATES
p5159
sg15
(lp5160
sg43
V367743
p5161
sg2
VE-01
p5162
sasg43
V97767
p5163
sg2
VHST201
p5164
sa(dp5165
g10
(lp5166
(dp5167
g13
VHOIKKALA
p5168
sg15
(lp5169
(dp5170
g18
I9781256751274
sg19
VDivine*
p5171
sg21
VRequired
p5172
sg23
VAmerica: Past & Present Vol. 2 W/Myhistorylab (Making The Grade)
p5173
sg25
VKit/Set/Package
p5174
sg27
g1113
sg29
F76.0
sa(dp5175
g18
I9780205206544
sg19
VPearson
p5176
sg21
VPart of Set
p5177
sg23
VMyhistorylab W/E-Text
p5178
sg25
Nsg27
Nsg29
F23.55
sa(dp5179
g18
I9780205723577
sg19
VDivine
p5180
sg21
VPart of Set
p5181
sg23
VAmerica: Past & Present Vol. 2 (Books A La Carte)
p5182
sg25
VPaperback
p5183
sg27
g1113
sg29
F0.0
sasg43
V367744
p5184
sg2
VE-02
p5185
sa(dp5186
g13
VBATES
p5187
sg15
(lp5188
sg43
V380446
p5189
sg2
VE-02C
p5190
sa(dp5191
g13
VMANSOUR
p5192
sg15
(lp5193
(dp5194
g18
I9780393130362
sg19
VFoner*
p5195
sg21
VRequired
p5196
sg23
VGive Me Liberty Vol. 2 Brief W/Voices Of Freedom Vol. 2
p5197
sg25
VKit/Set/Package
p5198
sg27
g119
sg29
F66.65
sa(dp5199
g18
I9780393120301
sg19
VFoner (Db*)
p5200
sg21
VOptional
p5201
sg23
VGive Me Liberty Brief Vol 2 (Coursesmart)
p5202
sg25
VEbook
p5203
sg27
g119
sg29
F22.25
sa(dp5204
g18
I9780393935684
sg19
VFoner
p5205
sg21
VPart of Set
p5206
sg23
VVoices Of Freedom Vol Two
p5207
sg25
VPaperback
p5208
sg27
g119
sg29
F26.65
sa(dp5209
g18
I9780393935530
sg19
VFoner
p5210
sg21
VPart of Set
p5211
sg23
VGive Me Liberty Brief Vol 2
p5212
sg25
VPaperback
p5213
sg27
g119
sg29
F66.65
sasg43
V367745
p5214
sg2
VE-03
p5215
sasg43
V97768
p5216
sg2
VHST202
p5217
sa(dp5218
g10
(lp5219
(dp5220
g13
VBATES
p5221
sg15
(lp5222
sg43
V367746
p5223
sg2
VE-01
p5224
sa(dp5225
g13
VHOIKKALA
p5226
sg15
(lp5227
(dp5228
g18
I9780618594962
sg19
VCherny/Chan*(Sw)
p5229
sg21
VRequired
p5230
sg23
VCompeting Visions W/Major Problems In California History
p5231
sg25
Nsg27
Nsg29
F134.4
sa(dp5232
g18
I9780669275889
sg19
VChan
p5233
sg21
VPart of Set
p5234
sg23
VMajor Problems In California History
p5235
sg25
Nsg27
Nsg29
F68.2
sa(dp5236
g18
I9780395959640
sg19
VCherny
p5237
sg21
VPart of Set
p5238
sg23
VCompeting Visions: History Of California
p5239
sg25
Nsg27
Nsg29
F130.0
sasg43
V367747
p5240
sg2
VE-02
p5241
sasg43
V97955
p5242
sg2
VHST370
p5243
sasg473
VHST
p5244
sg43
V4707
p5245
sg2
VHISTORY
p5246
sa(dp5247
g7
(lp5248
(dp5249
g10
(lp5250
(dp5251
g13
VMULYANTO
p5252
sg15
(lp5253
(dp5254
g18
I9780136090984
sg19
VCavusgil
p5255
sg21
VRequired
p5256
sg23
VInternational Business
p5257
sg25
VHardback
p5258
sg27
g519
sg29
F187.5
sa(dp5259
g18
I9780136090724
sg19
VCavusgil (Db*)
p5260
sg21
VOptional
p5261
sg23
VInternational Business (Coursesmart)
p5262
sg25
VEbook
p5263
sg27
g519
sg29
F80.0
sasg43
V367748
p5264
sg2
VE-01
p5265
sasg43
V97956
p5266
sg2
VIBM300
p5267
sa(dp5268
g10
(lp5269
(dp5270
g13
VMYERS
p5271
sg15
(lp5272
(dp5273
g18
I9780324789287
sg19
VLamb
p5274
sg21
VRequired
p5275
sg23
VMktg 3
p5276
sg25
Nsg27
Nsg29
F54.95
sasg43
V367749
p5277
sg2
VE-01
p5278
sa(dp5279
g13
VBRYANT
p5280
sg15
(lp5281
(dp5282
g18
I9780132620000
sg19
VLevens*
p5283
sg21
VRequired
p5284
sg23
VMarketing Sve W/Mymarketinglab Sac
p5285
sg25
VKit/Set/Package
p5286
sg27
g519
sg29
F66.45
sa(dp5287
g18
I9780132177474
sg19
VLevens
p5288
sg21
VPart of Set
p5289
sg23
VMarketing St Value Ed (Loose-Leaf)
p5290
sg25
VPaperback
p5291
sg27
g519
sg29
F57.2
sa(dp5292
g18
I9780132175920
sg19
VPearson
p5293
sg21
VPart of Set
p5294
sg23
VMymarketinglab Sac
p5295
sg25
VAccess Code
p5296
sg27
g519
sg29
F96.0
sasg43
V367750
p5297
sg2
VE-02
p5298
sasg43
V97957
p5299
sg2
VIBM301
p5300
sa(dp5301
g10
(lp5302
(dp5303
g13
VVERCILLO
p5304
sg15
(lp5305
(dp5306
g18
I9780538467384
sg19
VFerrell
p5307
sg21
VRequired
p5308
sg23
VMarketing Strategy
p5309
sg25
VPaperback
p5310
sg27
g416
sg29
F197.8
sasg43
V367751
p5311
sg2
VE-01
p5312
sasg43
V97958
p5313
sg2
VIBM302
p5314
sa(dp5315
g10
(lp5316
(dp5317
g13
VASSUMMA
p5318
sg15
(lp5319
sg43
V367752
p5320
sg2
VE-01
p5321
sasg43
V97959
p5322
sg2
VIBM306
p5323
sa(dp5324
g10
(lp5325
(dp5326
g13
VSWARTZ
p5327
sg15
(lp5328
(dp5329
g18
I9780073404868
sg19
VBelch
p5330
sg21
VRequired
p5331
sg23
VAdvertising & Promotion
p5332
sg25
VHardback
p5333
sg27
g1113
sg29
F203.15
sa(dp5334
g18
I9780077325367
sg19
VBelch (Db*)
p5335
sg21
VOptional
p5336
sg23
VAdvertising & Promotion (Coursesmart)
p5337
sg25
VEbook
p5338
sg27
g1113
sg29
F117.25
sasg43
V367753
p5339
sg2
VE-01
p5340
sasg43
V97960
p5341
sg2
VIBM307
p5342
sa(dp5343
g10
(lp5344
(dp5345
g13
VVERCILLO
p5346
sg15
(lp5347
sg43
V367754
p5348
sg2
VE-01
p5349
sasg43
V97961
p5350
sg2
VIBM320
p5351
sa(dp5352
g10
(lp5353
(dp5354
g13
VMYERS
p5355
sg15
(lp5356
(dp5357
g18
I9780132147552
sg19
VStrauss
p5358
sg21
VRequired
p5359
sg23
VE-Marketing
p5360
sg25
VPaperback
p5361
sg27
g173
sg29
F131.25
sa(dp5362
g18
I9780132147613
sg19
VStrauss (Db*)
p5363
sg21
VOptional
p5364
sg23
VE-Marketing (Coursesmart)
p5365
sg25
VEbook
p5366
sg27
g173
sg29
F56.0
sasg43
V367755
p5367
sg2
VE-01
p5368
sasg43
V97962
p5369
sg2
VIBM403
p5370
sa(dp5371
g10
(lp5372
(dp5373
g13
VHOSSAIN
p5374
sg15
(lp5375
(dp5376
g18
I9780324305418
sg19
VChurchill
p5377
sg21
VRequired
p5378
sg23
VBasic Marketing Research
p5379
sg25
VHardback
p5380
sg27
g173
sg29
F133.65
sasg43
V367756
p5381
sg2
VE-01
p5382
sasg43
V97963
p5383
sg2
VIBM408
p5384
sa(dp5385
g10
(lp5386
(dp5387
g13
VWHITSON
p5388
sg15
(lp5389
(dp5390
g18
I9780135053010
sg19
VSchiffman
p5391
sg21
VRequired
p5392
sg23
VConsumer Behavior
p5393
sg25
VHardback
p5394
sg27
V10
p5395
sg29
F203.0
sa(dp5396
g18
I9780135053072
sg19
VSchiffman (Db*)
p5397
sg21
VOptional
p5398
sg23
VConsumer Behavior (Coursesmart Digital)
p5399
sg25
VEbook
p5400
sg27
V10
p5401
sg29
F85.0
sasg43
V367757
p5402
sg2
VE-01
p5403
sasg43
V97964
p5404
sg2
VIBM411
p5405
sa(dp5406
g10
(lp5407
(dp5408
g13
VROXAS
p5409
sg15
(lp5410
(dp5411
g18
I9780073529943
sg19
VCateora
p5412
sg21
VRequired
p5413
sg23
VInternational Marketing
p5414
sg25
VHardback
p5415
sg27
V15
p5416
sg29
F210.65
sa(dp5417
g18
I9780077446963
sg19
VCateora (Db*)
p5418
sg21
VOptional
p5419
sg23
VInternational Marketing (Coursesmart)
p5420
sg25
VEbook
p5421
sg27
g416
sg29
F112.25
sasg43
V367758
p5422
sg2
VE-01
p5423
sasg43
V97965
p5424
sg2
VIBM414
p5425
sa(dp5426
g10
(lp5427
(dp5428
g13
VOzkaya
p5429
sg15
(lp5430
(dp5431
g18
I9780160869532
sg19
VInternational Trade
p5432
sg21
VRequired
p5433
sg23
VBasic Guide To Exporting
p5434
sg25
Nsg27
Nsg29
F27.5
sasg43
V367759
p5435
sg2
VE-01
p5436
sasg43
V97966
p5437
sg2
VIBM416
p5438
sa(dp5439
g10
(lp5440
(dp5441
g13
VASSUMMA
p5442
sg15
(lp5443
(dp5444
g18
I9780136107064
sg19
VKerin
p5445
sg21
VRequired
p5446
sg23
VStrategic Marketing Problems
p5447
sg25
VHardback
p5448
sg27
V12
p5449
sg29
F206.25
sasg43
V367760
p5450
sg2
VE-01
p5451
sasg43
V97967
p5452
sg2
VIBM421
p5453
sa(dp5454
g10
(lp5455
(dp5456
g13
VSWARTZ,
p5457
sg15
(lp5458
(dp5459
g18
I9780324322842
sg19
VQuelch
p5460
sg21
VRequired
p5461
sg23
VGlobal Marketing Management
p5462
sg25
VPaperback
p5463
sg27
g416
sg29
F222.5
sasg43
V379918
p5464
sg2
VE-01
p5465
sasg43
V99399
p5466
sg2
VIBM480
p5467
sasg473
VIBM
p5468
sg43
V4822
p5469
sg2
VINTERNL BUS & MARKET
p5470
sa(dp5471
g7
(lp5472
(dp5473
g10
(lp5474
(dp5475
g13
VLAMPHIER
p5476
sg15
(lp5477
(dp5478
g18
I9780553212471
sg19
VShelley
p5479
sg21
VRequired
p5480
sg23
VFrankenstein
p5481
sg25
Nsg27
Nsg29
F4.95
sa(dp5482
g18
I9780449220603
sg19
VPiercy
p5483
sg21
VRequired
p5484
sg23
VHe, She & It (Rack Size)
p5485
sg25
Nsg27
Nsg29
F7.5
sasg43
V379919
p5486
sg2
VE-01
p5487
sasg43
V97968
p5488
sg2
VIGE320
p5489
sasg473
VIGE
p5490
sg43
V4712
p5491
sg2
VINTERDISPL GEN EDUC
p5492
sa(dp5493
g7
(lp5494
(dp5495
g10
(lp5496
(dp5497
g13
VCHASE
p5498
sg15
(lp5499
(dp5500
g18
I9780073407432
sg19
VBassham
p5501
sg21
VRequired
p5502
sg23
VCritical Thinking
p5503
sg25
VPaperback
p5504
sg27
g594
sg29
F127.65
sa(dp5505
g18
I9780077304478
sg19
VBassham (Db*)
p5506
sg21
VOptional
p5507
sg23
VCritical Thinking: A Student's Introduction (Coursesmart)
p5508
sg25
Nsg27
Nsg29
F62.0
sasg43
V367762
p5509
sg2
V01
p5510
sa(dp5511
g13
VCHASE
p5512
sg15
(lp5513
(dp5514
g18
I9780073407432
sg19
VBassham
p5515
sg21
VRequired
p5516
sg23
VCritical Thinking
p5517
sg25
VPaperback
p5518
sg27
g594
sg29
F127.65
sa(dp5519
g18
I9780077304478
sg19
VBassham (Db*)
p5520
sg21
VOptional
p5521
sg23
VCritical Thinking: A Student's Introduction (Coursesmart)
p5522
sg25
Nsg27
Nsg29
F62.0
sasg43
V367763
p5523
sg2
V02
p5524
sasg43
V97969
p5525
sg2
VKIN209
p5526
sa(dp5527
g10
(lp5528
(dp5529
g13
VLIANG
p5530
sg15
(lp5531
(dp5532
g18
I9780321523013
sg19
VPowers
p5533
sg21
VRequired
p5534
sg23
VTotal Fitness & Wellness
p5535
sg25
VHardback
p5536
sg27
g416
sg29
F72.8
sasg43
V367764
p5537
sg2
V01
p5538
sasg43
V97970
p5539
sg2
VKIN301
p5540
sa(dp5541
g10
(lp5542
(dp5543
g13
VMOUSTAFA
p5544
sg15
(lp5545
(dp5546
g18
I9780736055833
sg19
VWilmore
p5547
sg21
VRequired
p5548
sg23
VPhysiology Of Sport & Exercise
p5549
sg25
VHardback
p5550
sg27
g594
sg29
F92.0
sasg43
V367765
p5551
sg2
V01
p5552
sasg43
V97971
p5553
sg2
VKIN303
p5554
sa(dp5555
g10
(lp5556
(dp5557
g13
VKANG
p5558
sg15
(lp5559
(dp5560
g18
I9780073376431
sg19
VFloyd
p5561
sg21
VRequired
p5562
sg23
VManual Of Structural Kinesiology
p5563
sg25
VPaperback
p5564
sg27
V17
p5565
sg29
F82.0
sa(dp5566
g18
I9780736051019
sg19
VMcginnis
p5567
sg21
VRequired
p5568
sg23
VBiomechanics Of Sport & Exercise
p5569
sg25
VHardback
p5570
sg27
g519
sg29
F83.0
sa(dp5571
g18
I9780077283506
sg19
VFloyd (Db*)
p5572
sg21
VOptional
p5573
sg23
VManual Of Structural Kinesiology I (Coursesmart Digital)
p5574
sg25
VEbook
p5575
sg27
g79
sg29
F50.25
sasg43
V367768
p5576
sg2
V01
p5577
sasg43
V97973
p5578
sg2
VKIN304
p5579
sa(dp5580
g10
(lp5581
(dp5582
g13
VMETZKER
p5583
sg15
(lp5584
(dp5585
g18
I9780073376509
sg19
VGallahue
p5586
sg21
VRequired
p5587
sg23
VUnderstanding Motor Development
p5588
sg25
VHardback
p5589
sg27
g79
sg29
F141.9
sa(dp5590
g18
I9780077378769
sg19
VGallahue (Db*)
p5591
sg21
VOptional
p5592
sg23
VUnderstanding Motor Development (Coursesmart)
p5593
sg25
VEbook
p5594
sg27
g79
sg29
F79.5
sasg43
V367770
p5595
sg2
V01
p5596
sasg43
V97975
p5597
sg2
VKIN312
p5598
sa(dp5599
g10
(lp5600
(dp5601
g13
VMETZKER
p5602
sg15
(lp5603
(dp5604
g18
I9780801116056
sg19
VCalif Dept Educ
p5605
sg21
VRequired
p5606
sg23
VPhysical Education Model Content Standards For Calif. Public Schools
p5607
sg25
Nsg27
Nsg29
F21.25
sasg43
V367772
p5608
sg2
V01
p5609
sasg43
V97977
p5610
sg2
VKIN328
p5611
sa(dp5612
g10
(lp5613
(dp5614
g13
VSPALDING
p5615
sg15
(lp5616
sg43
V367774
p5617
sg2
V01
p5618
sa(dp5619
g13
VSPALDING
p5620
sg15
(lp5621
sg43
V367775
p5622
sg2
V02
p5623
sa(dp5624
g13
VFISH
p5625
sg15
(lp5626
sg43
V367776
p5627
sg2
V03
p5628
sa(dp5629
g13
VFISH
p5630
sg15
(lp5631
sg43
V367777
p5632
sg2
V04
p5633
sa(dp5634
g13
VHANSEN
p5635
sg15
(lp5636
sg43
V367778
p5637
sg2
V05
p5638
sasg43
V97979
p5639
sg2
VKIN370
p5640
sa(dp5641
g10
(lp5642
(dp5643
g13
VMOUSTAFA
p5644
sg15
(lp5645
(dp5646
g18
I9780736055833
sg19
VWilmore
p5647
sg21
VRequired
p5648
sg23
VPhysiology Of Sport & Exercise
p5649
sg25
VHardback
p5650
sg27
g594
sg29
F92.0
sasg43
V367779
p5651
sg2
V01
p5652
sasg43
V97980
p5653
sg2
VKIN403
p5654
sa(dp5655
g10
(lp5656
(dp5657
g13
VHANSEN
p5658
sg15
(lp5659
sg43
V367782
p5660
sg2
V01
p5661
sa(dp5662
g13
VHANSEN
p5663
sg15
(lp5664
sg43
V367783
p5665
sg2
V02
p5666
sasg43
V97982
p5667
sg2
VKIN441
p5668
sa(dp5669
g10
(lp5670
(dp5671
g13
VCHASE
p5672
sg15
(lp5673
(dp5674
g18
I9781612050324
sg19
VEitzen
p5675
sg21
VRequired
p5676
sg23
VSport In Contemporary Society
p5677
sg25
VPaperback
p5678
sg27
g1113
sg29
F54.95
sasg43
V367784
p5679
sg2
V01
p5680
sasg43
V98070
p5681
sg2
VKIN449
p5682
sa(dp5683
g10
(lp5684
(dp5685
g13
VLIANG
p5686
sg15
(lp5687
(dp5688
g18
I9780781769037
sg19
VAmer Coll Sport
p5689
sg21
VRequired
p5690
sg23
VAcsm's Guidelines For Exercise Testing & Prescription
p5691
sg25
Nsg27
Nsg29
F41.0
sa(dp5692
g18
I9781609130299
sg19
VAmer College (Db*)
p5693
sg21
VOptional
p5694
sg23
VAcsm's Guidelines For Exercise Testing & Prescription (Coursesmart)
p5695
sg25
VEbook
p5696
sg27
g28
sg29
F23.0
sasg43
V367785
p5697
sg2
V01
p5698
sasg43
V97983
p5699
sg2
VKIN453
p5700
sa(dp5701
g10
(lp5702
(dp5703
g13
VLIANG
p5704
sg15
(lp5705
(dp5706
g18
I9780781768702
sg19
VAmer Coll Spor
p5707
sg21
VRequired
p5708
sg23
VAcsm's Resources For Clinical Exercise Physiology
p5709
sg25
VPaperback
p5710
sg27
g519
sg29
F58.95
sa(dp5711
g18
I9781609130329
sg19
VAcsm (Db*)
p5712
sg21
VOptional
p5713
sg23
VAcsm's Resources For Clinical Exercise Physiology (Coursesmart)
p5714
sg25
VEbook
p5715
sg27
g519
sg29
F34.0
sasg43
V367786
p5716
sg2
V01
p5717
sasg43
V98071
p5718
sg2
VKIN455
p5719
sa(dp5720
g10
(lp5721
(dp5722
g13
VMOUSTAFA
p5723
sg15
(lp5724
(dp5725
g18
I9780781797818
sg19
VMcardle
p5726
sg21
VRequired
p5727
sg23
VExercise Physiology
p5728
sg25
VHardback
p5729
sg27
g79
sg29
F113.0
sa(dp5730
g18
I9781608319367
sg19
VMcardle (Db*)
p5731
sg21
VOptional
p5732
sg23
VExercise Physiology Energy, Nutrition & Human Performance (Coursesmart)
p5733
sg25
VEbook
p5734
sg27
g79
sg29
F65.0
sasg43
V367787
p5735
sg2
V01
p5736
sasg43
V97984
p5737
sg2
VKIN456
p5738
sa(dp5739
g10
(lp5740
(dp5741
g13
VMOUSTAFA
p5742
sg15
(lp5743
(dp5744
g18
I9780073376592
sg19
VBeam
p5745
sg21
VRequired
p5746
sg23
VExercise Physiology Laboratory Manual
p5747
sg25
VSpiral
p5748
sg27
g173
sg29
F105.35
sasg43
V367766
p5749
sg2
V01
p5750
sa(dp5751
g13
VSTAFF
p5752
sg15
(lp5753
(dp5754
g18
I9780073376592
sg19
VBeam
p5755
sg21
VRequired
p5756
sg23
VExercise Physiology Laboratory Manual
p5757
sg25
VSpiral
p5758
sg27
g173
sg29
F105.35
sasg43
V367767
p5759
sg2
V02
p5760
sasg43
V97972
p5761
sg2
VKIN303L
p5762
sa(dp5763
g10
(lp5764
(dp5765
g13
VKANG
p5766
sg15
(lp5767
sg43
V367769
p5768
sg2
V01
p5769
sasg43
V97974
p5770
sg2
VKIN304L
p5771
sa(dp5772
g10
(lp5773
(dp5774
g13
VMETZKER
p5775
sg15
(lp5776
sg43
V367771
p5777
sg2
V01
p5778
sasg43
V97976
p5779
sg2
VKIN312A
p5780
sa(dp5781
g10
(lp5782
(dp5783
g13
VMETZKER
p5784
sg15
(lp5785
sg43
V367773
p5786
sg2
V01
p5787
sasg43
V97978
p5788
sg2
VKIN328A
p5789
sa(dp5790
g10
(lp5791
(dp5792
g13
VMOUSTAFA
p5793
sg15
(lp5794
sg43
V367780
p5795
sg2
V01
p5796
sa(dp5797
g13
VMOUSTAFA
p5798
sg15
(lp5799
sg43
V367781
p5800
sg2
V02
p5801
sasg43
V97981
p5802
sg2
VKIN403L
p5803
sasg473
VKIN
p5804
sg43
V4806
p5805
sg2
VKINESIOLOGY
p5806
sa(dp5807
g7
(lp5808
(dp5809
g10
(lp5810
(dp5811
g13
VSTAFF
p5812
sg15
(lp5813
(dp5814
g18
I9780077594497
sg19
VMessersmith*
p5815
sg21
VRequired
p5816
sg23
VBeginning & Intermediate Algebra W/Connect
p5817
sg25
VKit/Set/Package
p5818
sg27
g119
sg29
F114.65
sa(dp5819
g18
I9780077594473
sg19
VMessersmith
p5820
sg21
VPart of Set
p5821
sg23
VBeginning & Intermediate Algebra
p5822
sg25
VPaperback
p5823
sg27
g119
sg29
F114.65
sa(dp5824
g18
I9780077594480
sg19
VMcgraw
p5825
sg21
VPart of Set
p5826
sg23
VConnect Access Card T/A Beginning & Intermediate Algebra
p5827
sg25
Nsg27
Nsg29
F66.65
sasg43
V367788
p5828
sg2
VE-01
p5829
sa(dp5830
g13
VSTAFF
p5831
sg15
(lp5832
(dp5833
g18
I9780077594497
sg19
VMessersmith*
p5834
sg21
VRequired
p5835
sg23
VBeginning & Intermediate Algebra W/Connect
p5836
sg25
VKit/Set/Package
p5837
sg27
g119
sg29
F114.65
sa(dp5838
g18
I9780077594473
sg19
VMessersmith
p5839
sg21
VPart of Set
p5840
sg23
VBeginning & Intermediate Algebra
p5841
sg25
VPaperback
p5842
sg27
g119
sg29
F114.65
sa(dp5843
g18
I9780077594480
sg19
VMcgraw
p5844
sg21
VPart of Set
p5845
sg23
VConnect Access Card T/A Beginning & Intermediate Algebra
p5846
sg25
Nsg27
Nsg29
F66.65
sasg43
V367789
p5847
sg2
VE-02
p5848
sasg43
V97985
p5849
sg2
VMAT010
p5850
sa(dp5851
g10
(lp5852
(dp5853
g13
VSHIRLEY
p5854
sg15
(lp5855
(dp5856
g18
I9780077594497
sg19
VMessersmith*
p5857
sg21
VRequired
p5858
sg23
VBeginning & Intermediate Algebra W/Connect
p5859
sg25
VKit/Set/Package
p5860
sg27
g119
sg29
F114.65
sa(dp5861
g18
I9780077594473
sg19
VMessersmith
p5862
sg21
VPart of Set
p5863
sg23
VBeginning & Intermediate Algebra
p5864
sg25
VPaperback
p5865
sg27
g119
sg29
F114.65
sa(dp5866
g18
I9780077594480
sg19
VMcgraw
p5867
sg21
VPart of Set
p5868
sg23
VConnect Access Card T/A Beginning & Intermediate Algebra
p5869
sg25
Nsg27
Nsg29
F66.65
sasg43
V367790
p5870
sg2
VE-01
p5871
sa(dp5872
g13
VSHIRLEY
p5873
sg15
(lp5874
(dp5875
g18
I9780077594497
sg19
VMessersmith*
p5876
sg21
VRequired
p5877
sg23
VBeginning & Intermediate Algebra W/Connect
p5878
sg25
VKit/Set/Package
p5879
sg27
g119
sg29
F114.65
sa(dp5880
g18
I9780077594473
sg19
VMessersmith
p5881
sg21
VPart of Set
p5882
sg23
VBeginning & Intermediate Algebra
p5883
sg25
VPaperback
p5884
sg27
g119
sg29
F114.65
sa(dp5885
g18
I9780077594480
sg19
VMcgraw
p5886
sg21
VPart of Set
p5887
sg23
VConnect Access Card T/A Beginning & Intermediate Algebra
p5888
sg25
Nsg27
Nsg29
F66.65
sasg43
V367791
p5889
sg2
VE-02
p5890
sa(dp5891
g13
VSHIRLEY,
p5892
sg15
(lp5893
(dp5894
g18
I9780077594497
sg19
VMessersmith*
p5895
sg21
VRequired
p5896
sg23
VBeginning & Intermediate Algebra W/Connect
p5897
sg25
VKit/Set/Package
p5898
sg27
g119
sg29
F114.65
sa(dp5899
g18
I9780077594473
sg19
VMessersmith
p5900
sg21
VPart of Set
p5901
sg23
VBeginning & Intermediate Algebra
p5902
sg25
VPaperback
p5903
sg27
g119
sg29
F114.65
sa(dp5904
g18
I9780077594480
sg19
VMcgraw
p5905
sg21
VPart of Set
p5906
sg23
VConnect Access Card T/A Beginning & Intermediate Algebra
p5907
sg25
Nsg27
Nsg29
F66.65
sasg43
V367792
p5908
sg2
VE-03
p5909
sa(dp5910
g13
VSTAFF
p5911
sg15
(lp5912
(dp5913
g18
I9780077594497
sg19
VMessersmith*
p5914
sg21
VRequired
p5915
sg23
VBeginning & Intermediate Algebra W/Connect
p5916
sg25
VKit/Set/Package
p5917
sg27
g119
sg29
F114.65
sa(dp5918
g18
I9780077594473
sg19
VMessersmith
p5919
sg21
VPart of Set
p5920
sg23
VBeginning & Intermediate Algebra
p5921
sg25
VPaperback
p5922
sg27
g119
sg29
F114.65
sa(dp5923
g18
I9780077594480
sg19
VMcgraw
p5924
sg21
VPart of Set
p5925
sg23
VConnect Access Card T/A Beginning & Intermediate Algebra
p5926
sg25
Nsg27
Nsg29
F66.65
sasg43
V367793
p5927
sg2
VE-11
p5928
sa(dp5929
g13
VSTAFF
p5930
sg15
(lp5931
(dp5932
g18
I9780077594497
sg19
VMessersmith*
p5933
sg21
VRequired
p5934
sg23
VBeginning & Intermediate Algebra W/Connect
p5935
sg25
VKit/Set/Package
p5936
sg27
g119
sg29
F114.65
sa(dp5937
g18
I9780077594473
sg19
VMessersmith
p5938
sg21
VPart of Set
p5939
sg23
VBeginning & Intermediate Algebra
p5940
sg25
VPaperback
p5941
sg27
g119
sg29
F114.65
sa(dp5942
g18
I9780077594480
sg19
VMcgraw
p5943
sg21
VPart of Set
p5944
sg23
VConnect Access Card T/A Beginning & Intermediate Algebra
p5945
sg25
Nsg27
Nsg29
F66.65
sasg43
V379920
p5946
sg2
VE-21
p5947
sasg43
V97986
p5948
sg2
VMAT011
p5949
sa(dp5950
g10
(lp5951
(dp5952
g13
VSTAFF
p5953
sg15
(lp5954
(dp5955
g18
I9780077594534
sg19
VMessersmith*
p5956
sg21
VRequired
p5957
sg23
VBeginning & Intermediate Algebra (Customized Ch. 9-13) W/Connect
p5958
sg25
VKit/Set/Package
p5959
sg27
g119
sg29
F100.0
sa(dp5960
g18
I9780077594497
sg19
VMessersmith*
p5961
sg21
VOptional
p5962
sg23
VBeginning & Intermediate Algebra W/Connect
p5963
sg25
VKit/Set/Package
p5964
sg27
g119
sg29
F114.65
sa(dp5965
g18
I9780077594510
sg19
VMessersmith
p5966
sg21
VPart of Set
p5967
sg23
VBeginning & Intermediate Algebra (Customized - Ch. 9-13)
p5968
sg25
VPaperback
p5969
sg27
g119
sg29
F100.0
sa(dp5970
g18
I9780077594527
sg19
VMcgraw
p5971
sg21
VPart of Set
p5972
sg23
VConnect Access Card T/A Beginning & Intermediate Algebra (Customized - Ch. 9-13)
p5973
sg25
Nsg27
Nsg29
F58.8
sasg43
V367794
p5974
sg2
VE-01
p5975
sa(dp5976
g13
VGRIFFITH
p5977
sg15
(lp5978
(dp5979
g18
I9780077594534
sg19
VMessersmith*
p5980
sg21
VRequired
p5981
sg23
VBeginning & Intermediate Algebra (Customized Ch. 9-13) W/Connect
p5982
sg25
VKit/Set/Package
p5983
sg27
g119
sg29
F100.0
sa(dp5984
g18
I9780077594497
sg19
VMessersmith*
p5985
sg21
VOptional
p5986
sg23
VBeginning & Intermediate Algebra W/Connect
p5987
sg25
VKit/Set/Package
p5988
sg27
g119
sg29
F114.65
sa(dp5989
g18
I9780077594510
sg19
VMessersmith
p5990
sg21
VPart of Set
p5991
sg23
VBeginning & Intermediate Algebra (Customized - Ch. 9-13)
p5992
sg25
VPaperback
p5993
sg27
g119
sg29
F100.0
sa(dp5994
g18
I9780077594527
sg19
VMcgraw
p5995
sg21
VPart of Set
p5996
sg23
VConnect Access Card T/A Beginning & Intermediate Algebra (Customized - Ch. 9-13)
p5997
sg25
Nsg27
Nsg29
F58.8
sasg43
V367795
p5998
sg2
VE-02
p5999
sa(dp6000
g13
VSTAFF
p6001
sg15
(lp6002
(dp6003
g18
I9780077594534
sg19
VMessersmith*
p6004
sg21
VRequired
p6005
sg23
VBeginning & Intermediate Algebra (Customized Ch. 9-13) W/Connect
p6006
sg25
VKit/Set/Package
p6007
sg27
g119
sg29
F100.0
sa(dp6008
g18
I9780077594497
sg19
VMessersmith*
p6009
sg21
VOptional
p6010
sg23
VBeginning & Intermediate Algebra W/Connect
p6011
sg25
VKit/Set/Package
p6012
sg27
g119
sg29
F114.65
sa(dp6013
g18
I9780077594510
sg19
VMessersmith
p6014
sg21
VPart of Set
p6015
sg23
VBeginning & Intermediate Algebra (Customized - Ch. 9-13)
p6016
sg25
VPaperback
p6017
sg27
g119
sg29
F100.0
sa(dp6018
g18
I9780077594527
sg19
VMcgraw
p6019
sg21
VPart of Set
p6020
sg23
VConnect Access Card T/A Beginning & Intermediate Algebra (Customized - Ch. 9-13)
p6021
sg25
Nsg27
Nsg29
F58.8
sasg43
V367796
p6022
sg2
VE-11
p6023
sa(dp6024
g13
VSTAFF
p6025
sg15
(lp6026
(dp6027
g18
I9780077594534
sg19
VMessersmith*
p6028
sg21
VRequired
p6029
sg23
VBeginning & Intermediate Algebra (Customized Ch. 9-13) W/Connect
p6030
sg25
VKit/Set/Package
p6031
sg27
g119
sg29
F100.0
sa(dp6032
g18
I9780077594497
sg19
VMessersmith*
p6033
sg21
VOptional
p6034
sg23
VBeginning & Intermediate Algebra W/Connect
p6035
sg25
VKit/Set/Package
p6036
sg27
g119
sg29
F114.65
sa(dp6037
g18
I9780077594510
sg19
VMessersmith
p6038
sg21
VPart of Set
p6039
sg23
VBeginning & Intermediate Algebra (Customized - Ch. 9-13)
p6040
sg25
VPaperback
p6041
sg27
g119
sg29
F100.0
sa(dp6042
g18
I9780077594527
sg19
VMcgraw
p6043
sg21
VPart of Set
p6044
sg23
VConnect Access Card T/A Beginning & Intermediate Algebra (Customized - Ch. 9-13)
p6045
sg25
Nsg27
Nsg29
F58.8
sasg43
V367797
p6046
sg2
VE-21
p6047
sa(dp6048
g13
VSTAFF
p6049
sg15
(lp6050
(dp6051
g18
I9780077594534
sg19
VMessersmith*
p6052
sg21
VRequired
p6053
sg23
VBeginning & Intermediate Algebra (Customized Ch. 9-13) W/Connect
p6054
sg25
VKit/Set/Package
p6055
sg27
g119
sg29
F100.0
sa(dp6056
g18
I9780077594497
sg19
VMessersmith*
p6057
sg21
VOptional
p6058
sg23
VBeginning & Intermediate Algebra W/Connect
p6059
sg25
VKit/Set/Package
p6060
sg27
g119
sg29
F114.65
sa(dp6061
g18
I9780077594510
sg19
VMessersmith
p6062
sg21
VPart of Set
p6063
sg23
VBeginning & Intermediate Algebra (Customized - Ch. 9-13)
p6064
sg25
VPaperback
p6065
sg27
g119
sg29
F100.0
sa(dp6066
g18
I9780077594527
sg19
VMcgraw
p6067
sg21
VPart of Set
p6068
sg23
VConnect Access Card T/A Beginning & Intermediate Algebra (Customized - Ch. 9-13)
p6069
sg25
Nsg27
Nsg29
F58.8
sasg43
V379921
p6070
sg2
VE-22
p6071
sasg43
V97987
p6072
sg2
VMAT012
p6073
sa(dp6074
g10
(lp6075
(dp6076
g13
VMC DONALD
p6077
sg15
(lp6078
(dp6079
g18
I9781118177419
sg19
VYoung*
p6080
sg21
VRequired
p6081
sg23
VAlgebra & Trigonometry W/Wiley Plus (Cal Poly Custom)
p6082
sg25
VKit/Set/Package
p6083
sg27
g519
sg29
F105.35
sa(dp6084
g18
I9780470247471
sg19
VWiley
p6085
sg21
VPart of Set
p6086
sg23
VWiley Plus Stand-Alone Access T/A Alg & Trig 2E
p6087
sg25
VAccess Code
p6088
sg27
g519
sg29
F100.6
sa(dp6089
g18
I9781118177402
sg19
VYoung
p6090
sg21
VPart of Set
p6091
sg23
VCollege Algebra & Trigonometry For Cal Poly Pomona (Custom)
p6092
sg25
Nsg27
Nsg29
F100.0
sasg43
V367798
p6093
sg2
VE-01
p6094
sa(dp6095
g13
VGRIFFITH
p6096
sg15
(lp6097
(dp6098
g18
I9781118177419
sg19
VYoung*
p6099
sg21
VRequired
p6100
sg23
VAlgebra & Trigonometry W/Wiley Plus (Cal Poly Custom)
p6101
sg25
VKit/Set/Package
p6102
sg27
g519
sg29
F105.35
sa(dp6103
g18
I9780470247471
sg19
VWiley
p6104
sg21
VPart of Set
p6105
sg23
VWiley Plus Stand-Alone Access T/A Alg & Trig 2E
p6106
sg25
VAccess Code
p6107
sg27
g519
sg29
F100.6
sa(dp6108
g18
I9781118177402
sg19
VYoung
p6109
sg21
VPart of Set
p6110
sg23
VCollege Algebra & Trigonometry For Cal Poly Pomona (Custom)
p6111
sg25
Nsg27
Nsg29
F100.0
sasg43
V367799
p6112
sg2
VE-02
p6113
sasg43
V97988
p6114
sg2
VMAT105
p6115
sa(dp6116
g10
(lp6117
(dp6118
g13
VGREEN
p6119
sg15
(lp6120
(dp6121
g18
I9781118177419
sg19
VYoung*
p6122
sg21
VRequired
p6123
sg23
VAlgebra & Trigonometry W/Wiley Plus (Cal Poly Custom)
p6124
sg25
VKit/Set/Package
p6125
sg27
g519
sg29
F105.35
sa(dp6126
g18
I9780470247471
sg19
VWiley
p6127
sg21
VPart of Set
p6128
sg23
VWiley Plus Stand-Alone Access T/A Alg & Trig 2E
p6129
sg25
VAccess Code
p6130
sg27
g519
sg29
F100.6
sa(dp6131
g18
I9781118177402
sg19
VYoung
p6132
sg21
VPart of Set
p6133
sg23
VCollege Algebra & Trigonometry For Cal Poly Pomona (Custom)
p6134
sg25
Nsg27
Nsg29
F100.0
sasg43
V367800
p6135
sg2
VE-01
p6136
sa(dp6137
g13
VGREEN
p6138
sg15
(lp6139
(dp6140
g18
I9781118177419
sg19
VYoung*
p6141
sg21
VRequired
p6142
sg23
VAlgebra & Trigonometry W/Wiley Plus (Cal Poly Custom)
p6143
sg25
VKit/Set/Package
p6144
sg27
g519
sg29
F105.35
sa(dp6145
g18
I9780470247471
sg19
VWiley
p6146
sg21
VPart of Set
p6147
sg23
VWiley Plus Stand-Alone Access T/A Alg & Trig 2E
p6148
sg25
VAccess Code
p6149
sg27
g519
sg29
F100.6
sa(dp6150
g18
I9781118177402
sg19
VYoung
p6151
sg21
VPart of Set
p6152
sg23
VCollege Algebra & Trigonometry For Cal Poly Pomona (Custom)
p6153
sg25
Nsg27
Nsg29
F100.0
sasg43
V367801
p6154
sg2
VE-02
p6155
sasg43
V97989
p6156
sg2
VMAT106
p6157
sa(dp6158
g10
(lp6159
(dp6160
g13
VSTAFF
p6161
sg15
(lp6162
(dp6163
g18
I9781133295327
sg19
VStewart* (Sw2)
p6164
sg21
VRequired
p6165
sg23
VCalculus Early Transcendentals (California Edition) W/Ewa Code
p6166
sg25
VHardback
p6167
sg27
g79
sg29
F171.25
sa(dp6168
g18
I9781133295334
sg19
VStewart* (Sw2)
p6169
sg21
VRequired
p6170
sg23
VCalculus Single Variable Early Transcendentals  (Ca Ed) W/Ewa Code
p6171
sg25
VPaperback
p6172
sg27
g79
sg29
F146.25
sa(dp6173
g18
I9780840049346
sg19
VStewart
p6174
sg21
VOptional
p6175
sg23
VSingle Variable Calculus: Early Transcendentals St Sol Man
p6176
sg25
VPaperback
p6177
sg27
g79
sg29
F77.0
sasg43
V367802
p6178
sg2
VE-01
p6179
sasg43
V97990
p6180
sg2
VMAT112
p6181
sa(dp6182
g10
(lp6183
(dp6184
g13
VKRINIK
p6185
sg15
(lp6186
(dp6187
g18
I9781133295327
sg19
VStewart* (Sw2)
p6188
sg21
VRequired
p6189
sg23
VCalculus Early Transcendentals (California Edition) W/Ewa Code
p6190
sg25
VHardback
p6191
sg27
g79
sg29
F171.25
sa(dp6192
g18
I9781133295334
sg19
VStewart* (Sw2)
p6193
sg21
VRequired
p6194
sg23
VCalculus Single Variable Early Transcendentals  (Ca Ed) W/Ewa Code
p6195
sg25
VPaperback
p6196
sg27
g79
sg29
F146.25
sa(dp6197
g18
I9780840049346
sg19
VStewart
p6198
sg21
VOptional
p6199
sg23
VSingle Variable Calculus: Early Transcendentals St Sol Man
p6200
sg25
VPaperback
p6201
sg27
g79
sg29
F77.0
sa(dp6202
g18
I9780495988281
sg19
VStewart
p6203
sg21
VPart of Set
p6204
sg23
VCalculus Early Transcendentals (Custom California Ed)
p6205
sg25
VHardback
p6206
sg27
g79
sg29
F179.85
sa(dp6207
g18
I9780495978480
sg19
VStewart
p6208
sg21
VPart of Set
p6209
sg23
VCalculus Early Transcendntals Single Variable (Ca Custom Ed)
p6210
sg25
VPaperback
p6211
sg27
g79
sg29
F152.55
sa(dp6212
g18
I9780538738071
sg19
VCengage
p6213
sg21
VPart of Set
p6214
sg23
VEnhanced Web Assign Access W/Loe Ebook
p6215
sg25
Nsg27
Nsg29
F95.0
sasg43
V367803
p6216
sg2
VE-01
p6217
sa(dp6218
g13
VKRINIK
p6219
sg15
(lp6220
(dp6221
g18
I9781133295327
sg19
VStewart* (Sw2)
p6222
sg21
VRequired
p6223
sg23
VCalculus Early Transcendentals (California Edition) W/Ewa Code
p6224
sg25
VHardback
p6225
sg27
g79
sg29
F171.25
sa(dp6226
g18
I9781133295334
sg19
VStewart* (Sw2)
p6227
sg21
VRequired
p6228
sg23
VCalculus Single Variable Early Transcendentals  (Ca Ed) W/Ewa Code
p6229
sg25
VPaperback
p6230
sg27
g79
sg29
F146.25
sa(dp6231
g18
I9780840049346
sg19
VStewart
p6232
sg21
VOptional
p6233
sg23
VSingle Variable Calculus: Early Transcendentals St Sol Man
p6234
sg25
VPaperback
p6235
sg27
g79
sg29
F77.0
sa(dp6236
g18
I9780495988281
sg19
VStewart
p6237
sg21
VPart of Set
p6238
sg23
VCalculus Early Transcendentals (Custom California Ed)
p6239
sg25
VHardback
p6240
sg27
g79
sg29
F179.85
sa(dp6241
g18
I9780495978480
sg19
VStewart
p6242
sg21
VPart of Set
p6243
sg23
VCalculus Early Transcendntals Single Variable (Ca Custom Ed)
p6244
sg25
VPaperback
p6245
sg27
g79
sg29
F152.55
sa(dp6246
g18
I9780538738071
sg19
VCengage
p6247
sg21
VPart of Set
p6248
sg23
VEnhanced Web Assign Access W/Loe Ebook
p6249
sg25
Nsg27
Nsg29
F95.0
sasg43
V367804
p6250
sg2
VE-02
p6251
sasg43
V97991
p6252
sg2
VMAT114
p6253
sa(dp6254
g10
(lp6255
(dp6256
g13
VSWIFT  JR
p6257
sg15
(lp6258
(dp6259
g18
I9781133295327
sg19
VStewart* (Sw2)
p6260
sg21
VRequired
p6261
sg23
VCalculus Early Transcendentals (California Edition) W/Ewa Code
p6262
sg25
VHardback
p6263
sg27
g79
sg29
F171.25
sa(dp6264
g18
I9781133295334
sg19
VStewart* (Sw2)
p6265
sg21
VRequired
p6266
sg23
VCalculus Single Variable Early Transcendentals  (Ca Ed) W/Ewa Code
p6267
sg25
VPaperback
p6268
sg27
g79
sg29
F146.25
sa(dp6269
g18
I9780840049346
sg19
VStewart
p6270
sg21
VOptional
p6271
sg23
VSingle Variable Calculus: Early Transcendentals St Sol Man
p6272
sg25
VPaperback
p6273
sg27
g79
sg29
F77.0
sa(dp6274
g18
I9780495988281
sg19
VStewart
p6275
sg21
VPart of Set
p6276
sg23
VCalculus Early Transcendentals (Custom California Ed)
p6277
sg25
VHardback
p6278
sg27
g79
sg29
F179.85
sa(dp6279
g18
I9780495978480
sg19
VStewart
p6280
sg21
VPart of Set
p6281
sg23
VCalculus Early Transcendntals Single Variable (Ca Custom Ed)
p6282
sg25
VPaperback
p6283
sg27
g79
sg29
F152.55
sa(dp6284
g18
I9780538738071
sg19
VCengage
p6285
sg21
VPart of Set
p6286
sg23
VEnhanced Web Assign Access W/Loe Ebook
p6287
sg25
Nsg27
Nsg29
F95.0
sasg43
V367805
p6288
sg2
VE-01
p6289
sa(dp6290
g13
VSWIFT  JR
p6291
sg15
(lp6292
(dp6293
g18
I9781133295327
sg19
VStewart* (Sw2)
p6294
sg21
VRequired
p6295
sg23
VCalculus Early Transcendentals (California Edition) W/Ewa Code
p6296
sg25
VHardback
p6297
sg27
g79
sg29
F171.25
sa(dp6298
g18
I9781133295334
sg19
VStewart* (Sw2)
p6299
sg21
VRequired
p6300
sg23
VCalculus Single Variable Early Transcendentals  (Ca Ed) W/Ewa Code
p6301
sg25
VPaperback
p6302
sg27
g79
sg29
F146.25
sa(dp6303
g18
I9780840049346
sg19
VStewart
p6304
sg21
VOptional
p6305
sg23
VSingle Variable Calculus: Early Transcendentals St Sol Man
p6306
sg25
VPaperback
p6307
sg27
g79
sg29
F77.0
sa(dp6308
g18
I9780495988281
sg19
VStewart
p6309
sg21
VPart of Set
p6310
sg23
VCalculus Early Transcendentals (Custom California Ed)
p6311
sg25
VHardback
p6312
sg27
g79
sg29
F179.85
sa(dp6313
g18
I9780495978480
sg19
VStewart
p6314
sg21
VPart of Set
p6315
sg23
VCalculus Early Transcendntals Single Variable (Ca Custom Ed)
p6316
sg25
VPaperback
p6317
sg27
g79
sg29
F152.55
sa(dp6318
g18
I9780538738071
sg19
VCengage
p6319
sg21
VPart of Set
p6320
sg23
VEnhanced Web Assign Access W/Loe Ebook
p6321
sg25
Nsg27
Nsg29
F95.0
sasg43
V367806
p6322
sg2
VE-02
p6323
sasg43
V97992
p6324
sg2
VMAT115
p6325
sa(dp6326
g10
(lp6327
(dp6328
g13
VMC DONALD
p6329
sg15
(lp6330
(dp6331
g18
I9781133295327
sg19
VStewart* (Sw2)
p6332
sg21
VRequired
p6333
sg23
VCalculus Early Transcendentals (California Edition) W/Ewa Code
p6334
sg25
VHardback
p6335
sg27
g79
sg29
F171.25
sa(dp6336
g18
I9781133295334
sg19
VStewart* (Sw2)
p6337
sg21
VRequired
p6338
sg23
VCalculus Single Variable Early Transcendentals  (Ca Ed) W/Ewa Code
p6339
sg25
VPaperback
p6340
sg27
g79
sg29
F146.25
sa(dp6341
g18
I9780840049346
sg19
VStewart
p6342
sg21
VOptional
p6343
sg23
VSingle Variable Calculus: Early Transcendentals St Sol Man
p6344
sg25
VPaperback
p6345
sg27
g79
sg29
F77.0
sa(dp6346
g18
I9780495988281
sg19
VStewart
p6347
sg21
VPart of Set
p6348
sg23
VCalculus Early Transcendentals (Custom California Ed)
p6349
sg25
VHardback
p6350
sg27
g79
sg29
F179.85
sa(dp6351
g18
I9780495978480
sg19
VStewart
p6352
sg21
VPart of Set
p6353
sg23
VCalculus Early Transcendntals Single Variable (Ca Custom Ed)
p6354
sg25
VPaperback
p6355
sg27
g79
sg29
F152.55
sa(dp6356
g18
I9780538738071
sg19
VCengage
p6357
sg21
VPart of Set
p6358
sg23
VEnhanced Web Assign Access W/Loe Ebook
p6359
sg25
Nsg27
Nsg29
F95.0
sasg43
V367807
p6360
sg2
VE-01
p6361
sa(dp6362
g13
VGILL
p6363
sg15
(lp6364
(dp6365
g18
I9781133295327
sg19
VStewart* (Sw2)
p6366
sg21
VRequired
p6367
sg23
VCalculus Early Transcendentals (California Edition) W/Ewa Code
p6368
sg25
VHardback
p6369
sg27
g79
sg29
F171.25
sa(dp6370
g18
I9781133295334
sg19
VStewart* (Sw2)
p6371
sg21
VRequired
p6372
sg23
VCalculus Single Variable Early Transcendentals  (Ca Ed) W/Ewa Code
p6373
sg25
VPaperback
p6374
sg27
g79
sg29
F146.25
sa(dp6375
g18
I9780840049346
sg19
VStewart
p6376
sg21
VOptional
p6377
sg23
VSingle Variable Calculus: Early Transcendentals St Sol Man
p6378
sg25
VPaperback
p6379
sg27
g79
sg29
F77.0
sa(dp6380
g18
I9780495988281
sg19
VStewart
p6381
sg21
VPart of Set
p6382
sg23
VCalculus Early Transcendentals (Custom California Ed)
p6383
sg25
VHardback
p6384
sg27
g79
sg29
F179.85
sa(dp6385
g18
I9780495978480
sg19
VStewart
p6386
sg21
VPart of Set
p6387
sg23
VCalculus Early Transcendntals Single Variable (Ca Custom Ed)
p6388
sg25
VPaperback
p6389
sg27
g79
sg29
F152.55
sa(dp6390
g18
I9780538738071
sg19
VCengage
p6391
sg21
VPart of Set
p6392
sg23
VEnhanced Web Assign Access W/Loe Ebook
p6393
sg25
Nsg27
Nsg29
F95.0
sasg43
V367808
p6394
sg2
VE-02
p6395
sasg43
V97993
p6396
sg2
VMAT116
p6397
sa(dp6398
g10
(lp6399
(dp6400
g13
VSHIRLEY
p6401
sg15
(lp6402
(dp6403
g18
I9780470170526
sg19
VHughes-Hallett
p6404
sg21
VRequired
p6405
sg23
VApplied Calculus
p6406
sg25
VPaperback
p6407
sg27
g594
sg29
F161.25
sa(dp6408
g18
I9780470564813
sg19
VHughes (Db*)
p6409
sg21
VOptional
p6410
sg23
VApplied Calculus (Coursesmart)
p6411
sg25
VEbook
p6412
sg27
g594
sg29
F86.5
sa(dp6413
g18
I9780470170533
sg19
VHughes-Hallett
p6414
sg21
VOptional
p6415
sg23
VApplied Calculus St Sol Man
p6416
sg25
VPaperback
p6417
sg27
g594
sg29
F61.35
sasg43
V367809
p6418
sg2
VE-01
p6419
sasg43
V97994
p6420
sg2
VMAT120
p6421
sa(dp6422
g10
(lp6423
(dp6424
g13
VBARRO
p6425
sg15
(lp6426
(dp6427
g18
I9780077292737
sg19
VHoffmann
p6428
sg21
VRequired
p6429
sg23
VCalculus For Bus, Econ & Soc & Life Sci Brief
p6430
sg25
VHardback
p6431
sg27
V10
p6432
sg29
F169.7
sa(dp6433
g18
I9780073349022
sg19
VHoffmann
p6434
sg21
VOptional
p6435
sg23
VCalculus For Bus, Econ & Soc & Life Sci St Sol Man
p6436
sg25
VPaperback
p6437
sg27
V10
p6438
sg29
F86.35
sasg43
V367810
p6439
sg2
VE-01
p6440
sa(dp6441
g13
VBARRO
p6442
sg15
(lp6443
(dp6444
g18
I9780077292737
sg19
VHoffmann
p6445
sg21
VRequired
p6446
sg23
VCalculus For Bus, Econ & Soc & Life Sci Brief
p6447
sg25
VHardback
p6448
sg27
V10
p6449
sg29
F169.7
sa(dp6450
g18
I9780073349022
sg19
VHoffmann
p6451
sg21
VOptional
p6452
sg23
VCalculus For Bus, Econ & Soc & Life Sci St Sol Man
p6453
sg25
VPaperback
p6454
sg27
V10
p6455
sg29
F86.35
sasg43
V367811
p6456
sg2
VE-02
p6457
sa(dp6458
g13
VBARRO
p6459
sg15
(lp6460
sg43
V383410
p6461
sg2
VE-03
p6462
sasg43
V97995
p6463
sg2
VMAT125
p6464
sa(dp6465
g10
(lp6466
(dp6467
g13
VGREEN
p6468
sg15
(lp6469
(dp6470
g18
I9780486639468
sg19
VEves
p6471
sg21
VRequired
p6472
sg23
VElementary Matrix Theory
p6473
sg25
Nsg27
Nsg29
F16.95
sa(dp6474
g18
I9780486660141
sg19
VSchneider
p6475
sg21
VRequired
p6476
sg23
VMatrices & Linear Algebra
p6477
sg25
Nsg27
Nsg29
F16.95
sasg43
V367812
p6478
sg2
VE-01
p6479
sasg43
V97996
p6480
sg2
VMAT208
p6481
sa(dp6482
g10
(lp6483
(dp6484
g13
VSWIFT  JR
p6485
sg15
(lp6486
(dp6487
g18
I9781424086122
sg19
VStewart
p6488
sg21
VRequired
p6489
sg23
VCalculus Early Transcendentals - California Edition
p6490
sg25
VHardback
p6491
sg27
g173
sg29
F200.3
sa(dp6492
g18
I9780495011729
sg19
VStewart
p6493
sg21
VRequired
p6494
sg23
VMultivariable Calculus Early Transcendentals
p6495
sg25
VHardback
p6496
sg27
g173
sg29
F164.1
sa(dp6497
g18
I9780495544289
sg19
VStewart (Db*)
p6498
sg21
VOptional
p6499
sg23
VMultivariable Calculus: Early Transcendentals (Coursesmart)
p6500
sg25
VEbook
p6501
sg27
g173
sg29
F88.0
sa(dp6502
g18
I9780495012283
sg19
VStewart
p6503
sg21
VOptional
p6504
sg23
VMultivariable Calculus St Sol Man
p6505
sg25
VPaperback
p6506
sg27
g173
sg29
F59.25
sasg43
V367813
p6507
sg2
VE-01
p6508
sasg43
V97997
p6509
sg2
VMAT214
p6510
sa(dp6511
g10
(lp6512
(dp6513
g13
VGREEN
p6514
sg15
(lp6515
(dp6516
g18
I9781424086122
sg19
VStewart
p6517
sg21
VRequired
p6518
sg23
VCalculus Early Transcendentals - California Edition
p6519
sg25
VHardback
p6520
sg27
g173
sg29
F200.3
sa(dp6521
g18
I9780495011729
sg19
VStewart
p6522
sg21
VRequired
p6523
sg23
VMultivariable Calculus Early Transcendentals
p6524
sg25
VHardback
p6525
sg27
g173
sg29
F164.1
sa(dp6526
g18
I9780495544289
sg19
VStewart (Db*)
p6527
sg21
VOptional
p6528
sg23
VMultivariable Calculus: Early Transcendentals (Coursesmart)
p6529
sg25
VEbook
p6530
sg27
g173
sg29
F88.0
sa(dp6531
g18
I9780495012283
sg19
VStewart
p6532
sg21
VOptional
p6533
sg23
VMultivariable Calculus St Sol Man
p6534
sg25
VPaperback
p6535
sg27
g173
sg29
F59.25
sasg43
V367814
p6536
sg2
VE-01
p6537
sa(dp6538
g13
VKRINIK
p6539
sg15
(lp6540
(dp6541
g18
I9781424086122
sg19
VStewart
p6542
sg21
VRequired
p6543
sg23
VCalculus Early Transcendentals - California Edition
p6544
sg25
VHardback
p6545
sg27
g173
sg29
F200.3
sa(dp6546
g18
I9780495011729
sg19
VStewart
p6547
sg21
VRequired
p6548
sg23
VMultivariable Calculus Early Transcendentals
p6549
sg25
VHardback
p6550
sg27
g173
sg29
F164.1
sa(dp6551
g18
I9780495544289
sg19
VStewart (Db*)
p6552
sg21
VOptional
p6553
sg23
VMultivariable Calculus: Early Transcendentals (Coursesmart)
p6554
sg25
VEbook
p6555
sg27
g173
sg29
F88.0
sa(dp6556
g18
I9780495012283
sg19
VStewart
p6557
sg21
VOptional
p6558
sg23
VMultivariable Calculus St Sol Man
p6559
sg25
VPaperback
p6560
sg27
g173
sg29
F59.25
sasg43
V367815
p6561
sg2
VE-02
p6562
sasg43
V97998
p6563
sg2
VMAT215
p6564
sa(dp6565
g10
(lp6566
(dp6567
g13
VSWIFT  JR
p6568
sg15
(lp6569
(dp6570
g18
I9781584884767
sg19
VSwift
p6571
sg21
VRequired
p6572
sg23
VCourse In Ordinary Differential Equations
p6573
sg25
Nsg27
Nsg29
F99.95
sasg43
V367816
p6574
sg2
VE-01
p6575
sasg43
V97999
p6576
sg2
VMAT216
p6577
sa(dp6578
g10
(lp6579
(dp6580
g13
VXIE
p6581
sg15
(lp6582
(dp6583
g18
I9780201662122
sg19
VPeterson
p6584
sg21
VRequired
p6585
sg23
VLinear Algebra & Differential Equations
p6586
sg25
Nsg27
Nsg29
F90.65
sa(dp6587
g18
I9780321725066
sg19
VPeterson (Db*)
p6588
sg21
VOptional
p6589
sg23
VLinear Algebra & Differential Equations (Coursesmart)
p6590
sg25
Nsg27
Nsg29
F42.0
sa(dp6591
g18
I9780201662139
sg19
VPeterson
p6592
sg21
VOptional
p6593
sg23
VLinear Algebra & Differential Equations St Sol Man
p6594
sg25
VPaperback
p6595
sg27
V1
p6596
sg29
F36.7
sasg43
V367817
p6597
sg2
VE-01
p6598
sasg43
V98000
p6599
sg2
VMAT224
p6600
sa(dp6601
g10
(lp6602
(dp6603
g13
VKRINIK
p6604
sg15
(lp6605
(dp6606
g18
I9780321390530
sg19
VChartrand
p6607
sg21
VRequired
p6608
sg23
VMathematical Proofs
p6609
sg25
VHardback
p6610
sg27
g519
sg29
F124.0
sa(dp6611
g18
I9780321549631
sg19
VChartrand (Db*)
p6612
sg21
VOptional
p6613
sg23
VMathematical Proofs (Coursesmart Digital)
p6614
sg25
VEbook
p6615
sg27
g519
sg29
F51.0
sasg43
V367818
p6616
sg2
VE-01
p6617
sasg43
V98001
p6618
sg2
VMAT310
p6619
sasg473
VMAT
p6620
sg43
V4719
p6621
sg2
VMATHEMATICS
p6622
sa(dp6623
g7
(lp6624
(dp6625
g10
(lp6626
(dp6627
g13
VKIM
p6628
sg15
(lp6629
(dp6630
g18
I9780077381134
sg19
VBeer
p6631
sg21
VRequired
p6632
sg23
VVector Mechanics For Engineers: Statics (Custom)
p6633
sg25
VPaperback
p6634
sg27
g1113
sg29
F119.65
sasg43
V379922
p6635
sg2
VE-01
p6636
sa(dp6637
g13
VSTAFF
p6638
sg15
(lp6639
(dp6640
g18
I9780077381134
sg19
VBeer
p6641
sg21
VRequired
p6642
sg23
VVector Mechanics For Engineers: Statics (Custom)
p6643
sg25
VPaperback
p6644
sg27
g1113
sg29
F119.65
sasg43
V379923
p6645
sg2
VE-02
p6646
sasg43
V98002
p6647
sg2
VME214
p6648
sa(dp6649
g10
(lp6650
(dp6651
g13
VPIROOZAN
p6652
sg15
(lp6653
(dp6654
g18
I9780470499788
sg19
VMeriam
p6655
sg21
VRequired
p6656
sg23
VEngineering Mechanics: Dynamics Sixth Ed. Update (Student Value)
p6657
sg25
VPaperback
p6658
sg27
g173
sg29
F117.5
sasg43
V379924
p6659
sg2
VE-01
p6660
sa(dp6661
g13
VLIPOVETSKY
p6662
sg15
(lp6663
(dp6664
g18
I9780470499788
sg19
VMeriam
p6665
sg21
VRequired
p6666
sg23
VEngineering Mechanics: Dynamics Sixth Ed. Update (Student Value)
p6667
sg25
VPaperback
p6668
sg27
g173
sg29
F117.5
sasg43
V379925
p6669
sg2
VE-02
p6670
sasg43
V98003
p6671
sg2
VME215
p6672
sa(dp6673
g10
(lp6674
(dp6675
g13
VLIPOVETSKY
p6676
sg15
(lp6677
(dp6678
g18
I9780136022305
sg19
VHibbeler
p6679
sg21
VRequired
p6680
sg23
VMechanics Of Materials
p6681
sg25
VHardback
p6682
sg27
g28
sg29
F184.7
sa(dp6683
g18
I9780136023159
sg19
VHibbeler (Db*)
p6684
sg21
VOptional
p6685
sg23
VMechanics Of Materials (Coursesmart)
p6686
sg25
VEbook
p6687
sg27
g28
sg29
F79.0
sasg43
V379926
p6688
sg2
VE-01
p6689
sa(dp6690
g13
VGhazinejad,
p6691
sg15
(lp6692
(dp6693
g18
I9780136022305
sg19
VHibbeler
p6694
sg21
VRequired
p6695
sg23
VMechanics Of Materials
p6696
sg25
VHardback
p6697
sg27
g28
sg29
F184.7
sa(dp6698
g18
I9780136023159
sg19
VHibbeler (Db*)
p6699
sg21
VOptional
p6700
sg23
VMechanics Of Materials (Coursesmart)
p6701
sg25
VEbook
p6702
sg27
g28
sg29
F79.0
sasg43
V379927
p6703
sg2
VE-02
p6704
sasg43
V98004
p6705
sg2
VME218
p6706
sa(dp6707
g10
(lp6708
(dp6709
g13
VPIROOZAN
p6710
sg15
(lp6711
(dp6712
g18
I9780136022305
sg19
VHibbeler
p6713
sg21
VRequired
p6714
sg23
VMechanics Of Materials
p6715
sg25
VHardback
p6716
sg27
g28
sg29
F184.7
sa(dp6717
g18
I9780136023159
sg19
VHibbeler (Db*)
p6718
sg21
VOptional
p6719
sg23
VMechanics Of Materials (Coursesmart)
p6720
sg25
VEbook
p6721
sg27
g28
sg29
F79.0
sasg43
V379928
p6722
sg2
VE-01
p6723
sasg43
V98005
p6724
sg2
VME219
p6725
sa(dp6726
g10
(lp6727
(dp6728
g13
VSHIH
p6729
sg15
(lp6730
(dp6731
g18
I9780132396677
sg19
VChapra
p6732
sg21
VRequired
p6733
sg23
VIntro To Vba For Excel
p6734
sg25
VPaperback
p6735
sg27
g519
sg29
F47.0
sa(dp6736
g18
I9780136093114
sg19
VChapra (Db*)
p6737
sg21
VOptional
p6738
sg23
VIntro To Vba For Excel (Coursesmart)
p6739
sg25
VEbook
p6740
sg27
g519
sg29
F20.0
sasg43
V379931
p6741
sg2
VE-01
p6742
sasg43
V98007
p6743
sg2
VME232
p6744
sa(dp6745
g10
(lp6746
(dp6747
g13
VXUE
p6748
sg15
(lp6749
(dp6750
g18
I9780077986704
sg19
VCengel* (Sw2)
p6751
sg21
VRequired
p6752
sg23
VThermodynamics W/Cd Pkgd W/Property Tables Booklet
p6753
sg25
VKit/Set/Package
p6754
sg27
g79
sg29
F214.05
sa(dp6755
g18
I9780077366742
sg19
VCengel
p6756
sg21
VPart of Set
p6757
sg23
VThermodynamics (W/Cd)
p6758
sg25
VHardback
p6759
sg27
g79
sg29
F211.9
sa(dp6760
g18
I9780077359997
sg19
VCengel
p6761
sg21
VPart of Set
p6762
sg23
VThermodynamics Property Tables Booklet
p6763
sg25
VPaperback
p6764
sg27
g79
sg29
F39.0
sasg43
V379933
p6765
sg2
VE-01
p6766
sasg43
V98009
p6767
sg2
VME301
p6768
sa(dp6769
g10
(lp6770
(dp6771
g13
VXUE
p6772
sg15
(lp6773
(dp6774
g18
I9780077366742
sg19
VCengel
p6775
sg21
VPart of Set
p6776
sg23
VThermodynamics (W/Cd)
p6777
sg25
VHardback
p6778
sg27
g79
sg29
F211.9
sa(dp6779
g18
I9780077359997
sg19
VCengel
p6780
sg21
VPart of Set
p6781
sg23
VThermodynamics Property Tables Booklet
p6782
sg25
VPaperback
p6783
sg27
g79
sg29
F39.0
sasg43
V379934
p6784
sg2
VE-01
p6785
sasg43
V98010
p6786
sg2
VME302
p6787
sa(dp6788
g10
(lp6789
(dp6790
g13
VANDERSON
p6791
sg15
(lp6792
(dp6793
g18
I9781118116135
sg19
VMunson
p6794
sg21
VRequired
p6795
sg23
VFundamentals Of Fluid Mechanics
p6796
sg25
VHardback
p6797
sg27
g79
sg29
F210.0
sasg43
V379935
p6798
sg2
VE-01
p6799
sa(dp6800
g13
VANDERSON
p6801
sg15
(lp6802
(dp6803
g18
I9781118116135
sg19
VMunson
p6804
sg21
VRequired
p6805
sg23
VFundamentals Of Fluid Mechanics
p6806
sg25
VHardback
p6807
sg27
g79
sg29
F210.0
sasg43
V379936
p6808
sg2
VE-02
p6809
sasg43
V98011
p6810
sg2
VME311
p6811
sa(dp6812
g10
(lp6813
(dp6814
g13
VXUE
p6815
sg15
(lp6816
(dp6817
g18
I9780470262849
sg19
VMunson
p6818
sg21
VRequired
p6819
sg23
VFundamentals Of Fluid Mechanics
p6820
sg25
VHardback
p6821
sg27
g173
sg29
F203.75
sa(dp6822
g18
I9780470416259
sg19
VMunson (Db*)
p6823
sg21
VOptional
p6824
sg23
VFundamentals Of Fluid Mechanics (Coursesmart Digital)
p6825
sg25
VEbook
p6826
sg27
g173
sg29
F107.5
sasg43
V379937
p6827
sg2
VE-01
p6828
sasg43
V98012
p6829
sg2
VME312
p6830
sa(dp6831
g10
(lp6832
(dp6833
g13
VGhazinejad
p6834
sg15
(lp6835
(dp6836
g18
I9780495773436
sg19
VAskeland*
p6837
sg21
VRequired
p6838
sg23
VEssentials Of Materials Science & Engineering (Custom Bundle)
p6839
sg25
VNone
p6840
sg27
g519
sg29
F211.55
sasg43
V379939
p6841
sg2
VE-01
p6842
sasg43
V99400
p6843
sg2
VME315
p6844
sa(dp6845
g10
(lp6846
(dp6847
g13
VDINSMORE
p6848
sg15
(lp6849
(dp6850
g18
I9780470528006
sg19
VMeriam* (Sw2)
p6851
sg21
VRequired
p6852
sg23
VEngineering Mechanics Dynamic Sve W/Wiley Plus
p6853
sg25
VKit/Set/Package
p6854
sg27
g173
sg29
F123.75
sa(dp6855
g18
I9780470499788
sg19
VMeriam
p6856
sg21
VPart of Set
p6857
sg23
VEngineering Mechanics: Dynamics Sixth Ed. Update (Student Value)
p6858
sg25
VPaperback
p6859
sg27
g173
sg29
F117.5
sa(dp6860
g18
I9780470106365
sg19
VMeriam/Wiley
p6861
sg21
VPart of Set
p6862
sg23
VWiley Plus T/A Engineering Dynamics (Stand Alone Access Code)
p6863
sg25
Nsg27
Nsg29
F79.4
sasg43
V379940
p6864
sg2
VE-01
p6865
sa(dp6866
g13
VDINSMORE
p6867
sg15
(lp6868
(dp6869
g18
I9780470528006
sg19
VMeriam* (Sw2)
p6870
sg21
VRequired
p6871
sg23
VEngineering Mechanics Dynamic Sve W/Wiley Plus
p6872
sg25
VKit/Set/Package
p6873
sg27
g173
sg29
F123.75
sa(dp6874
g18
I9780470499788
sg19
VMeriam
p6875
sg21
VPart of Set
p6876
sg23
VEngineering Mechanics: Dynamics Sixth Ed. Update (Student Value)
p6877
sg25
VPaperback
p6878
sg27
g173
sg29
F117.5
sa(dp6879
g18
I9780470106365
sg19
VMeriam/Wiley
p6880
sg21
VPart of Set
p6881
sg23
VWiley Plus T/A Engineering Dynamics (Stand Alone Access Code)
p6882
sg25
Nsg27
Nsg29
F79.4
sasg43
V379941
p6883
sg2
VE-02
p6884
sa(dp6885
g13
VSTAFF
p6886
sg15
(lp6887
(dp6888
g18
I9780470499788
sg19
VMeriam
p6889
sg21
VRequired
p6890
sg23
VEngineering Mechanics: Dynamics Sixth Ed. Update (Student Value)
p6891
sg25
VPaperback
p6892
sg27
g173
sg29
F117.5
sasg43
V379942
p6893
sg2
VE-03
p6894
sasg43
V98014
p6895
sg2
VME316
p6896
sa(dp6897
g10
(lp6898
(dp6899
g13
VPIROOZAN
p6900
sg15
(lp6901
(dp6902
g18
I9780077300555
sg19
VBudynas (Db*)
p6903
sg21
VRequired
p6904
sg23
VShigley's Mechanical Engineering Design (Coursesmart)
p6905
sg25
Nsg27
Nsg29
F119.25
sa(dp6906
g18
I9780073529288
sg19
VBudynas
p6907
sg21
VRequired
p6908
sg23
VShigley's Mechanical Engineering Design
p6909
sg25
VHardback
p6910
sg27
g1113
sg29
F180.0
sasg43
V379943
p6911
sg2
VE-01
p6912
sasg43
V98015
p6913
sg2
VME319
p6914
sa(dp6915
g10
(lp6916
(dp6917
g13
VKIM
p6918
sg15
(lp6919
(dp6920
g18
I9780073529288
sg19
VBudynas
p6921
sg21
VRequired
p6922
sg23
VShigley's Mechanical Engineering Design
p6923
sg25
VHardback
p6924
sg27
g1113
sg29
F180.0
sa(dp6925
g18
I9780077300555
sg19
VBudynas (Db*)
p6926
sg21
VOptional
p6927
sg23
VShigley's Mechanical Engineering Design (Coursesmart)
p6928
sg25
Nsg27
Nsg29
F119.25
sasg43
V379944
p6929
sg2
VE-01
p6930
sasg43
V98016
p6931
sg2
VME325
p6932
sa(dp6933
g10
(lp6934
(dp6935
g13
VLIPOVETSKY
p6936
sg15
(lp6937
(dp6938
g18
I9780495668251
sg19
VLogan
p6939
sg21
VRequired
p6940
sg23
VFirst Course In Finite Element Method
p6941
sg25
VHardback
p6942
sg27
g416
sg29
F214.7
sa(dp6943
g18
I9781111895099
sg19
VLogan (Db*)
p6944
sg21
VOptional
p6945
sg23
VFirst Course In The Finite Element Method (Coursesmart)
p6946
sg25
VEbook
p6947
sg27
g416
sg29
F116.0
sasg43
V379948
p6948
sg2
VE-01
p6949
sasg43
V98019
p6950
sg2
VME406
p6951
sa(dp6952
g10
(lp6953
(dp6954
g13
VDINSMORE
p6955
sg15
(lp6956
(dp6957
g18
I9780470501962
sg19
VBergman
p6958
sg21
VRequired
p6959
sg23
VIntro To Heat Transfer
p6960
sg25
VHardback
p6961
sg27
g173
sg29
F227.5
sa(dp6962
g18
I9780470919620
sg19
VIncropera (Db*)
p6963
sg21
VOptional
p6964
sg23
VIntro To Heat Transfer (Coursesmart)
p6965
sg25
VEbook
p6966
sg27
g173
sg29
F116.5
sasg43
V379950
p6967
sg2
VE-01
p6968
sasg43
V98021
p6969
sg2
VME415
p6970
sa(dp6971
g10
(lp6972
(dp6973
g13
VANDERSON
p6974
sg15
(lp6975
(dp6976
g18
I9780470496626
sg19
VLee
p6977
sg21
VRequired
p6978
sg23
VThermal Design
p6979
sg25
Nsg27
Nsg29
F150.0
sa(dp6980
g18
I9780470951606
sg19
VLee (Db*)
p6981
sg21
VOptional
p6982
sg23
VThermal Design (Coursesmart)
p6983
sg25
Nsg27
Nsg29
F105.0
sasg43
V379951
p6984
sg2
VE-01
p6985
sasg43
V98022
p6986
sg2
VME427
p6987
sa(dp6988
g10
(lp6989
(dp6990
g13
VANDERSON
p6991
sg15
(lp6992
(dp6993
g18
I9780201847659
sg19
VBeckwith
p6994
sg21
VRequired
p6995
sg23
VMechanical Measurements
p6996
sg25
VHardback
p6997
sg27
g173
sg29
F183.75
sasg43
V379952
p6998
sg2
VE-01
p6999
sasg43
V98023
p7000
sg2
VME435
p7001
sa(dp7002
g10
(lp7003
(dp7004
g13
VDINSMORE
p7005
sg15
(lp7006
(dp7007
g18
I9780136024583
sg19
VDorf
p7008
sg21
VRequired
p7009
sg23
VModern Control Systems
p7010
sg25
VHardback
p7011
sg27
V12
p7012
sg29
F177.2
sa(dp7013
g18
I9780136024941
sg19
VDorf (Db*)
p7014
sg21
VOptional
p7015
sg23
VModern Control Systems (Coursesmart)
p7016
sg25
VEbook
p7017
sg27
V12
p7018
sg29
F73.0
sasg43
V379954
p7019
sg2
VE-01
p7020
sasg43
V98025
p7021
sg2
VME439
p7022
sa(dp7023
g10
(lp7024
(dp7025
g13
VSHIH
p7026
sg15
(lp7027
sg43
V379956
p7028
sg2
VE-01
p7029
sasg43
V99401
p7030
sg2
VME499
p7031
sa(dp7032
g10
(lp7033
(dp7034
g13
VREZAEI
p7035
sg15
(lp7036
sg43
V379929
p7037
sg2
VE-01
p7038
sa(dp7039
g13
VREZAEI
p7040
sg15
(lp7041
sg43
V379930
p7042
sg2
VE-02
p7043
sasg43
V98006
p7044
sg2
VME220L
p7045
sa(dp7046
g10
(lp7047
(dp7048
g13
VKIM
p7049
sg15
(lp7050
sg43
V380110
p7051
sg2
VE-01
p7052
sasg43
V99501
p7053
sg2
VME224L
p7054
sa(dp7055
g10
(lp7056
(dp7057
g13
V
p7058
sg15
(lp7059
sg43
V383514
p7060
sg2
V01
p7061
sasg43
V100844
p7062
sg2
VME224L
p7063
sa(dp7064
g10
(lp7065
(dp7066
g13
VSHIH
p7067
sg15
(lp7068
(dp7069
g18
I9780470767856
sg19
VGilat
p7070
sg21
VRequired
p7071
sg23
VMatlab
p7072
sg25
VPaperback
p7073
sg27
g594
sg29
F104.0
sa(dp7074
g18
I9780470919491
sg19
VGilat (Db*)
p7075
sg21
VOptional
p7076
sg23
VMatlab (Coursesmart)
p7077
sg25
VEbook
p7078
sg27
g594
sg29
F50.5
sasg43
V379932
p7079
sg2
VE-01
p7080
sasg43
V98008
p7081
sg2
VME232A
p7082
sa(dp7083
g10
(lp7084
(dp7085
g13
VXUE
p7086
sg15
(lp7087
sg43
V379938
p7088
sg2
VE-01
p7089
sasg43
V98013
p7090
sg2
VME313L
p7091
sa(dp7092
g10
(lp7093
(dp7094
g13
VKIM
p7095
sg15
(lp7096
sg43
V379945
p7097
sg2
VE-01
p7098
sasg43
V98017
p7099
sg2
VME325L
p7100
sa(dp7101
g10
(lp7102
(dp7103
g13
VVALDEZ
p7104
sg15
(lp7105
sg43
V379946
p7106
sg2
VE-01
p7107
sa(dp7108
g13
VVALDEZ
p7109
sg15
(lp7110
sg43
V379947
p7111
sg2
VE-02
p7112
sasg43
V98018
p7113
sg2
VME350L
p7114
sa(dp7115
g10
(lp7116
(dp7117
g13
VLIPOVETSKY
p7118
sg15
(lp7119
sg43
V379949
p7120
sg2
VE-01
p7121
sasg43
V98020
p7122
sg2
VME406A
p7123
sa(dp7124
g10
(lp7125
(dp7126
g13
VANDERSON
p7127
sg15
(lp7128
sg43
V379953
p7129
sg2
VE-01
p7130
sasg43
V98024
p7131
sg2
VME435L
p7132
sa(dp7133
g10
(lp7134
(dp7135
g13
VDINSMORE
p7136
sg15
(lp7137
sg43
V379955
p7138
sg2
VE-01
p7139
sasg43
V98026
p7140
sg2
VME439L
p7141
sasg473
VME
p7142
sg43
V4821
p7143
sg2
VMECHANICAL ENGR
p7144
sa(dp7145
g7
(lp7146
(dp7147
g10
(lp7148
(dp7149
g13
VDAVIS JR
p7150
sg15
(lp7151
(dp7152
g18
I9781118169254
sg19
VDegarmo*
p7153
sg21
VRequired
p7154
sg23
VMaterials & Processess In Manufacturing (W/Access Code)
p7155
sg25
VSpiral
p7156
sg27
V11
p7157
sg29
F124.0
sasg43
V367852
p7158
sg2
VE-01
p7159
sasg43
V98027
p7160
sg2
VMFE201
p7161
sa(dp7162
g10
(lp7163
(dp7164
g13
VDAVIS JR
p7165
sg15
(lp7166
sg43
V367853
p7167
sg2
VE-01
p7168
sa(dp7169
g13
VDAVIS JR
p7170
sg15
(lp7171
sg43
V367854
p7172
sg2
VE-02
p7173
sasg43
V98028
p7174
sg2
VMFE201L
p7175
sasg473
VMFE
p7176
sg43
V4721
p7177
sg2
VMANUFACTURING ENGR
p7178
sa(dp7179
g7
(lp7180
(dp7181
g10
(lp7182
(dp7183
g13
VALMARAZ
p7184
sg15
(lp7185
sg43
V379957
p7186
sg2
VE-01
p7187
sasg43
V99402
p7188
sg2
VMHR201
p7189
sa(dp7190
g10
(lp7191
(dp7192
g13
VSHARIFZADEH
p7193
sg15
(lp7194
sg43
V379958
p7195
sg2
VE-01
p7196
sasg43
V99403
p7197
sg2
VMHR301
p7198
sa(dp7199
g10
(lp7200
(dp7201
g13
VDELGADO
p7202
sg15
(lp7203
(dp7204
g18
I9780538453158
sg19
VMathis
p7205
sg21
VRequired
p7206
sg23
VHuman Resource Management
p7207
sg25
VHardback
p7208
sg27
V13
p7209
sg29
F213.15
sa(dp7210
g18
I9781111547226
sg19
VMathis (Db*)
p7211
sg21
VOptional
p7212
sg23
VHuman Resource Management (Coursesmart)
p7213
sg25
VEbook
p7214
sg27
V13
p7215
sg29
F92.0
sasg43
V379959
p7216
sg2
VE-01
p7217
sasg43
V99404
p7218
sg2
VMHR311
p7219
sa(dp7220
g10
(lp7221
(dp7222
g13
VGONZALEZ
p7223
sg15
(lp7224
sg43
V379960
p7225
sg2
VE-01
p7226
sa(dp7227
g13
VMax
p7228
sg15
(lp7229
(dp7230
g18
I9781118129319
sg19
VSchermerhorn
p7231
sg21
VRequired
p7232
sg23
VOrganizational Behavior (Looseleaf)
p7233
sg25
VLooseleaf
p7234
sg27
V12
p7235
sg29
F138.75
sasg43
V379961
p7236
sg2
VE-02
p7237
sasg43
V99405
p7238
sg2
VMHR318
p7239
sa(dp7240
g10
(lp7241
(dp7242
g13
VWORSHAM
p7243
sg15
(lp7244
(dp7245
g18
I9781133430339
sg19
VLongenecker*
p7246
sg21
VRequired
p7247
sg23
VSmall Business Management W/Management Coursemate & E-Book Acccess
p7248
sg25
VKit/Set/Package
p7249
sg27
V16
p7250
sg29
F155.8
sa(dp7251
g18
I9781111532871
sg19
VLongenecker
p7252
sg21
VPart of Set
p7253
sg23
VSmall Business Mgmt
p7254
sg25
VHardback
p7255
sg27
V16
p7256
sg29
F227.2
sa(dp7257
g18
I9781111578343
sg19
VLongenecker
p7258
sg21
VPart of Set
p7259
sg23
VManagement Coursemate W/E-Book (Access Card)
p7260
sg25
Nsg27
Nsg29
F112.05
sasg43
V379962
p7261
sg2
VE-01
p7262
sasg43
V99406
p7263
sg2
VMHR320
p7264
sa(dp7265
g10
(lp7266
(dp7267
g13
VWORSHAM
p7268
sg15
(lp7269
(dp7270
g18
I9781111821227
sg19
VGuffey
p7271
sg21
VRequired
p7272
sg23
VEssentials Of Business Communication
p7273
sg25
VPaperback
p7274
sg27
g1113
sg29
F162.8
sa(dp7275
g18
I9781133473459
sg19
VGuffey (Db*)
p7276
sg21
VOptional
p7277
sg23
VEssentials Of Business Communication (Coursesmart)
p7278
sg25
Nsg27
Nsg29
F80.5
sasg43
V379963
p7279
sg2
VE-01
p7280
sasg43
V99407
p7281
sg2
VMHR324
p7282
sa(dp7283
g10
(lp7284
(dp7285
g13
VMax
p7286
sg15
(lp7287
sg43
V379964
p7288
sg2
VE-01
p7289
sasg43
V99408
p7290
sg2
VMHR401
p7291
sa(dp7292
g10
(lp7293
(dp7294
g13
VDELGADO
p7295
sg15
(lp7296
(dp7297
g18
I9780136078326
sg19
VBlanchard
p7298
sg21
VRequired
p7299
sg23
VEffective Training
p7300
sg25
VPaperback
p7301
sg27
g594
sg29
F134.5
sa(dp7302
g18
I9780136078371
sg19
VBlanchard (Db*)
p7303
sg21
VOptional
p7304
sg23
VEffective Training (Coursesmart Digital)
p7305
sg25
VEbook
p7306
sg27
g594
sg29
F57.0
sasg43
V379965
p7307
sg2
VE-01
p7308
sasg43
V99409
p7309
sg2
VMHR405
p7310
sa(dp7311
g10
(lp7312
(dp7313
g13
VWATERS
p7314
sg15
(lp7315
(dp7316
g18
I9781121523715
sg19
VWaters
p7317
sg21
VRequired
p7318
sg23
VStrategic Management (Mhr 410 - Summer/Fall 2012)
p7319
sg25
Nsg27
Nsg29
F51.1
sasg43
V379966
p7320
sg2
VE-01
p7321
sasg43
V99410
p7322
sg2
VMHR410
p7323
sa(dp7324
g10
(lp7325
(dp7326
g13
VALMARAZ
p7327
sg15
(lp7328
sg43
V379967
p7329
sg2
VE-01
p7330
sasg43
V99411
p7331
sg2
VMHR441
p7332
sa(dp7333
g10
(lp7334
(dp7335
g13
VSTAFF
p7336
sg15
(lp7337
sg43
V379968
p7338
sg2
VE-01
p7339
sasg43
V99412
p7340
sg2
VMHR442
p7341
sa(dp7342
g10
(lp7343
(dp7344
g13
VEdward
p7345
sg15
(lp7346
(dp7347
g18
I9781578514861
sg19
VGoleman
p7348
sg21
VRequired
p7349
sg23
VPrimal Leadership
p7350
sg25
Nsg27
Nsg29
F26.95
sa(dp7351
g18
I9780060835910
sg19
VRock
p7352
sg21
VRequired
p7353
sg23
VQuiet Leadership
p7354
sg25
Nsg27
Nsg29
F16.0
sa(dp7355
g18
I9780787984915
sg19
VKouzes
p7356
sg21
VRequired
p7357
sg23
VLeadership Challenge
p7358
sg25
VHardback
p7359
sg27
g594
sg29
F29.95
sasg43
V379969
p7360
sg2
VE-01
p7361
sasg43
V99413
p7362
sg2
VMHR450
p7363
sasg473
VMHR
p7364
sg43
V4823
p7365
sg2
VMGMT & HUMAN RESOUR
p7366
sa(dp7367
g7
(lp7368
(dp7369
g10
(lp7370
(dp7371
g13
VSTATHOPOULOS
p7372
sg15
(lp7373
(dp7374
g18
I9780878936854
sg19
VStaley
p7375
sg21
VRequired
p7376
sg23
VMicrobial Life
p7377
sg25
VHardback
p7378
sg27
g519
sg29
F144.95
sasg43
V367855
p7379
sg2
VE-01
p7380
sasg43
V98029
p7381
sg2
VMIC201
p7382
sa(dp7383
g10
(lp7384
(dp7385
g13
VSTAFF
p7386
sg15
(lp7387
sg43
V367856
p7388
sg2
VE-01
p7389
sa(dp7390
g13
VSTAFF
p7391
sg15
(lp7392
sg43
V367857
p7393
sg2
VE-02
p7394
sa(dp7395
g13
VSTAFF
p7396
sg15
(lp7397
sg43
V367858
p7398
sg2
VE-04
p7399
sasg43
V98030
p7400
sg2
VMIC201L
p7401
sasg473
VMIC
p7402
sg43
V4814
p7403
sg2
VMICROBIOLOGY
p7404
sa(dp7405
g7
(lp7406
(dp7407
g10
(lp7408
(dp7409
g13
VEMERSON
p7410
sg15
(lp7411
sg43
V379970
p7412
sg2
VE-01
p7413
sasg43
V99425
p7414
sg2
VMPA599
p7415
sasg473
VMPA
p7416
sg43
V4824
p7417
sg2
VMASTERS OF PUBLIC AD
p7418
sa(dp7419
g7
(lp7420
(dp7421
g10
(lp7422
(dp7423
g13
VRAVI
p7424
sg15
(lp7425
sg43
V383411
p7426
sg2
V01
p7427
sasg43
V100773
p7428
sg2
VMTE207
p7429
sasg473
VMTE
p7430
sg43
V4726
p7431
sg2
VMATERIALS ENGR
p7432
sa(dp7433
g7
(lp7434
(dp7435
g10
(lp7436
(dp7437
g13
VKOPPLIN
p7438
sg15
(lp7439
(dp7440
g18
I9780977927685
sg19
VConnect Ed
p7441
sg21
VRequired
p7442
sg23
VOn Music Fundamentals Access Code Card
p7443
sg25
Nsg27
Nsg29
F106.25
sasg43
V379971
p7444
sg2
VE-01
p7445
sasg43
V99414
p7446
sg2
VMU100
p7447
sa(dp7448
g10
(lp7449
(dp7450
g13
VWINER
p7451
sg15
(lp7452
(dp7453
g18
I9780634009594
sg19
VThompson
p7454
sg21
VRequired
p7455
sg23
VUnderstanding Audio
p7456
sg25
Nsg27
Nsg29
F25.0
sa(dp7457
g18
I9780240811444
sg19
VBartlett
p7458
sg21
VRequired
p7459
sg23
VPractical Recording Techniques
p7460
sg25
VPaperback
p7461
sg27
g416
sg29
F46.95
sasg43
V379972
p7462
sg2
VE-13
p7463
sasg43
V99415
p7464
sg2
VMU228
p7465
sa(dp7466
g10
(lp7467
(dp7468
g13
VHUFF
p7469
sg15
(lp7470
sg43
V379973
p7471
sg2
VE-02
p7472
sasg43
V99346
p7473
sg2
VMU310
p7474
sa(dp7475
g10
(lp7476
(dp7477
g13
VWINER
p7478
sg15
(lp7479
sg43
V380111
p7480
sg2
VE-01
p7481
sasg43
V99416
p7482
sg2
VMU392
p7483
sasg473
VMU
p7484
sg43
V4727
p7485
sg2
VMUSIC
p7486
sa(dp7487
g7
(lp7488
(dp7489
g10
(lp7490
(dp7491
g13
VMARKLE
p7492
sg15
(lp7493
(dp7494
g18
I9780495603955
sg19
VSinnott-Armstrong
p7495
sg21
VRequired
p7496
sg23
VUnderstanding Arguments:An Introduction To Informal Log
p7497
sg25
VPaperback
p7498
sg27
g28
sg29
F70.5
sa(dp7499
g18
I9781439023846
sg19
VSinnott-Armstrong (Db*)
p7500
sg21
VOptional
p7501
sg23
VUnderstanding Arguments (Coursesmart)
p7502
sg25
VEbook
p7503
sg27
g28
sg29
F44.5
sasg43
V370486
p7504
sg2
V01
p7505
sasg43
V99349
p7506
sg2
VPHL202
p7507
sasg473
VPHL
p7508
sg43
V4728
p7509
sg2
VPHILOSOPHY
p7510
sa(dp7511
g7
(lp7512
(dp7513
g10
(lp7514
(dp7515
g13
VNawpar
p7516
sg15
(lp7517
(dp7518
g18
I9781256777465
sg19
VWalker*
p7519
sg21
VRequired
p7520
sg23
VPhysics W/Mastering Physics & Iclicker Rebate 2012-2013
p7521
sg25
VKit/Set/Package
p7522
sg27
g594
sg29
F219.4
sa(dp7523
g18
I9781256704782
sg19
VWalker*
p7524
sg21
VRequired
p7525
sg23
VPhysics Vol. 1 W/Mastering Physics & Iclicker Rebate 2012-2013
p7526
sg25
VKit/Set/Package
p7527
sg27
g594
sg29
F147.1
sa(dp7528
g18
I9780321611130
sg19
VWalker
p7529
sg21
VPart of Set
p7530
sg23
VPhysics Vol I
p7531
sg25
VPaperback
p7532
sg27
g594
sg29
F113.75
sa(dp7533
g18
I9780321611116
sg19
VWalker
p7534
sg21
VPart of Set
p7535
sg23
VPhysics
p7536
sg25
VHardback
p7537
sg27
g594
sg29
F163.0
sa(dp7538
g18
I9780558422882
sg19
VWalker
p7539
sg21
VPart of Set
p7540
sg23
VMastering Physics T/A Physics (No Ebook)
p7541
sg25
Nsg27
Nsg29
F59.5
sasg43
V367859
p7542
sg2
VE-01
p7543
sasg43
V98031
p7544
sg2
VPHY121
p7545
sa(dp7546
g10
(lp7547
(dp7548
g13
VRhee
p7549
sg15
(lp7550
(dp7551
g18
I9781256777465
sg19
VWalker*
p7552
sg21
VRequired
p7553
sg23
VPhysics W/Mastering Physics & Iclicker Rebate 2012-2013
p7554
sg25
VKit/Set/Package
p7555
sg27
g594
sg29
F219.4
sa(dp7556
g18
I9781256704782
sg19
VWalker*
p7557
sg21
VRequired
p7558
sg23
VPhysics Vol. 1 W/Mastering Physics & Iclicker Rebate 2012-2013
p7559
sg25
VKit/Set/Package
p7560
sg27
g594
sg29
F147.1
sa(dp7561
g18
I9781256777441
sg19
VWalker*
p7562
sg21
VRequired
p7563
sg23
VPhysics Vol. 2 W/Mastering Physics & Iclicker Rebate 2012-2013
p7564
sg25
VKit/Set/Package
p7565
sg27
g594
sg29
F138.6
sa(dp7566
g18
I9780321611130
sg19
VWalker
p7567
sg21
VPart of Set
p7568
sg23
VPhysics Vol I
p7569
sg25
VPaperback
p7570
sg27
g594
sg29
F113.75
sa(dp7571
g18
I9780321611116
sg19
VWalker
p7572
sg21
VPart of Set
p7573
sg23
VPhysics
p7574
sg25
VHardback
p7575
sg27
g594
sg29
F163.0
sa(dp7576
g18
I9780321611123
sg19
VWalker
p7577
sg21
VPart of Set
p7578
sg23
VPhysics Vol Ii
p7579
sg25
VPaperback
p7580
sg27
g594
sg29
F111.6
sasg43
V367861
p7581
sg2
VE-01
p7582
sasg43
V98033
p7583
sg2
VPHY122
p7584
sa(dp7585
g10
(lp7586
(dp7587
g13
VKhakpour
p7588
sg15
(lp7589
(dp7590
g18
I9781256777465
sg19
VWalker*
p7591
sg21
VRequired
p7592
sg23
VPhysics W/Mastering Physics & Iclicker Rebate 2012-2013
p7593
sg25
VKit/Set/Package
p7594
sg27
g594
sg29
F219.4
sa(dp7595
g18
I9781256777441
sg19
VWalker*
p7596
sg21
VRequired
p7597
sg23
VPhysics Vol. 2 W/Mastering Physics & Iclicker Rebate 2012-2013
p7598
sg25
VKit/Set/Package
p7599
sg27
g594
sg29
F138.6
sa(dp7600
g18
I9780321601995
sg19
VWalker
p7601
sg21
VOptional
p7602
sg23
VPhysics Vol 2 Sg & Solutions Manual
p7603
sg25
VPaperback
p7604
sg27
g594
sg29
F32.2
sa(dp7605
g18
I9780321611116
sg19
VWalker
p7606
sg21
VPart of Set
p7607
sg23
VPhysics
p7608
sg25
VHardback
p7609
sg27
g594
sg29
F163.0
sa(dp7610
g18
I9780321611123
sg19
VWalker
p7611
sg21
VPart of Set
p7612
sg23
VPhysics Vol Ii
p7613
sg25
VPaperback
p7614
sg27
g594
sg29
F111.6
sasg43
V367863
p7615
sg2
VE-01
p7616
sasg43
V98035
p7617
sg2
VPHY123
p7618
sa(dp7619
g10
(lp7620
(dp7621
g13
VLAM
p7622
sg15
(lp7623
(dp7624
g18
I9781118309193
sg19
VHalliday (Sw2)
p7625
sg21
VRequired
p7626
sg23
VFundamentals Of Physics Vol 1 For Csupomona W/ Wiley Plus
p7627
sg25
VKit/Set/Package
p7628
sg27
g1113
sg29
F120.65
sa(dp7629
g18
I9781118144374
sg19
VHalliday
p7630
sg21
VPart of Set
p7631
sg23
VFundamentals Of Physics Cpp Custom Qtr 1-3 (Ch 1-30)
p7632
sg25
VLooseleaf
p7633
sg27
g1113
sg29
F114.0
sa(dp7634
g18
I9780470524725
sg19
VHalliday/Wiley
p7635
sg21
VPart of Set
p7636
sg23
VWiley Plus Access Card T/A Fundamenta S Of Physics
p7637
sg25
VAccess Code
p7638
sg27
g1113
sg29
F100.0
sasg43
V367865
p7639
sg2
VE-01
p7640
sasg43
V98037
p7641
sg2
VPHY131
p7642
sa(dp7643
g10
(lp7644
(dp7645
g13
VCHRISTENSEN  JR
p7646
sg15
(lp7647
(dp7648
g18
I9781118309193
sg19
VHalliday (Sw2)
p7649
sg21
VRequired
p7650
sg23
VFundamentals Of Physics Vol 1 For Csupomona W/ Wiley Plus
p7651
sg25
VKit/Set/Package
p7652
sg27
g1113
sg29
F120.65
sa(dp7653
g18
I9781118144374
sg19
VHalliday
p7654
sg21
VPart of Set
p7655
sg23
VFundamentals Of Physics Cpp Custom Qtr 1-3 (Ch 1-30)
p7656
sg25
VLooseleaf
p7657
sg27
g1113
sg29
F114.0
sa(dp7658
g18
I9780470524725
sg19
VHalliday/Wiley
p7659
sg21
VPart of Set
p7660
sg23
VWiley Plus Access Card T/A Fundamenta S Of Physics
p7661
sg25
VAccess Code
p7662
sg27
g1113
sg29
F100.0
sasg43
V367867
p7663
sg2
VE-01
p7664
sasg43
V98039
p7665
sg2
VPHY132
p7666
sa(dp7667
g10
(lp7668
(dp7669
g13
VMYLANDER
p7670
sg15
(lp7671
(dp7672
g18
I9781118309193
sg19
VHalliday (Sw2)
p7673
sg21
VRequired
p7674
sg23
VFundamentals Of Physics Vol 1 For Csupomona W/ Wiley Plus
p7675
sg25
VKit/Set/Package
p7676
sg27
g1113
sg29
F120.65
sa(dp7677
g18
I9781118144374
sg19
VHalliday
p7678
sg21
VPart of Set
p7679
sg23
VFundamentals Of Physics Cpp Custom Qtr 1-3 (Ch 1-30)
p7680
sg25
VLooseleaf
p7681
sg27
g1113
sg29
F114.0
sa(dp7682
g18
I9780470524725
sg19
VHalliday/Wiley
p7683
sg21
VPart of Set
p7684
sg23
VWiley Plus Access Card T/A Fundamenta S Of Physics
p7685
sg25
VAccess Code
p7686
sg27
g1113
sg29
F100.0
sasg43
V367869
p7687
sg2
VE-01
p7688
sasg43
V98041
p7689
sg2
VPHY133
p7690
sa(dp7691
g10
(lp7692
(dp7693
g13
VShareghi
p7694
sg15
(lp7695
sg43
V367860
p7696
sg2
VE-11
p7697
sa(dp7698
g13
VSTAFF,
p7699
sg15
(lp7700
sg43
V379816
p7701
sg2
VE-12
p7702
sasg43
V98032
p7703
sg2
VPHY121L
p7704
sa(dp7705
g10
(lp7706
(dp7707
g13
VRhee
p7708
sg15
(lp7709
sg43
V367862
p7710
sg2
VE-11
p7711
sa(dp7712
g13
VSTAFF,
p7713
sg15
(lp7714
sg43
V379817
p7715
sg2
VE-12
p7716
sasg43
V98034
p7717
sg2
VPHY122L
p7718
sa(dp7719
g10
(lp7720
(dp7721
g13
VKhakpour
p7722
sg15
(lp7723
sg43
V367864
p7724
sg2
VE-11
p7725
sa(dp7726
g13
VSTAFF,
p7727
sg15
(lp7728
sg43
V379818
p7729
sg2
VE-12
p7730
sasg43
V98036
p7731
sg2
VPHY123L
p7732
sa(dp7733
g10
(lp7734
(dp7735
g13
VLAM
p7736
sg15
(lp7737
sg43
V367866
p7738
sg2
VE-11
p7739
sa(dp7740
g13
VSTAFF,
p7741
sg15
(lp7742
sg43
V379819
p7743
sg2
VE-12
p7744
sasg43
V98038
p7745
sg2
VPHY131L
p7746
sa(dp7747
g10
(lp7748
(dp7749
g13
VBenzahra
p7750
sg15
(lp7751
sg43
V367868
p7752
sg2
VE-11
p7753
sa(dp7754
g13
VBenzahra
p7755
sg15
(lp7756
sg43
V379820
p7757
sg2
VE-12
p7758
sasg43
V98040
p7759
sg2
VPHY132L
p7760
sa(dp7761
g10
(lp7762
(dp7763
g13
VMYLANDER
p7764
sg15
(lp7765
sg43
V367870
p7766
sg2
VE-11
p7767
sa(dp7768
g13
VSTAFF,
p7769
sg15
(lp7770
sg43
V379821
p7771
sg2
VE-12
p7772
sasg43
V98042
p7773
sg2
VPHY133L
p7774
sasg473
VPHY
p7775
sg43
V4828
p7776
sg2
VPHYSICS
p7777
sa(dp7778
g7
(lp7779
(dp7780
g10
(lp7781
(dp7782
g13
VREESE
p7783
sg15
(lp7784
(dp7785
g18
I9780759392809
sg19
VSquire
p7786
sg21
VRequired
p7787
sg23
VDynamics Of Democracy
p7788
sg25
VPaperback
p7789
sg27
g416
sg29
F92.5
sasg43
V379975
p7790
sg2
VE-01
p7791
sa(dp7792
g13
VREESE
p7793
sg15
(lp7794
sg43
V383412
p7795
sg2
VE-02
p7796
sasg43
V99417
p7797
sg2
VPLS201
p7798
sa(dp7799
g10
(lp7800
(dp7801
g13
VEMERSON
p7802
sg15
(lp7803
sg43
V379977
p7804
sg2
VE-01
p7805
sasg43
V99419
p7806
sg2
VPLS205
p7807
sa(dp7808
g10
(lp7809
(dp7810
g13
VREESE
p7811
sg15
(lp7812
sg43
V379979
p7813
sg2
VE-01
p7814
sa(dp7815
g13
VREESE
p7816
sg15
(lp7817
sg43
V383413
p7818
sg2
VE-02
p7819
sasg43
V99421
p7820
sg2
VPLS382
p7821
sa(dp7822
g10
(lp7823
(dp7824
g13
VEMERSON
p7825
sg15
(lp7826
sg43
V379978
p7827
sg2
VE-01
p7828
sasg43
V99420
p7829
sg2
VPLS205A
p7830
sasg473
VPLS
p7831
sg43
V4825
p7832
sg2
VPOLITICAL SCIENCE
p7833
sa(dp7834
g7
(lp7835
(dp7836
g10
(lp7837
(dp7838
g13
VKaufmann
p7839
sg15
(lp7840
(dp7841
g18
I9780738003351
sg19
VKaae
p7842
sg21
VRequired
p7843
sg23
VTravels With My Antlion (Agb 300)
p7844
sg25
VSpiral
p7845
sg27
V5R
p7846
sg29
F44.55
sasg43
V370485
p7847
sg2
VE-01
p7848
sasg43
V99348
p7849
sg2
VPLT300
p7850
sasg473
VPLT
p7851
sg43
V4826
p7852
sg2
VPLANT SCIENCES
p7853
sa(dp7854
g7
(lp7855
(dp7856
g10
(lp7857
(dp7858
g13
VTHOMAS
p7859
sg15
(lp7860
(dp7861
g18
I9781133618904
sg19
VWeiten*
p7862
sg21
VRequired
p7863
sg23
VPsychology Applied To Modern Life (Loose Leaf) W/Custom Webtutor On Blackboard
p7864
sg25
VKit/Set/Package
p7865
sg27
V10
p7866
sg29
F124.0
sa(dp7867
g18
I9781111561352
sg19
VWeiten (Db*)
p7868
sg21
VOptional
p7869
sg23
VPsychology Applied To Modern Life (Coursesmart)
p7870
sg25
VEbook
p7871
sg27
V10
p7872
sg29
F90.0
sa(dp7873
g18
I9781133445265
sg19
VCengage/Weiten*
p7874
sg21
VPart of Set
p7875
sg23
VAcp Pac Cc On Bl Psych Applied To Mod Life Webutor Access
p7876
sg25
VAccess Code
p7877
sg27
V10
p7878
sg29
F25.0
sa(dp7879
g18
I9781111297985
sg19
VWeiten
p7880
sg21
VPart of Set
p7881
sg23
VPsychology Applied To Modern Life Advantage Series (Loose Leaf)
p7882
sg25
VPaperback
p7883
sg27
V10
p7884
sg29
F108.35
sasg43
V367871
p7885
sg2
VE-01
p7886
sasg43
V98043
p7887
sg2
VPSY201
p7888
sa(dp7889
g10
(lp7890
(dp7891
g13
VVon Glahn
p7892
sg15
(lp7893
(dp7894
g18
I9780470392225
sg19
VWitte
p7895
sg21
VRequired
p7896
sg23
VStatistics
p7897
sg25
VHardback
p7898
sg27
g1113
sg29
F182.5
sa(dp7899
g18
I9780470566114
sg19
VWitte (Db*)
p7900
sg21
VOptional
p7901
sg23
VStatistics (Coursesmart Digital)
p7902
sg25
VEbook
p7903
sg27
g1113
sg29
F93.5
sasg43
V367873
p7904
sg2
VE-01
p7905
sasg43
V98044
p7906
sg2
VPSY307
p7907
sa(dp7908
g10
(lp7909
(dp7910
g13
VSTURGES
p7911
sg15
(lp7912
(dp7913
g18
I9780078035197
sg19
VTaylor
p7914
sg21
VRequired
p7915
sg23
VHealth Psychology
p7916
sg25
VHardback
p7917
sg27
g28
sg29
F181.25
sa(dp7918
g18
I9780077378318
sg19
VTaylor (Db*)
p7919
sg21
VOptional
p7920
sg23
VHealth Psychology (Coursesmart)
p7921
sg25
VEbook
p7922
sg27
g28
sg29
F95.0
sasg43
V367875
p7923
sg2
VE-01
p7924
sasg43
V98046
p7925
sg2
VPSY326
p7926
sa(dp7927
g10
(lp7928
(dp7929
g13
VHORNER
p7930
sg15
(lp7931
(dp7932
g18
I9780205579808
sg19
VFoley
p7933
sg21
VRequired
p7934
sg23
VSensation & Perception
p7935
sg25
VHardback
p7936
sg27
g416
sg29
F130.4
sa(dp7937
g18
I9780205654376
sg19
VFoley (Db*)
p7938
sg21
VOptional
p7939
sg23
VSensation & Perception (Coursesmart)
p7940
sg25
VEbook
p7941
sg27
g416
sg29
F51.0
sasg43
V367876
p7942
sg2
VE-01
p7943
sasg43
V98047
p7944
sg2
VPSY460
p7945
sa(dp7946
g10
(lp7947
(dp7948
g13
VVon Glahn
p7949
sg15
(lp7950
sg43
V367874
p7951
sg2
VE-01
p7952
sasg43
V98045
p7953
sg2
VPSY307A
p7954
sa(dp7955
g10
(lp7956
(dp7957
g13
VHORNER
p7958
sg15
(lp7959
sg43
V367877
p7960
sg2
VE-01
p7961
sasg43
V98048
p7962
sg2
VPSY460A
p7963
sasg473
VPSY
p7964
sg43
V4829
p7965
sg2
VPSYCHOLOGY
p7966
sa(dp7967
g7
(lp7968
(dp7969
g10
(lp7970
(dp7971
g13
VSTAFF
p7972
sg15
(lp7973
(dp7974
g18
I9780495094685
sg19
VBabbie
p7975
sg21
VRequired
p7976
sg23
VBasics Of Social Research
p7977
sg25
VPaperback
p7978
sg27
g594
sg29
F118.35
sa(dp7979
g18
I9780495517467
sg19
VBabbie (Db*)
p7980
sg21
VOptional
p7981
sg23
VThe Basics Of Social Research (Coursesmart)
p7982
sg25
VEbook
p7983
sg27
g594
sg29
F60.0
sasg43
V367878
p7984
sg2
VE-01
p7985
sasg43
V98049
p7986
sg2
VSOC204
p7987
sa(dp7988
g10
(lp7989
(dp7990
g13
VSTAFF
p7991
sg15
(lp7992
(dp7993
g18
I9780761929949
sg19
VBeckett
p7994
sg21
VRequired
p7995
sg23
VPolitics Of Injustice
p7996
sg25
VPaperback
p7997
sg27
g519
sg29
F53.0
sa(dp7998
g18
I9780802141446
sg19
VShakur
p7999
sg21
VRequired
p8000
sg23
VMonster
p8001
sg25
Nsg27
Nsg29
F14.95
sa(dp8002
g18
I9781583227435
sg19
VLoo
p8003
sg21
VRequired
p8004
sg23
VImpeach The President
p8005
sg25
VPaperback
p8006
sg27
V97
p8007
sg29
F17.95
sa(dp8008
g18
I9780132350068
sg19
VBarkan
p8009
sg21
VRequired
p8010
sg23
VCriminology
p8011
sg25
VHardback
p8012
sg27
g594
sg29
F120.05
sa(dp8013
g18
I9780135031834
sg19
VBarkan (Db*)
p8014
sg21
VOptional
p8015
sg23
VCriminology (Coursesmart Digital)
p8016
sg25
VEbook
p8017
sg27
g594
sg29
F64.0
sasg43
V367879
p8018
sg2
VE-01
p8019
sasg43
V98050
p8020
sg2
VSOC302
p8021
sasg473
VSOC
p8022
sg43
V4830
p8023
sg2
VSOCIOLOGY
p8024
sa(dp8025
g7
(lp8026
(dp8027
g10
(lp8028
(dp8029
g13
VDICKSON
p8030
sg15
(lp8031
(dp8032
g18
I9781428250246
sg19
VLong* (Sw2)
p8033
sg21
VRequired
p8034
sg23
VNexos Custom Vol 1 W/Ilrn Access Code
p8035
sg25
VKit/Set/Package
p8036
sg27
g519
sg29
F125.6
sa(dp8037
g18
I9781111006990
sg19
VLong*
p8038
sg21
VPart of Set
p8039
sg23
VNexos Custom Vol 1  (Acp For Cpp) 1111006997
p8040
sg25
VPaperback
p8041
sg27
g519
sg29
F80.0
sasg43
V367880
p8042
sg2
VE-01
p8043
sa(dp8044
g13
VVogel
p8045
sg15
(lp8046
(dp8047
g18
I9781428250246
sg19
VLong* (Sw2)
p8048
sg21
VRequired
p8049
sg23
VNexos Custom Vol 1 W/Ilrn Access Code
p8050
sg25
VKit/Set/Package
p8051
sg27
g519
sg29
F125.6
sa(dp8052
g18
I9781111006990
sg19
VLong*
p8053
sg21
VPart of Set
p8054
sg23
VNexos Custom Vol 1  (Acp For Cpp) 1111006997
p8055
sg25
VPaperback
p8056
sg27
g519
sg29
F80.0
sasg43
V367881
p8057
sg2
VE-02
p8058
sasg43
V98051
p8059
sg2
VSPN151
p8060
sasg473
VSPN
p8061
sg43
V4736
p8062
sg2
VSPANISH
p8063
sa(dp8064
g7
(lp8065
(dp8066
g10
(lp8067
(dp8068
g13
VKIM
p8069
sg15
(lp8070
(dp8071
g18
I9781118299876
sg19
VMann
p8072
sg21
VRequired
p8073
sg23
VStatistics (Custom)
p8074
sg25
VPaperback
p8075
sg27
g79
sg29
F105.35
sasg43
V367882
p8076
sg2
VE-01
p8077
sa(dp8078
g13
VGILL
p8079
sg15
(lp8080
(dp8081
g18
I9781118299876
sg19
VMann
p8082
sg21
VRequired
p8083
sg23
VStatistics (Custom)
p8084
sg25
VPaperback
p8085
sg27
g79
sg29
F105.35
sasg43
V367883
p8086
sg2
VE-02
p8087
sa(dp8088
g13
VGILL
p8089
sg15
(lp8090
(dp8091
g18
I9781118299876
sg19
VMann
p8092
sg21
VRequired
p8093
sg23
VStatistics (Custom)
p8094
sg25
VPaperback
p8095
sg27
g79
sg29
F105.35
sasg43
V367884
p8096
sg2
VE-03
p8097
sasg43
V98052
p8098
sg2
VSTA120
p8099
sa(dp8100
g10
(lp8101
(dp8102
g13
VGILL
p8103
sg15
(lp8104
(dp8105
g18
I9780321640772
sg19
VJohnson
p8106
sg21
VRequired
p8107
sg23
VMiller & Freund's Prob & Stats For Engineers
p8108
sg25
VHardback
p8109
sg27
g28
sg29
F150.0
sa(dp8110
g18
I9780321641724
sg19
VJohnson (Db*)
p8111
sg21
VOptional
p8112
sg23
VMiller & Freunds Probability & Statistics For Engrs (Coursesmart)
p8113
sg25
VEbook
p8114
sg27
g28
sg29
F64.0
sasg43
V367885
p8115
sg2
VE-01
p8116
sasg43
V98053
p8117
sg2
VSTA309
p8118
sasg473
VSTA
p8119
sg43
V4739
p8120
sg2
VSTATISTICS
p8121
sa(dp8122
g7
(lp8123
(dp8124
g10
(lp8125
(dp8126
g13
VDjonne
p8127
sg15
(lp8128
(dp8129
g18
I9780534274252
sg19
VWiseman
p8130
sg21
VRequired
p8131
sg23
VBecoming A Teacher In A Field-Based Setting
p8132
sg25
VPaperback
p8133
sg27
g119
sg29
F118.65
sa(dp8134
g18
I9780805880502
sg19
VZeichner
p8135
sg21
VRequired
p8136
sg23
VReflective Teaching
p8137
sg25
Nsg27
Nsg29
F22.95
sasg43
V367886
p8138
sg2
VE-01
p8139
sasg43
V98054
p8140
sg2
VTED405
p8141
sa(dp8142
g10
(lp8143
(dp8144
g13
VFINE
p8145
sg15
(lp8146
(dp8147
g18
I9780205459469
sg19
VWoolfolk
p8148
sg21
VRequired
p8149
sg23
VEducational Psychology
p8150
sg25
VPaperback
p8151
sg27
V10
p8152
sg29
F152.5
sa(dp8153
g18
I9780137144549
sg19
VWoolfolk
p8154
sg21
VRequired
p8155
sg23
VEducational Psychology
p8156
sg25
VPaperback
p8157
sg27
V11
p8158
sg29
F148.75
sa(dp8159
g18
I9780136064138
sg19
VWoolfolk (Db*)
p8160
sg21
VOptional
p8161
sg23
VEducational Psychology (Coursesmart)
p8162
sg25
VEbook
p8163
sg27
V11
p8164
sg29
F100.0
sa(dp8165
g18
I9780137034666
sg19
VCharles (Db*)
p8166
sg21
VOptional
p8167
sg23
VBuilding Classroom Discipline (Coursesmart)
p8168
sg25
VEbook
p8169
sg27
V10
p8170
sg29
F35.0
sa(dp8171
g18
I9780137034055
sg19
VCharles
p8172
sg21
VOptional
p8173
sg23
VBuilding Classroom Discipline
p8174
sg25
VPaperback
p8175
sg27
V10
p8176
sg29
F86.65
sasg43
V367887
p8177
sg2
VE-01
p8178
sasg43
V98055
p8179
sg2
VTED406
p8180
sa(dp8181
g10
(lp8182
(dp8183
g13
VNAVARRO
p8184
sg15
(lp8185
sg43
V367888
p8186
sg2
VE-01
p8187
sasg43
V98056
p8188
sg2
VTED407
p8189
sa(dp8190
g10
(lp8191
(dp8192
g13
VSTAFF
p8193
sg15
(lp8194
sg43
V380207
p8195
sg2
V01
p8196
sasg43
V100649
p8197
sg2
VTED441
p8198
sasg473
VTED
p8199
sg43
V4831
p8200
sg2
VTEACHER EDUCATION
p8201
sa(dp8202
g7
(lp8203
(dp8204
g10
(lp8205
(dp8206
g13
VBISESTI
p8207
sg15
(lp8208
sg43
V379982
p8209
sg2
VE-01
p8210
sasg43
V99424
p8211
sg2
VTH441L
p8212
sasg473
VTH
p8213
sg43
V4742
p8214
sg2
VTHEATRE
p8215
sa(dp8216
g7
(lp8217
(dp8218
g10
(lp8219
(dp8220
g13
VXU
p8221
sg15
(lp8222
(dp8223
g18
I9780538479134
sg19
VCollier
p8224
sg21
VRequired
p8225
sg23
VOm 3 Student Ed
p8226
sg25
VPaperback
p8227
sg27
g119
sg29
F59.95
sa(dp8228
g18
I9781133148678
sg19
VCollier (Db*)
p8229
sg21
VOptional
p8230
sg23
VOm (Coursesmart)
p8231
sg25
VEbook
p8232
sg27
g119
sg29
F60.0
sasg43
V367889
p8233
sg2
VE-01
p8234
sa(dp8235
g13
VXU
p8236
sg15
(lp8237
(dp8238
g18
I9780538479134
sg19
VCollier
p8239
sg21
VRequired
p8240
sg23
VOm 3 Student Ed
p8241
sg25
VPaperback
p8242
sg27
g119
sg29
F59.95
sa(dp8243
g18
I9781133148678
sg19
VCollier (Db*)
p8244
sg21
VOptional
p8245
sg23
VOm (Coursesmart)
p8246
sg25
VEbook
p8247
sg27
g119
sg29
F60.0
sasg43
V367890
p8248
sg2
VE-02
p8249
sasg43
V98057
p8250
sg2
VTOM301
p8251
sa(dp8252
g10
(lp8253
(dp8254
g13
VHE
p8255
sg15
(lp8256
(dp8257
g18
I9781111634261
sg19
VWeiers* (Cp)
p8258
sg21
VRequired
p8259
sg23
VManagerial Statistics Custom Ed
p8260
sg25
VLooseleaf
p8261
sg27
g79
sg29
F150.0
sasg43
V367891
p8262
sg2
VE-01
p8263
sa(dp8264
g13
VCO
p8265
sg15
(lp8266
(dp8267
g18
I9781111634261
sg19
VWeiers* (Cp)
p8268
sg21
VRequired
p8269
sg23
VManagerial Statistics Custom Ed
p8270
sg25
VLooseleaf
p8271
sg27
g79
sg29
F150.0
sasg43
V367892
p8272
sg2
VE-02
p8273
sa(dp8274
g13
VCO
p8275
sg15
(lp8276
(dp8277
g18
I9781111634261
sg19
VWeiers* (Cp)
p8278
sg21
VRequired
p8279
sg23
VManagerial Statistics Custom Ed
p8280
sg25
VLooseleaf
p8281
sg27
g79
sg29
F150.0
sasg43
V367893
p8282
sg2
VE-03
p8283
sa(dp8284
g13
VHALATI
p8285
sg15
(lp8286
(dp8287
g18
I9781111634261
sg19
VWeiers* (Cp)
p8288
sg21
VRequired
p8289
sg23
VManagerial Statistics Custom Ed
p8290
sg25
VLooseleaf
p8291
sg27
g79
sg29
F150.0
sasg43
V367894
p8292
sg2
VE-04
p8293
sasg43
V98058
p8294
sg2
VTOM302
p8295
sa(dp8296
g10
(lp8297
(dp8298
g13
VHALATI
p8299
sg15
(lp8300
(dp8301
g18
I9781439043271
sg19
VAnderson
p8302
sg21
VRequired
p8303
sg23
VIntro To Management Science (W/Cd)
p8304
sg25
VHardback
p8305
sg27
V13
p8306
sg29
F220.65
sa(dp8307
g18
I9781111278526
sg19
VAnderson (Db*)
p8308
sg21
VOptional
p8309
sg23
VIntro To Management Science (Coursesmart)
p8310
sg25
VEbook
p8311
sg27
V13
p8312
sg29
F102.0
sasg43
V367896
p8313
sg2
VE-01
p8314
sasg43
V98060
p8315
sg2
VTOM315
p8316
sa(dp8317
g10
(lp8318
(dp8319
g13
VSTAFF
p8320
sg15
(lp8321
(dp8322
g18
I9780077284091
sg19
VStevenson*
p8323
sg21
VRequired
p8324
sg23
VOperations Management (W/Cd)
p8325
sg25
VHardback
p8326
sg27
V10
p8327
sg29
F195.95
sa(dp8328
g18
I9780077271459
sg19
VStevenson (Db*)
p8329
sg21
VOptional
p8330
sg23
VOperations Management (Coursesmart Digital)
p8331
sg25
VEbook
p8332
sg27
V10
p8333
sg29
F113.5
sa(dp8334
g18
I9780073377841
sg19
VStevenson
p8335
sg21
VPart of Set
p8336
sg23
VOperations Management
p8337
sg25
VHardback
p8338
sg27
V10
p8339
sg29
F156.75
sasg43
V367897
p8340
sg2
VE-01
p8341
sasg43
V98061
p8342
sg2
VTOM332
p8343
sa(dp8344
g10
(lp8345
(dp8346
g13
VRHODES
p8347
sg15
(lp8348
(dp8349
g18
I9781450068925
sg19
VRhodes
p8350
sg21
VRequired
p8351
sg23
VReport Writing: A Survival Guide
p8352
sg25
Nsg27
Nsg29
F16.0
sa(dp8353
g18
I9780136006695
sg19
VHunger
p8354
sg21
VRequired
p8355
sg23
VEssentials Of Strategic Management
p8356
sg25
VPaperback
p8357
sg27
g416
sg29
F104.0
sa(dp8358
g18
I9780135100004
sg19
VHunger (Db*)
p8359
sg21
VOptional
p8360
sg23
VEssentials Of Strategic Management (Coursesmart)
p8361
sg25
VEbook
p8362
sg27
g416
sg29
F42.0
sasg43
V367898
p8363
sg2
VE-01
p8364
sasg43
V98062
p8365
sg2
VTOM411
p8366
sasg473
VTOM
p8367
sg43
V4809
p8368
sg2
VTECH & OPER MGMT
p8369
sa(dp8370
g7
(lp8371
(dp8372
g10
(lp8373
(dp8374
g13
VDELGADO
p8375
sg15
(lp8376
sg43
V367899
p8377
sg2
VE-01
p8378
sasg43
V98063
p8379
sg2
VURP104
p8380
sa(dp8381
g10
(lp8382
(dp8383
g13
VZIMMER
p8384
sg15
(lp8385
sg43
V367900
p8386
sg2
VE-01
p8387
sasg43
V98064
p8388
sg2
VURP466
p8389
sa(dp8390
g10
(lp8391
(dp8392
g13
VDELGADO
p8393
sg15
(lp8394
sg43
V367901
p8395
sg2
VE-01
p8396
sasg43
V98072
p8397
sg2
VURP475
p8398
sa(dp8399
g10
(lp8400
(dp8401
g13
VDELGADO
p8402
sg15
(lp8403
sg43
V367902
p8404
sg2
VE-01
p8405
sa(dp8406
g13
VZIMMER
p8407
sg15
(lp8408
sg43
V367903
p8409
sg2
VE-02
p8410
sasg43
V98065
p8411
sg2
VURP499
p8412
sasg473
VURP
p8413
sg43
V4744
p8414
sg2
VURBAN & REG PLANNING
p8415
sa(dp8416
g7
(lp8417
(dp8418
g10
(lp8419
(dp8420
g13
VKIDD
p8421
sg15
(lp8422
(dp8423
g18
I9780073378091
sg19
VMckinley
p8424
sg21
VRequired
p8425
sg23
VHuman Anatomy
p8426
sg25
VHardback
p8427
sg27
g119
sg29
F227.2
sa(dp8428
g18
I9780077308919
sg19
VMckinley (Db*)
p8429
sg21
VOptional
p8430
sg23
VHuman Anatomy (Coursesmart)
p8431
sg25
VEbook
p8432
sg27
g119
sg29
F121.25
sasg43
V367904
p8433
sg2
VE-01
p8434
sasg43
V98066
p8435
sg2
VZOO234
p8436
sa(dp8437
g10
(lp8438
(dp8439
g13
VSPENCER
p8440
sg15
(lp8441
(dp8442
g18
I9780077350062
sg19
VFox
p8443
sg21
VRequired
p8444
sg23
VHuman Physiology
p8445
sg25
VHardback
p8446
sg27
V12
p8447
sg29
F193.75
sasg43
V367909
p8448
sg2
VE-01
p8449
sasg43
V98068
p8450
sg2
VZOO235
p8451
sa(dp8452
g10
(lp8453
(dp8454
g13
VSTAFF
p8455
sg15
(lp8456
sg43
V367905
p8457
sg2
VE-01
p8458
sa(dp8459
g13
VSTAFF
p8460
sg15
(lp8461
sg43
V367906
p8462
sg2
VE-02
p8463
sa(dp8464
g13
VSTAFF
p8465
sg15
(lp8466
sg43
V367907
p8467
sg2
VE-03
p8468
sa(dp8469
g13
VSTAFF
p8470
sg15
(lp8471
sg43
V367908
p8472
sg2
VE-04
p8473
sasg43
V98067
p8474
sg2
VZOO234L
p8475
sa(dp8476
g10
(lp8477
(dp8478
g13
VSTAFF
p8479
sg15
(lp8480
sg43
V367910
p8481
sg2
VE-01
p8482
sa(dp8483
g13
VSTAFF
p8484
sg15
(lp8485
sg43
V367911
p8486
sg2
VE-02
p8487
sa(dp8488
g13
VSTAFF
p8489
sg15
(lp8490
sg43
V367912
p8491
sg2
VE-03
p8492
sa(dp8493
g13
VSTAFF
p8494
sg15
(lp8495
sg43
V367913
p8496
sg2
VE-04
p8497
sasg43
V98069
p8498
sg2
VZOO235L
p8499
sasg473
VZOO
p8500
sg43
V4745
p8501
sg2
VZOOLOGY
p8502
sasa.