(lp0
(dp1
S'name'
p2
VSUMMER 2012
p3
sS'departments'
p4
(lp5
(dp6
S'courses'
p7
(lp8
(dp9
S'sections'
p10
(lp11
(dp12
S'instructor'
p13
VAHADIAT
p14
sS'books'
p15
(lp16
sS'id'
p17
V379837
p18
sg2
VE-01
p19
sasg17
V97771
p20
sg2
VACC208A
p21
sasg17
V4815
p22
sg2
VACCOUNTING
p23
sS'abrev'
p24
VACC
p25
sa(dp26
g7
(lp27
(dp28
g10
(lp29
(dp30
g13
VMATHIAS
p31
sg15
(lp32
(dp33
S'ISBN'
p34
I9780195306200
sS'author'
p35
VWeston
p36
sS'isRequired'
p37
VRequired
p38
sS'title'
p39
VCreative Problem-Solving In Ethics
p40
sS'binding'
p41
NsS'edition'
p42
NsS'broncoListPrice'
p43
F19.95
sa(dp44
g34
I9781405111546
sg35
VDriver
p45
sg37
VRequired
p46
sg39
VEthics
p47
sg41
Nsg42
Nsg43
F29.95
sasg17
V367433
p48
sg2
VE-01
p49
sa(dp50
g13
VMERLINO
p51
sg15
(lp52
(dp53
g34
I9780195306200
sg35
VWeston
p54
sg37
VRequired
p55
sg39
VCreative Problem-Solving In Ethics
p56
sg41
Nsg42
Nsg43
F19.95
sa(dp57
g34
I9781405111546
sg35
VDriver
p58
sg37
VRequired
p59
sg39
VEthics
p60
sg41
Nsg42
Nsg43
F29.95
sa(dp61
g34
I9780923568962
sg35
VHoughton
p62
sg37
VRequired
p63
sg39
VApa: The Easy Way!
p64
sg41
VPaperback
p65
sg42
V2
p66
sg43
F10.95
sasg17
V367434
p67
sg2
VE-11
p68
sa(dp69
g13
VMERLINO
p70
sg15
(lp71
(dp72
g34
I9780195306200
sg35
VWeston
p73
sg37
VRequired
p74
sg39
VCreative Problem-Solving In Ethics
p75
sg41
Nsg42
Nsg43
F19.95
sa(dp76
g34
I9781405111546
sg35
VDriver
p77
sg37
VRequired
p78
sg39
VEthics
p79
sg41
Nsg42
Nsg43
F29.95
sa(dp80
g34
I9780923568962
sg35
VHoughton
p81
sg37
VRequired
p82
sg39
VApa: The Easy Way!
p83
sg41
VPaperback
p84
sg42
g66
sg43
F10.95
sasg17
V367435
p85
sg2
VE-12
p86
sa(dp87
g13
VPHILLIPS
p88
sg15
(lp89
(dp90
g34
I9780073386713
sg35
VRachels
p91
sg37
VRequired
p92
sg39
VElements Of Moral Philosophy
p93
sg41
VPaperback
p94
sg42
V6
p95
sg43
F55.0
sa(dp96
g34
I9780787985387
sg35
VUkens
p97
sg37
VRequired
p98
sg39
VWhat Would You Do? Workbook
p99
sg41
Nsg42
Nsg43
F15.0
sa(dp100
g34
I9780077318499
sg35
VRachels (Db*)
p101
sg37
VOptional
p102
sg39
VElements Of Moral Philosophy (Coursesmart)
p103
sg41
VEbook
p104
sg42
g95
sg43
F29.0
sasg17
V367436
p105
sg2
VE-22
p106
sasg17
V97784
p107
sg2
VAG401
p108
sasg17
V4748
p109
sg2
VAGRICULTURAL SCIENCE
p110
sg24
VAG
p111
sa(dp112
g7
(lp113
(dp114
g10
(lp115
(dp116
g13
VTUCKER,
p117
sg15
(lp118
(dp119
g34
I9780073530024
sg35
VLevy
p120
sg37
VRequired
p121
sg39
VRetailing Management
p122
sg41
VHardback
p123
sg42
V8
p124
sg43
F196.25
sasg17
V367446
p125
sg2
VE-01
p126
sasg17
V97794
p127
sg2
VAMM497A
p128
sasg17
V4807
p129
sg2
VAPPAREL MERCH & MGMT
p130
sg24
VAMM
p131
sa(dp132
g7
(lp133
(dp134
g10
(lp135
(dp136
g13
VRACHELE
p137
sg15
(lp138
(dp139
g34
I9780078140013
sg35
VMoro
p140
sg37
VRequired
p141
sg39
VMagic, Witchcraft & Religion
p142
sg41
VPaperback
p143
sg42
g124
sg43
F67.2
sasg17
V367449
p144
sg2
VE-01
p145
sasg17
V97797
p146
sg2
VANT360
p147
sasg17
V4754
p148
sg2
VANTHROPOLOGY
p149
sg24
VANT
p150
sa(dp151
g7
(lp152
(dp153
g10
(lp154
(dp155
g13
VSHEINE
p156
sg15
(lp157
sg17
V367473
p158
sg2
VE-01
p159
sa(dp160
g13
VRamirez, Irma
p161
sg15
(lp162
sg17
V380337
p163
sg2
VE-02
p164
sasg17
V97805
p165
sg2
VARC602L
p166
sasg17
V4755
p167
sg2
VARCHITECTURE
p168
sg24
VARC
p169
sa(dp170
g7
(lp171
(dp172
g10
(lp173
(dp174
g13
VBHANDARI
p175
sg15
(lp176
(dp177
g34
I9780131866140
sg35
VPhillips
p178
sg37
VRequired
p179
sg39
VFeedback Control Systems
p180
sg41
VHardback
p181
sg42
V5
p182
sg43
F177.2
sa(dp183
g34
I9780131393028
sg35
VPhillips (Db*)
p184
sg37
VOptional
p185
sg39
VFeedback Control Systems (Coursesmart)
p186
sg41
VEbook
p187
sg42
g182
sg43
F73.0
sasg17
V379811
p188
sg2
V01
p189
sasg17
V99351
p190
sg2
VARO499
p191
sasg17
V4756
p192
sg2
VAEROSPACE ENGR
p193
sg24
VARO
p194
sa(dp195
g7
(lp196
(dp197
g10
(lp198
(dp199
g13
V,
p200
sg15
(lp201
sg17
V380163
p202
sg2
VE-01
p203
sa(dp204
g13
g200
sg15
(lp205
sg17
V380164
p206
sg2
VE-02
p207
sasg17
V100635
p208
sg2
VAVS499A
p209
sasg17
V4758
p210
sg2
VANIMAL & VET SCIENCE
p211
sg24
VAVS
p212
sa(dp213
g7
(lp214
(dp215
g10
(lp216
(dp217
g13
VSTAFF
p218
sg15
(lp219
sg17
V367505
p220
sg2
VE-01
p221
sasg17
V97821
p222
sg2
VBIO488S
p223
sasg17
V4760
p224
sg2
VBIOLOGY
p225
sg24
VBIO
p226
sa(dp227
g7
(lp228
(dp229
g10
(lp230
(dp231
g13
VYadegari
p232
sg15
(lp233
sg17
V379885
p234
sg2
VE-01
p235
sasg17
V99385
p236
sg2
VCE433L
p237
sasg17
V4763
p238
sg2
VCIVIL ENGINEERING
p239
sg24
VCE
p240
sa(dp241
g7
(lp242
(dp243
g10
(lp244
(dp245
g13
VBromley, Barbara
p246
sg15
(lp247
(dp248
g34
I9780131181700
sg35
VHeflin
p249
sg37
VRequired
p250
sg39
VStudents With Autism Spectrum Disorders
p251
sg41
Nsg42
Nsg43
F56.0
sasg17
V383510
p252
sg2
V01
p253
sasg17
V100839
p254
sg2
VCEUEDS 532
p255
sasg17
V4786
p256
sg2
VCONTINUING EDUCATION
p257
sg24
VCEU
p258
sa(dp259
g7
(lp260
(dp261
g10
(lp262
(dp263
g13
VLI
p264
sg15
(lp265
sg17
V380190
p266
sg2
V01
p267
sasg17
V100644
p268
sg2
VCHE299
p269
sasg17
V4764
p270
sg2
VCHEM & MATRLS ENGR
p271
sg24
VCHE
p272
sa(dp273
g7
(lp274
(dp275
g10
(lp276
(dp277
g13
VOPOTOWSKY
p278
sg15
(lp279
sg17
V367591
p280
sg2
VE-01
p281
sa(dp282
g13
VOPOTOWSKY
p283
sg15
(lp284
sg17
V367592
p285
sg2
VE-02
p286
sasg17
V97860
p287
sg2
VCHM329L
p288
sasg17
V4803
p289
sg2
VCHEMISTRY
p290
sg24
VCHM
p291
sa(dp292
g7
(lp293
(dp294
g10
(lp295
(dp296
g13
VHWANG
p297
sg15
(lp298
(dp299
g34
I9780735627406
sg35
VNorthrup
p300
sg37
VRequired
p301
sg39
VWeb Applications Development With Microsoft.Net Framework 4
p302
sg41
Nsg42
Nsg43
F70.0
sasg17
V379861
p303
sg2
VE-01
p304
sasg17
V97867
p305
sg2
VCIS311
p306
sasg17
V4766
p307
sg2
VCOMPUTER INFO SYST
p308
sg24
VCIS
p309
sa(dp310
g7
(lp311
(dp312
g10
(lp313
(dp314
g13
VSTAFF
p315
sg15
(lp316
(dp317
g34
I9781412977821
sg35
VJowett
p318
sg37
VRequired
p319
sg39
VPropaganda & Persuasion
p320
sg41
VPaperback
p321
sg42
g182
sg43
F64.0
sasg17
V379871
p322
sg2
V01
p323
sasg17
V99370
p324
sg2
VCOM413
p325
sasg17
V4808
p326
sg2
VCOMMUNICATION
p327
sg24
VCOM
p328
sa(dp329
g7
(lp330
(dp331
g10
(lp332
(dp333
g13
VMunnerlyn
p334
sg15
(lp335
sg17
V370478
p336
sg2
VE-01
p337
sa(dp338
g13
VMunnerlyn
p339
sg15
(lp340
sg17
V370479
p341
sg2
VE-02
p342
sasg17
V99343
p343
sg2
VCPU100
p344
sasg17
V4769
p345
sg2
VCAL POLY UNIVERSITY
p346
sg24
VCPU
p347
sa(dp348
g7
(lp349
(dp350
g10
(lp351
(dp352
g13
VYOUNG
p353
sg15
(lp354
sg17
V367610
p355
sg2
VE-01
p356
sasg17
V97877
p357
sg2
VCS375
p358
sasg17
V4770
p359
sg2
VCOMPUTER SCIENCE
p360
sg24
VCS
p361
sa(dp362
g7
(lp363
(dp364
g10
(lp365
(dp366
g13
VBRESNOCK
p367
sg15
(lp368
(dp369
g34
I9780470393741
sg35
VEsty
p370
sg37
VRequired
p371
sg39
VGreen To Gold
p372
sg41
Nsg42
Nsg43
F21.95
sasg17
V367616
p373
sg2
VE-01
p374
sasg17
V97881
p375
sg2
VEC441
p376
sasg17
V4819
p377
sg2
VECONOMICS
p378
sg24
VEC
p379
sa(dp380
g7
(lp381
(dp382
g10
(lp383
(dp384
g13
VKETSEOGLOU
p385
sg15
(lp386
sg17
V367660
p387
sg2
VE-01
p388
sasg17
V97916
p389
sg2
VECE405L
p390
sasg17
V4774
p391
sg2
VELEC & COMP ENGR
p392
sg24
VECE
p393
sa(dp394
g7
(lp395
(dp396
g10
(lp397
(dp398
g13
VLaubie
p399
sg15
(lp400
(dp401
g34
I9780072866377
sg35
VTaylor
p402
sg37
VRequired
p403
sg39
VExceptional Students
p404
sg41
Nsg42
Nsg43
F141.25
sa(dp405
g34
I9780077267322
sg35
VTaylor (Db*)
p406
sg37
VOptional
p407
sg39
VExceptional Students (Coursesmart Digital)
p408
sg41
Nsg42
Nsg43
F79.25
sasg17
V367665
p409
sg2
VE-01
p410
sasg17
V97930
p411
sg2
VEDS403
p412
sasg17
V4834
p413
sg2
VEDUCATION SPECIALIST
p414
sg24
VEDS
p415
sa(dp416
g7
(lp417
(dp418
g10
(lp419
(dp420
g13
VSTAFF
p421
sg15
(lp422
sg17
V367667
p423
sg2
VE-01
p424
sasg17
V97950
p425
sg2
VEDU510A
p426
sasg17
V4812
p427
sg2
VEDUC LEADERSHIP
p428
sg24
VEDU
p429
sa(dp430
g7
(lp431
(dp432
g10
(lp433
(dp434
g13
VTULACZ
p435
sg15
(lp436
(dp437
g34
I9781888689136
sg35
VJosephson
p438
sg37
VRequired
p439
sg39
VMaking Ethical Decisions (Item # 500450)
p440
sg41
Nsg42
Nsg43
F17.3
sasg17
V379888
p441
sg2
VE-01
p442
sasg17
V99387
p443
sg2
VEGR445
p444
sasg17
V4817
p445
sg2
VENGINEERING
p446
sg24
VEGR
p447
sa(dp448
g7
(lp449
(dp450
g10
(lp451
(dp452
g13
VStaff, Staff
p453
sg15
(lp454
(dp455
g34
I9780062737335
sg35
VRavitch
p456
sg37
VRequired
p457
sg39
VAmerican Reader (2Nd)
p458
sg41
Nsg42
Nsg43
F20.0
sa(dp459
g34
I9780312650315
sg35
VLunsford
p460
sg37
VRequired
p461
sg39
VEasy Writer W/2009 Mla & Apa Updates
p462
sg41
VSpiral
p463
sg42
V4
p464
sg43
F28.65
sa(dp465
g34
I9780077421298
sg35
VSherman
p466
sg37
VRequired
p467
sg39
VWest Vol 1: To 1715
p468
sg41
Nsg42
Nsg43
F81.0
sasg17
V379833
p469
sg2
VREF
p470
sasg17
V99365
p471
sg2
VELIBRIDGE
p472
sasg17
V4777
p473
sg2
VENGLISH LANG INST
p474
sg24
VELI
p475
sa(dp476
g7
(lp477
(dp478
g10
(lp479
(dp480
g13
VSTAFF,
p481
sg15
(lp482
(dp483
g34
I9780802150615
sg35
VOe
p484
sg37
VRequired
p485
sg39
VPersonal Matter
p486
sg41
Nsg42
Nsg43
F12.0
sa(dp487
g34
I9780385722209
sg35
VSijie
p488
sg37
VRequired
p489
sg39
VBalzac & The Little Chinese Seamstress
p490
sg41
Nsg42
Nsg43
F11.95
sa(dp491
g34
I9781405100496
sg35
VMatz
p492
sg37
VRequired
p493
sg39
VModern Novel
p494
sg41
Nsg42
Nsg43
F24.95
sa(dp495
g34
I9780743267489
sg35
VSwarup
p496
sg37
VRequired
p497
sg39
VQ & A : A Novel (Slumdog Millionaire)
p498
sg41
Nsg42
Nsg43
F15.0
sa(dp499
g34
I9781400076949
sg35
VAdichie
p500
sg37
VRequired
p501
sg39
VPurple Hibiscus
p502
sg41
Nsg42
Nsg43
F14.95
sa(dp503
g34
I9780140031928
sg35
VKerouac
p504
sg37
VRequired
p505
sg39
VOn The Road
p506
sg41
Nsg42
Nsg43
F5.95
sasg17
V367687
p507
sg2
VE-01
p508
sasg17
V97929
p509
sg2
VENG201
p510
sasg17
V4832
p511
sg2
VENGLISH
p512
sg24
VENG
p513
sa(dp514
g7
(lp515
(dp516
g10
(lp517
(dp518
g13
VSTAFF
p519
sg15
(lp520
sg17
V380192
p521
sg2
VE-01
p522
sa(dp523
g13
VSTAFF
p524
sg15
(lp525
sg17
V380193
p526
sg2
VE-02
p527
sa(dp528
g13
VSTAFF
p529
sg15
(lp530
sg17
V380194
p531
sg2
VE-03
p532
sasg17
V100645
p533
sg2
VESE095
p534
sasg17
V4837
p535
sg2
VESE
p536
sg24
VESE
p537
sa(dp538
g7
(lp539
(dp540
g10
(lp541
(dp542
g13
VSTAFF
p543
sg15
(lp544
sg17
V380201
p545
sg2
VE-01
p546
sa(dp547
g13
VGRIFFITH
p548
sg15
(lp549
sg17
V380202
p550
sg2
VE-02
p551
sa(dp552
g13
VSTAFF
p553
sg15
(lp554
sg17
V380203
p555
sg2
VE-11
p556
sa(dp557
g13
VSTAFF
p558
sg15
(lp559
sg17
V380204
p560
sg2
VE-21
p561
sasg17
V100648
p562
sg2
VESM012
p563
sasg17
V4838
p564
sg2
VESM
p565
sg24
VESM
p566
sa(dp567
g7
(lp568
(dp569
g10
(lp570
(dp571
g13
VBABIKIAN
p572
sg15
(lp573
sg17
V379875
p574
sg2
VE-01
p575
sasg17
V99372
p576
sg2
VETC130L
p577
sasg17
V4833
p578
sg2
VENGR TECH/CONSTRUCT
p579
sg24
VETC
p580
sa(dp581
g7
(lp582
(dp583
g10
(lp584
(dp585
g13
VQAYYUM
p586
sg15
(lp587
sg17
V379889
p588
sg2
VE-01
p589
sasg17
V99388
p590
sg2
VETE499L
p591
sasg17
V4781
p592
sg2
VENGR TECH/ELECTRONIC
p593
sg24
VETE
p594
sa(dp595
g7
(lp596
(dp597
g10
(lp598
(dp599
g13
VKAUSER
p600
sg15
(lp601
sg17
V379899
p602
sg2
VE-11
p603
sasg17
V99396
p604
sg2
VETT310L
p605
sasg17
V4818
p606
sg2
VENGINEERING TECH
p607
sg24
VETT
p608
sa(dp609
g7
(lp610
(dp611
g10
(lp612
(dp613
g13
VREESE
p614
sg15
(lp615
sg17
V367692
p616
sg2
VE-O2
p617
sasg17
V97727
p618
sg2
VEWS499
p619
sasg17
V4695
p620
sg2
VETHNIC & WOMEN'S ST
p621
sg24
VEWS
p622
sa(dp623
g7
(lp624
(dp625
g10
(lp626
(dp627
g13
VMATHIAS
p628
sg15
(lp629
(dp630
g34
I9780470534786
sg35
VKimmel
p631
sg37
VRequired
p632
sg39
VAccounting
p633
sg41
VHardback
p634
sg42
g464
sg43
F230.0
sa(dp635
g34
I9780470919859
sg35
VKimmel (Db*)
p636
sg37
VOptional
p637
sg39
VAccounting (Coursesmart)
p638
sg41
VEbook
p639
sg42
g464
sg43
F120.5
sasg17
V367693
p640
sg2
VE-02
p641
sasg17
V97728
p642
sg2
VFMA224
p643
sasg17
V4697
p644
sg2
VFOOD MKTNG & AGRIB
p645
sg24
VFMA
p646
sa(dp647
g7
(lp648
(dp649
g10
(lp650
(dp651
g13
VSTAFF
p652
sg15
(lp653
sg17
V379825
p654
sg2
VE-01
p655
sasg17
V99355
p656
sg2
VFN696
p657
sasg17
V4698
p658
sg2
VFOODS & NUTRITION
p659
sg24
VFN
p660
sa(dp661
g7
(lp662
(dp663
g10
(lp664
(dp665
g13
VGHAZANFARI
p666
sg15
(lp667
(dp668
g34
I9780078034671
sg35
VRose
p669
sg37
VRequired
p670
sg39
VBank Management & Financial Services
p671
sg41
VHardback
p672
sg42
V9
p673
sg43
F212.2
sa(dp674
g34
I9780077410568
sg35
VRose (Db*)
p675
sg37
VOptional
p676
sg39
VBank Management & Financial Services (Coursesmart)
p677
sg41
VEbook
p678
sg42
g673
sg43
F113.25
sasg17
V379914
p679
sg2
VE-01
p680
sasg17
V97952
p681
sg2
VFRL460
p682
sasg17
V4805
p683
sg2
VFIN REAL EST & LAW
p684
sg24
VFRL
p685
sa(dp686
g7
(lp687
(dp688
g10
(lp689
(dp690
g13
VRHODES
p691
sg15
(lp692
sg17
V367728
p693
sg2
VE-01
p694
sasg17
V97753
p695
sg2
VGBA688
p696
sasg17
V4813
p697
sg2
VGRADUATE BUS ADMIN
p698
sg24
VGBA
p699
sa(dp700
g7
(lp701
(dp702
g10
(lp703
(dp704
g13
VMCGARVEY
p705
sg15
(lp706
sg17
V367730
p707
sg2
VE-01
p708
sasg17
V97755
p709
sg2
VGED400L
p710
sasg17
V4702
p711
sg2
VGRADUATE & PROF ST
p712
sg24
VGED
p713
sa(dp714
g7
(lp715
(dp716
g10
(lp717
(dp718
g13
VPlatt
p719
sg15
(lp720
(dp721
g34
I9780757570605
sg35
VHyslop
p722
sg37
VRequired
p723
sg39
VCalifornia Eclectic
p724
sg41
Nsg42
Nsg43
F79.95
sasg17
V367738
p725
sg2
VE-01
p726
sasg17
V97763
p727
sg2
VGEO351
p728
sasg17
V4703
p729
sg2
VGEOGRAPHY
p730
sg24
VGEO
p731
sa(dp732
g7
(lp733
(dp734
g10
(lp735
(dp736
g13
VROUMELIS
p737
sg15
(lp738
(dp739
g34
I9780757523687
sg35
VNourse
p740
sg37
VRequired
p741
sg39
VPractical Earth Science Exercises (Revised 2Nd)
p742
sg41
VPaperback
p743
sg42
g66
sg43
F58.8
sasg17
V379916
p744
sg2
VE-01
p745
sasg17
V99380
p746
sg2
VGSC321L
p747
sasg17
V4811
p748
sg2
VGEOLOGICAL SCIENCE
p749
sg24
VGSC
p750
sa(dp751
g7
(lp752
(dp753
g10
(lp754
(dp755
g13
VBATES
p756
sg15
(lp757
sg17
V367746
p758
sg2
VE-01
p759
sa(dp760
g13
VHOIKKALA
p761
sg15
(lp762
(dp763
g34
I9780618594962
sg35
VCherny/Chan*(Sw)
p764
sg37
VRequired
p765
sg39
VCompeting Visions W/Major Problems In California History
p766
sg41
Nsg42
Nsg43
F134.4
sa(dp767
g34
I9780669275889
sg35
VChan
p768
sg37
VPart of Set
p769
sg39
VMajor Problems In California History
p770
sg41
Nsg42
Nsg43
F68.2
sa(dp771
g34
I9780395959640
sg35
VCherny
p772
sg37
VPart of Set
p773
sg39
VCompeting Visions: History Of California
p774
sg41
Nsg42
Nsg43
F130.0
sasg17
V367747
p775
sg2
VE-02
p776
sasg17
V97955
p777
sg2
VHST370
p778
sasg17
V4707
p779
sg2
VHISTORY
p780
sg24
VHST
p781
sa(dp782
g7
(lp783
(dp784
g10
(lp785
(dp786
g13
VSWARTZ,
p787
sg15
(lp788
(dp789
g34
I9780324322842
sg35
VQuelch
p790
sg37
VRequired
p791
sg39
VGlobal Marketing Management
p792
sg41
VPaperback
p793
sg42
g182
sg43
F222.5
sasg17
V379918
p794
sg2
VE-01
p795
sasg17
V99399
p796
sg2
VIBM480
p797
sasg17
V4822
p798
sg2
VINTERNL BUS & MARKET
p799
sg24
VIBM
p800
sa(dp801
g7
(lp802
(dp803
g10
(lp804
(dp805
g13
VLAMPHIER
p806
sg15
(lp807
(dp808
g34
I9780553212471
sg35
VShelley
p809
sg37
VRequired
p810
sg39
VFrankenstein
p811
sg41
Nsg42
Nsg43
F4.95
sa(dp812
g34
I9780449220603
sg35
VPiercy
p813
sg37
VRequired
p814
sg39
VHe, She & It (Rack Size)
p815
sg41
Nsg42
Nsg43
F7.5
sasg17
V379919
p816
sg2
VE-01
p817
sasg17
V97968
p818
sg2
VIGE320
p819
sasg17
V4712
p820
sg2
VINTERDISPL GEN EDUC
p821
sg24
VIGE
p822
sa(dp823
g7
(lp824
(dp825
g10
(lp826
(dp827
g13
VMOUSTAFA
p828
sg15
(lp829
sg17
V367780
p830
sg2
V01
p831
sa(dp832
g13
VMOUSTAFA
p833
sg15
(lp834
sg17
V367781
p835
sg2
V02
p836
sasg17
V97981
p837
sg2
VKIN403L
p838
sasg17
V4806
p839
sg2
VKINESIOLOGY
p840
sg24
VKIN
p841
sa(dp842
g7
(lp843
(dp844
g10
(lp845
(dp846
g13
VKRINIK
p847
sg15
(lp848
(dp849
g34
I9780321390530
sg35
VChartrand
p850
sg37
VRequired
p851
sg39
VMathematical Proofs
p852
sg41
VHardback
p853
sg42
g66
sg43
F124.0
sa(dp854
g34
I9780321549631
sg35
VChartrand (Db*)
p855
sg37
VOptional
p856
sg39
VMathematical Proofs (Coursesmart Digital)
p857
sg41
VEbook
p858
sg42
g66
sg43
F51.0
sasg17
V367818
p859
sg2
VE-01
p860
sasg17
V98001
p861
sg2
VMAT310
p862
sasg17
V4719
p863
sg2
VMATHEMATICS
p864
sg24
VMAT
p865
sa(dp866
g7
(lp867
(dp868
g10
(lp869
(dp870
g13
VDINSMORE
p871
sg15
(lp872
sg17
V379955
p873
sg2
VE-01
p874
sasg17
V98026
p875
sg2
VME439L
p876
sasg17
V4821
p877
sg2
VMECHANICAL ENGR
p878
sg24
VME
p879
sa(dp880
g7
(lp881
(dp882
g10
(lp883
(dp884
g13
VDAVIS JR
p885
sg15
(lp886
sg17
V367853
p887
sg2
VE-01
p888
sa(dp889
g13
VDAVIS JR
p890
sg15
(lp891
sg17
V367854
p892
sg2
VE-02
p893
sasg17
V98028
p894
sg2
VMFE201L
p895
sasg17
V4721
p896
sg2
VMANUFACTURING ENGR
p897
sg24
VMFE
p898
sa(dp899
g7
(lp900
(dp901
g10
(lp902
(dp903
g13
VEdward
p904
sg15
(lp905
(dp906
g34
I9781578514861
sg35
VGoleman
p907
sg37
VRequired
p908
sg39
VPrimal Leadership
p909
sg41
Nsg42
Nsg43
F26.95
sa(dp910
g34
I9780060835910
sg35
VRock
p911
sg37
VRequired
p912
sg39
VQuiet Leadership
p913
sg41
Nsg42
Nsg43
F16.0
sa(dp914
g34
I9780787984915
sg35
VKouzes
p915
sg37
VRequired
p916
sg39
VLeadership Challenge
p917
sg41
VHardback
p918
sg42
g464
sg43
F29.95
sasg17
V379969
p919
sg2
VE-01
p920
sasg17
V99413
p921
sg2
VMHR450
p922
sasg17
V4823
p923
sg2
VMGMT & HUMAN RESOUR
p924
sg24
VMHR
p925
sa(dp926
g7
(lp927
(dp928
g10
(lp929
(dp930
g13
VSTAFF
p931
sg15
(lp932
sg17
V367856
p933
sg2
VE-01
p934
sa(dp935
g13
VSTAFF
p936
sg15
(lp937
sg17
V367857
p938
sg2
VE-02
p939
sa(dp940
g13
VSTAFF
p941
sg15
(lp942
sg17
V367858
p943
sg2
VE-04
p944
sasg17
V98030
p945
sg2
VMIC201L
p946
sasg17
V4814
p947
sg2
VMICROBIOLOGY
p948
sg24
VMIC
p949
sa(dp950
g7
(lp951
(dp952
g10
(lp953
(dp954
g13
VEMERSON
p955
sg15
(lp956
sg17
V379970
p957
sg2
VE-01
p958
sasg17
V99425
p959
sg2
VMPA599
p960
sasg17
V4824
p961
sg2
VMASTERS OF PUBLIC AD
p962
sg24
VMPA
p963
sa(dp964
g7
(lp965
(dp966
g10
(lp967
(dp968
g13
VRAVI
p969
sg15
(lp970
sg17
V383411
p971
sg2
V01
p972
sasg17
V100773
p973
sg2
VMTE207
p974
sasg17
V4726
p975
sg2
VMATERIALS ENGR
p976
sg24
VMTE
p977
sa(dp978
g7
(lp979
(dp980
g10
(lp981
(dp982
g13
VWINER
p983
sg15
(lp984
sg17
V380111
p985
sg2
VE-01
p986
sasg17
V99416
p987
sg2
VMU392
p988
sasg17
V4727
p989
sg2
VMUSIC
p990
sg24
VMU
p991
sa(dp992
g7
(lp993
(dp994
g10
(lp995
(dp996
g13
VMARKLE
p997
sg15
(lp998
(dp999
g34
I9780495603955
sg35
VSinnott-Armstrong
p1000
sg37
VRequired
p1001
sg39
VUnderstanding Arguments:An Introduction To Informal Log
p1002
sg41
VPaperback
p1003
sg42
g124
sg43
F70.5
sa(dp1004
g34
I9781439023846
sg35
VSinnott-Armstrong (Db*)
p1005
sg37
VOptional
p1006
sg39
VUnderstanding Arguments (Coursesmart)
p1007
sg41
VEbook
p1008
sg42
g124
sg43
F44.5
sasg17
V370486
p1009
sg2
V01
p1010
sasg17
V99349
p1011
sg2
VPHL202
p1012
sasg17
V4728
p1013
sg2
VPHILOSOPHY
p1014
sg24
VPHL
p1015
sa(dp1016
g7
(lp1017
(dp1018
g10
(lp1019
(dp1020
g13
VMYLANDER
p1021
sg15
(lp1022
sg17
V367870
p1023
sg2
VE-11
p1024
sa(dp1025
g13
VSTAFF,
p1026
sg15
(lp1027
sg17
V379821
p1028
sg2
VE-12
p1029
sasg17
V98042
p1030
sg2
VPHY133L
p1031
sasg17
V4828
p1032
sg2
VPHYSICS
p1033
sg24
VPHY
p1034
sa(dp1035
g7
(lp1036
(dp1037
g10
(lp1038
(dp1039
g13
VEMERSON
p1040
sg15
(lp1041
sg17
V379978
p1042
sg2
VE-01
p1043
sasg17
V99420
p1044
sg2
VPLS205A
p1045
sasg17
V4825
p1046
sg2
VPOLITICAL SCIENCE
p1047
sg24
VPLS
p1048
sa(dp1049
g7
(lp1050
(dp1051
g10
(lp1052
(dp1053
g13
VKaufmann
p1054
sg15
(lp1055
(dp1056
g34
I9780738003351
sg35
VKaae
p1057
sg37
VRequired
p1058
sg39
VTravels With My Antlion (Agb 300)
p1059
sg41
VSpiral
p1060
sg42
V5R
p1061
sg43
F44.55
sasg17
V370485
p1062
sg2
VE-01
p1063
sasg17
V99348
p1064
sg2
VPLT300
p1065
sasg17
V4826
p1066
sg2
VPLANT SCIENCES
p1067
sg24
VPLT
p1068
sa(dp1069
g7
(lp1070
(dp1071
g10
(lp1072
(dp1073
g13
VHORNER
p1074
sg15
(lp1075
sg17
V367877
p1076
sg2
VE-01
p1077
sasg17
V98048
p1078
sg2
VPSY460A
p1079
sasg17
V4829
p1080
sg2
VPSYCHOLOGY
p1081
sg24
VPSY
p1082
sa(dp1083
g7
(lp1084
(dp1085
g10
(lp1086
(dp1087
g13
VSTAFF
p1088
sg15
(lp1089
(dp1090
g34
I9780761929949
sg35
VBeckett
p1091
sg37
VRequired
p1092
sg39
VPolitics Of Injustice
p1093
sg41
VPaperback
p1094
sg42
g66
sg43
F53.0
sa(dp1095
g34
I9780802141446
sg35
VShakur
p1096
sg37
VRequired
p1097
sg39
VMonster
p1098
sg41
Nsg42
Nsg43
F14.95
sa(dp1099
g34
I9781583227435
sg35
VLoo
p1100
sg37
VRequired
p1101
sg39
VImpeach The President
p1102
sg41
VPaperback
p1103
sg42
V97
p1104
sg43
F17.95
sa(dp1105
g34
I9780132350068
sg35
VBarkan
p1106
sg37
VRequired
p1107
sg39
VCriminology
p1108
sg41
VHardback
p1109
sg42
g464
sg43
F120.05
sa(dp1110
g34
I9780135031834
sg35
VBarkan (Db*)
p1111
sg37
VOptional
p1112
sg39
VCriminology (Coursesmart Digital)
p1113
sg41
VEbook
p1114
sg42
g464
sg43
F64.0
sasg17
V367879
p1115
sg2
VE-01
p1116
sasg17
V98050
p1117
sg2
VSOC302
p1118
sasg17
V4830
p1119
sg2
VSOCIOLOGY
p1120
sg24
VSOC
p1121
sa(dp1122
g7
(lp1123
(dp1124
g10
(lp1125
(dp1126
g13
VDICKSON
p1127
sg15
(lp1128
(dp1129
g34
I9781428250246
sg35
VLong* (Sw2)
p1130
sg37
VRequired
p1131
sg39
VNexos Custom Vol 1 W/Ilrn Access Code
p1132
sg41
VKit/Set/Package
p1133
sg42
g66
sg43
F125.6
sa(dp1134
g34
I9781111006990
sg35
VLong*
p1135
sg37
VPart of Set
p1136
sg39
VNexos Custom Vol 1  (Acp For Cpp) 1111006997
p1137
sg41
VPaperback
p1138
sg42
g66
sg43
F80.0
sasg17
V367880
p1139
sg2
VE-01
p1140
sa(dp1141
g13
VVogel
p1142
sg15
(lp1143
(dp1144
g34
I9781428250246
sg35
VLong* (Sw2)
p1145
sg37
VRequired
p1146
sg39
VNexos Custom Vol 1 W/Ilrn Access Code
p1147
sg41
VKit/Set/Package
p1148
sg42
g66
sg43
F125.6
sa(dp1149
g34
I9781111006990
sg35
VLong*
p1150
sg37
VPart of Set
p1151
sg39
VNexos Custom Vol 1  (Acp For Cpp) 1111006997
p1152
sg41
VPaperback
p1153
sg42
g66
sg43
F80.0
sasg17
V367881
p1154
sg2
VE-02
p1155
sasg17
V98051
p1156
sg2
VSPN151
p1157
sasg17
V4736
p1158
sg2
VSPANISH
p1159
sg24
VSPN
p1160
sa(dp1161
g7
(lp1162
(dp1163
g10
(lp1164
(dp1165
g13
VGILL
p1166
sg15
(lp1167
(dp1168
g34
I9780321640772
sg35
VJohnson
p1169
sg37
VRequired
p1170
sg39
VMiller & Freund's Prob & Stats For Engineers
p1171
sg41
VHardback
p1172
sg42
g124
sg43
F150.0
sa(dp1173
g34
I9780321641724
sg35
VJohnson (Db*)
p1174
sg37
VOptional
p1175
sg39
VMiller & Freunds Probability & Statistics For Engrs (Coursesmart)
p1176
sg41
VEbook
p1177
sg42
g124
sg43
F64.0
sasg17
V367885
p1178
sg2
VE-01
p1179
sasg17
V98053
p1180
sg2
VSTA309
p1181
sasg17
V4739
p1182
sg2
VSTATISTICS
p1183
sg24
VSTA
p1184
sa(dp1185
g7
(lp1186
(dp1187
g10
(lp1188
(dp1189
g13
VSTAFF
p1190
sg15
(lp1191
sg17
V380207
p1192
sg2
V01
p1193
sasg17
V100649
p1194
sg2
VTED441
p1195
sasg17
V4831
p1196
sg2
VTEACHER EDUCATION
p1197
sg24
VTED
p1198
sa(dp1199
g7
(lp1200
(dp1201
g10
(lp1202
(dp1203
g13
VBISESTI
p1204
sg15
(lp1205
sg17
V379982
p1206
sg2
VE-01
p1207
sasg17
V99424
p1208
sg2
VTH441L
p1209
sasg17
V4742
p1210
sg2
VTHEATRE
p1211
sg24
VTH
p1212
sa(dp1213
g7
(lp1214
(dp1215
g10
(lp1216
(dp1217
g13
VRHODES
p1218
sg15
(lp1219
(dp1220
g34
I9781450068925
sg35
VRhodes
p1221
sg37
VRequired
p1222
sg39
VReport Writing: A Survival Guide
p1223
sg41
Nsg42
Nsg43
F16.0
sa(dp1224
g34
I9780136006695
sg35
VHunger
p1225
sg37
VRequired
p1226
sg39
VEssentials Of Strategic Management
p1227
sg41
VPaperback
p1228
sg42
g182
sg43
F104.0
sa(dp1229
g34
I9780135100004
sg35
VHunger (Db*)
p1230
sg37
VOptional
p1231
sg39
VEssentials Of Strategic Management (Coursesmart)
p1232
sg41
VEbook
p1233
sg42
g182
sg43
F42.0
sasg17
V367898
p1234
sg2
VE-01
p1235
sasg17
V98062
p1236
sg2
VTOM411
p1237
sasg17
V4809
p1238
sg2
VTECH & OPER MGMT
p1239
sg24
VTOM
p1240
sa(dp1241
g7
(lp1242
(dp1243
g10
(lp1244
(dp1245
g13
VDELGADO
p1246
sg15
(lp1247
sg17
V367902
p1248
sg2
VE-01
p1249
sa(dp1250
g13
VZIMMER
p1251
sg15
(lp1252
sg17
V367903
p1253
sg2
VE-02
p1254
sasg17
V98065
p1255
sg2
VURP499
p1256
sasg17
V4744
p1257
sg2
VURBAN & REG PLANNING
p1258
sg24
VURP
p1259
sa(dp1260
g7
(lp1261
(dp1262
g10
(lp1263
(dp1264
g13
VSTAFF
p1265
sg15
(lp1266
sg17
V367910
p1267
sg2
VE-01
p1268
sa(dp1269
g13
VSTAFF
p1270
sg15
(lp1271
sg17
V367911
p1272
sg2
VE-02
p1273
sa(dp1274
g13
VSTAFF
p1275
sg15
(lp1276
sg17
V367912
p1277
sg2
VE-03
p1278
sa(dp1279
g13
VSTAFF
p1280
sg15
(lp1281
sg17
V367913
p1282
sg2
VE-04
p1283
sasg17
V98069
p1284
sg2
VZOO235L
p1285
sasg17
V4745
p1286
sg2
VZOOLOGY
p1287
sg24
VZOO
p1288
sasa.